(dp0
S'A1150'
p1
S'Tanin, E.'
p2
sS'A523'
p3
S'Fawcett, P.'
p4
sS'A1147'
p5
S'Maruyama, M.'
p6
sS'A1201'
p7
S'Hirschman, L.'
p8
sS'A987'
p9
S'Ledermann, F.'
p10
sS'A914'
p11
S'Anilkumar Patro'
p12
sS'A234'
p13
S'van Goethem, A.'
p14
sS'A235'
p15
S'Reimer, A.'
p16
sS'A236'
p17
S'Speckmann, B.'
p18
sS'A237'
p19
S'Polk, T.'
p20
sS'A230'
p21
S'Fumeng Yang'
p22
sS'A231'
p23
S'Franconeri, S.'
p24
sS'A232'
p25
S'Bae, J.'
p26
sS'A233'
p27
S'Watson, B.'
p28
sS'A335'
p29
S'Shneiderman, B.'
p30
sS'A334'
p31
S'Plaisant, C.'
p32
sS'A337'
p33
S'Reinhardt, T.'
p34
sS'A336'
p35
S'Vehlow, C.'
p36
sS'A238'
p37
S'Jing Yang'
p38
sS'A239'
p39
S'Yueqi Hu'
p40
sS'A333'
p41
S'Pack, M.L.'
p42
sS'A332'
p43
S'Guerra-Gomez, J.'
p44
sS'A1230'
p45
S'Lantrip, D.'
p46
sS'A1173'
p47
S'Zwa, A.'
p48
sS'A1172'
p49
S'Shaw, C.'
p50
sS'A1078'
p51
S'Paris, J.P.'
p52
sS'A1079'
p53
S'Overbye, T.J.'
p54
sS'A1177'
p55
S'Carriere, J.'
p56
sS'A1176'
p57
S'Kazman, R.'
p58
sS'A1175'
p59
S'Roberts, D.A.'
p60
sS'A1174'
p61
S'Miller, E.L.'
p62
sS'A1072'
p63
S'Allan, J.'
p64
sS'A1073'
p65
S'Russo dos Santos, C.'
p66
sS'A1070'
p67
S'Lalanne, D.'
p68
sS'A1071'
p69
S'Leuski, A.'
p70
sS'A1076'
p71
S'Loisel, D.'
p72
sS'A1077'
p73
S'Trichaud, N.'
p74
sS'A759'
p75
S'Dorling, D.'
p76
sS'A1075'
p77
S'Abel, P.'
p78
sS'A990'
p79
S'Amenta, N.'
p80
sS'A590'
p81
S'Cooper, M.'
p82
sS'A842'
p83
S'Peng, W.'
p84
sS'A898'
p85
S'Agarawala, A.'
p86
sS'A758'
p87
S'van der Linden, E.-J.'
p88
sS'A841'
p89
S'Roth, S.F.'
p90
sS'A899'
p91
S'Spoerri, A.'
p92
sS'A519'
p93
S'Xin Tong'
p94
sS'A840'
p95
S'Berry, L.'
p96
sS'A908'
p97
S'Groth, D.P.'
p98
sS'A909'
p99
S'Murphy, B.W.'
p100
sS'A906'
p101
S'Moere, A.V.'
p102
sS'A847'
p103
S'Onoda, T.'
p104
sS'A904'
p105
S'Albrecht-Buehler, C.'
p106
sS'A905'
p107
S'Shamma, D.A.'
p108
sS'A902'
p109
S'Dietrich, L.'
p110
sS'A903'
p111
S'Williams, M.'
p112
sS'A900'
p113
S'Heilmann, R.'
p114
sS'A846'
p115
S'Itoh, N.'
p116
sS'A894'
p117
S'Wampler, K.'
p118
sS'A845'
p119
S'Tsutsumi, F.'
p120
sS'A895'
p121
S'Soon Tee Teoh'
p122
sS'A339'
p123
S'Shafer, I.'
p124
sS'A844'
p125
S'Kegelmeyer, W.P.'
p126
sS'A1232'
p127
S'Schur, A.'
p128
sS'A518'
p129
S'Zekai Gao'
p130
sS'A338'
p131
S'Sambasivan, R.R.'
p132
sS'A696'
p133
S'Sauda, E.'
p134
sS'A697'
p135
S'Kriss, J.'
p136
sS'A694'
p137
S'Clarke, K.'
p138
sS'A695'
p139
S'Wessel, G.'
p140
sS'A692'
p141
S'Kennedy, J.'
p142
sS'A693'
p143
S'Brunsdon, C.'
p144
sS'A690'
p145
S'Mateas, M.'
p146
sS'A691'
p147
S'Graham, M.'
p148
sS'A757'
p149
S'Vliegen, R.'
p150
sS'A756'
p151
S'Sips, M.'
p152
sS'A755'
p153
S'Panse, C.'
p154
sS'A754'
p155
S'Hofacker, I.L.'
p156
sS'A753'
p157
S'Flamm, C.'
p158
sS'A752'
p159
S'Pizzonia, M.'
p160
sS'A698'
p161
S'Frishman, Y.'
p162
sS'A699'
p163
S'Tal, A.'
p164
sS'A51'
p165
S'Lam, H.'
p166
sS'A50'
p167
S'Ya-Hsin Hung'
p168
sS'A53'
p169
S'Ji Soo Yi'
p170
sS'A52'
p171
S'Youn-ah Kang'
p172
sS'A55'
p173
S'Peck, E.M.'
p174
sS'A54'
p175
S'Ottley, A.'
p176
sS'A57'
p177
S'Afergan, D.'
p178
sS'A56'
p179
S'Harrison, L.'
p180
sS'A59'
p181
S'Taylor, H.A.'
p182
sS'A58'
p183
S'Ziemkiewicz, C.'
p184
sS'A817'
p185
S'Kaseda, T.'
p186
sS'A995'
p187
S'Hix, D.'
p188
sS'A1132'
p189
S'Martucci, L.'
p190
sS'A331'
p191
S'Jing Hua'
p192
sS'A330'
p193
S'Taimouri, V.'
p194
sS'A623'
p195
S'Douma, M.'
p196
sS'A622'
p197
S'Janetzko, H.'
p198
sS'A621'
p199
S'Mansmann, F.'
p200
sS'A620'
p201
S'Post, F.H.'
p202
sS'A627'
p203
S'Liu, S.'
p204
sS'A626'
p205
S'Gritsai, P.'
p206
sS'A625'
p207
S'Ancuta, O.'
p208
sS'A624'
p209
S'Ligierko, G.'
p210
sS'A999'
p211
S'Grosjean, J.'
p212
sS'A998'
p213
S'Sainitzer, R.'
p214
sS'A629'
p215
S'Spring, N.'
p216
sS'A628'
p217
S'Wang, T.D.'
p218
sS'A1229'
p219
S'Pennock, K.'
p220
sS'A472'
p221
S'Selassie, D.'
p222
sS'A473'
p223
S'Heller, B.'
p224
sS'A470'
p225
S'Juhee Bae'
p226
sS'A471'
p227
S'Jimeng Sun'
p228
sS'A476'
p229
S'Mitsouras, D.'
p230
sS'A477'
p231
S'Melchionna, S.'
p232
sS'A474'
p233
S'Sering, L.'
p234
sS'A475'
p235
S'Peters, A.'
p236
sS'A573'
p237
S'JAnicke, S.'
p238
sS'A572'
p239
S'Metoyer, R.'
p240
sS'A478'
p241
S'Rybicki, F.'
p242
sS'A479'
p243
S'Feldman, C.'
p244
sS'A577'
p245
S'Scheuermann, G.'
p246
sS'A576'
p247
S'Stadler, P.F.'
p248
sS'A575'
p249
S'Hellmuth, M.'
p250
sS'A574'
p251
S'Heine, C.'
p252
sS'A967'
p253
S'Lehmann, O.'
p254
sS'A1183'
p255
S'Stroffolino, P.J.'
p256
sS'A1107'
p257
S'Avidan, T.'
p258
sS'A1181'
p259
S'Gomberg, C.C.'
p260
sS'A1186'
p261
S'Liqun Jin'
p262
sS'A1187'
p263
S'Banks, D.C.'
p264
sS'A1184'
p265
S'Kolojechick, A.J.'
p266
sS'A1185'
p267
S'Dunmire, C.'
p268
sS'A1188'
p269
S'Claffy, K.'
p270
sS'A1037'
p271
S'Bermudez, J.'
p272
sS'A997'
p273
S'Prabhakar, S.'
p274
sS'A450'
p275
S'Walker, R.'
p276
sS'A877'
p277
S'Singhal, M.'
p278
sS'A874'
p279
S'Havre, S.'
p280
sS'A875'
p281
S'Cramer, N.'
p282
sS'A872'
p283
S'Posse, C.'
p284
sS'A873'
p285
S'Whiting, M.'
p286
sS'A870'
p287
S'Eick, S.G.'
p288
sS'A871'
p289
S'Jie Yun'
p290
sS'A1218'
p291
S'Petajan, E.'
p292
sS'A1219'
p293
S'Mattis, J.'
p294
sS'A878'
p295
S'Tyman, J.'
p296
sS'A879'
p297
S'Gruetzmacher, G.P.'
p298
sS'A199'
p299
S'Palmas, G.'
p300
sS'A198'
p301
S'Jinwook Seo'
p302
sS'A780'
p303
S'Ling Xiao'
p304
sS'A191'
p305
S'Xiaoru Yuan'
p306
sS'A209'
p307
S'Lichtman, J.'
p308
sS'A193'
p309
S'Bernstein, M.S.'
p310
sS'A192'
p311
S'Demiralp, C.'
p312
sS'A195'
p313
S'Jaeseok Huh'
p314
sS'A194'
p315
S'Jaemin Jo'
p316
sS'A197'
p317
S'Bohyoung Kim'
p318
sS'A161'
p319
S'Netzel, R.'
p320
sS'A371'
p321
S'Hua Guo'
p322
sS'A370'
p323
S'Jianu, R.'
p324
sS'A373'
p325
S'Hanjun Xian'
p326
sS'A372'
p327
S'Zhihua Dong'
p328
sS'A375'
p329
S'Boukhelifa, N.'
p330
sS'A374'
p331
S'Upatising, B.'
p332
sS'A377'
p333
S'Vande Moere, A.'
p334
sS'A376'
p335
S'Isenberg, T.'
p336
sS'A379'
p337
S'Wimmer, C.'
p338
sS'A378'
p339
S'Tomitsch, M.'
p340
sS'A526'
p341
S'Carpenter, A.E.'
p342
sS'A278'
p343
S'Miller, R.C.'
p344
sS'A279'
p345
S'Vendettuoli, M.'
p346
sS'A175'
p347
S'Goffin, P.'
p348
sS'A174'
p349
S'Gleicher, M.'
p350
sS'A173'
p351
S'Correll, M.'
p352
sS'A172'
p353
S'van der Corput, P.'
p354
sS'A171'
p355
S'Streit, M.'
p356
sS'A170'
p357
S'Gehlenborg, N.'
p358
sS'A270'
p359
S'Heitzler, M.'
p360
sS'A271'
p361
S'Schumann, H.'
p362
sS'A272'
p363
S'Kehrer, J.'
p364
sS'A273'
p365
S'Berger, W.'
p366
sS'A274'
p367
S'Groller, E.'
p368
sS'A275'
p369
S'Roth, R.E.'
p370
sS'A276'
p371
S'Bakke, E.'
p372
sS'A178'
p373
S'Stolper, C.D.'
p374
sS'A1137'
p375
S'Moore, J.'
p376
sS'A1136'
p377
S'Green, N.'
p378
sS'A1135'
p379
S'Carenini, G.'
p380
sS'A1134'
p381
S'Kerpedjiev, S.'
p382
sS'A1133'
p383
S'Chang-Sung Jeong'
p384
sS'A399'
p385
S'Ma, J.'
p386
sS'A1131'
p387
S'Masui, T.'
p388
sS'A1130'
p389
S'Strasser, T.'
p390
sS'A168'
p391
S'Collins, C.'
p392
sS'A398'
p393
S'Deussen, O.'
p394
sS'A1171'
p395
S'Hackborn, D.'
p396
sS'A751'
p397
S'Patrignani, M.'
p398
sS'A200'
p399
S'Bachynskyi, M.'
p400
sS'A285'
p401
S'Rufiange, S.'
p402
sS'A284'
p403
S'Kachkaev, A.'
p404
sS'A287'
p405
S'Zuchao Wang'
p406
sS'A286'
p407
S'McGuffin, M.J.'
p408
sS'A281'
p409
S'Dillingham, I.'
p410
sS'A280'
p411
S'Jones, S.'
p412
sS'A283'
p413
S'Duffy, A.'
p414
sS'A282'
p415
S'Dove, G.'
p416
sS'A289'
p417
S'Mears, C.'
p418
sS'A288'
p419
S'Cong Guo'
p420
sS'A728'
p421
S'Balzer, M.'
p422
sS'A528'
p423
S'Diakopoulos, N.'
p424
sS'A729'
p425
S'Been, K.'
p426
sS'A750'
p427
S'Moneta, A.'
p428
sS'A876'
p429
S'Shah, A.'
p430
sS'A529'
p431
S'Gruen, D.'
p432
sS'A304'
p433
S'Lins, L.'
p434
sS'A305'
p435
S'Klosowski, J.T.'
p436
sS'A306'
p437
S'Nothelfer, C.'
p438
sS'A307'
p439
S'Aigner, W.'
p440
sS'A300'
p441
S'Leung, R.'
p442
sS'A301'
p443
S'Jakobsen, M.R.'
p444
sS'A302'
p445
S'Sahlemariam Haile, Y.'
p446
sS'A303'
p447
S'Knudsen, S.'
p448
sS'A390'
p449
S'Haroz, S.'
p450
sS'A308'
p451
S'Fink, M.'
p452
sS'A309'
p453
S'Haunert, J.-H.'
p454
sS'A1178'
p455
S'Pichler, M.'
p456
sS'A649'
p457
S'Nersessian, N.J.'
p458
sS'A723'
p459
S'Interrante, V.'
p460
sS'A1003'
p461
S'Saini, V.'
p462
sS'A1002'
p463
S'Corman, S.R.'
p464
sS'A1001'
p465
S'Forser, C.'
p466
sS'A1000'
p467
S'Bingham, G.P.'
p468
sS'A1007'
p469
S'Tavanti, M.'
p470
sS'A1006'
p471
S'Olston, C.'
p472
sS'A1005'
p473
S'Gao, G.R.'
p474
sS'A1004'
p475
S'Thiagarajan, P.R.'
p476
sS'A1090'
p477
S'Rayson, J.K.'
p478
sS'A1009'
p479
S'Neville, P.'
p480
sS'A1008'
p481
S'Barlow, T.'
p482
sS'A1091'
p483
S'Van Selow, E.R.'
p484
sS'A454'
p485
S'Ferreira, N.'
p486
sS'A658'
p487
S'Stolte, C.'
p488
sS'A659'
p489
S'Henr, N.'
p490
sS'A455'
p491
S'Fink, D.'
p492
sS'A652'
p493
S'Zhou, M.X.'
p494
sS'A653'
p495
S'Schreiber, F.'
p496
sS'A650'
p497
S'Schmidt, H.'
p498
sS'A651'
p499
S'Zhen Wen'
p500
sS'A656'
p501
S'Pak Chung Wong'
p502
sS'A456'
p503
S'Kelling, S.'
p504
sS'A654'
p505
S'Stuckey, P.'
p506
sS'A655'
p507
S'Woodward, M.'
p508
sS'A457'
p509
S'Wood, C.'
p510
sS'A99'
p511
S'Forlini, S.'
p512
sS'A98'
p513
S'Hinrichs, U.'
p514
sS'A95'
p515
S'Ritsos, P.D.'
p516
sS'A94'
p517
S'Headleand, C.'
p518
sS'A97'
p519
S'Hofmann, H.'
p520
sS'A96'
p521
S'VanderPlas, S.'
p522
sS'A91'
p523
S'Eagan, J.'
p524
sS'A90'
p525
S'Bailly, G.'
p526
sS'A93'
p527
S'Roberts, J.C.'
p528
sS'A92'
p529
S'Lecolinet, E.'
p530
sS'A955'
p531
S'Do, E.Y.'
p532
sS'A954'
p533
S'Canny, J.'
p534
sS'A957'
p535
S'Cowley, W.'
p536
sS'A956'
p537
S'Adams, D.'
p538
sS'A951'
p539
S'Bosche, R.'
p540
sS'A452'
p541
S'Badawood, D.'
p542
sS'A953'
p543
S'Tan, R.'
p544
sS'A952'
p545
S'Glaser, D. C.'
p546
sS'A1098'
p547
S'Bergeron, R.D.'
p548
sS'A453'
p549
S'Shah, P.'
p550
sS'A959'
p551
S'Greenberg, S.'
p552
sS'A856'
p553
S'Luisa Lu'
p554
sS'A1099'
p555
S'Harrison, J.'
p556
sS'A1233'
p557
S'Angus, I.G.'
p558
sS'A969'
p559
S'Paley, W.B.'
p560
sS'A511'
p561
S'Kuchera-Morin, J.'
p562
sS'A857'
p563
S'McCloskey, W.R.'
p564
sS'A510'
p565
S'Cantareiro, G.'
p566
sS'A964'
p567
S'Lengerich, G.'
p568
sS'A513'
p569
S'Albuquerque, G.'
p570
sS'A965'
p571
S'Csallner, C.'
p572
sS'A512'
p573
S'Forbes, A.'
p574
sS'A966'
p575
S'Handte, M.'
p576
sS'A950'
p577
S'Tang, D.'
p578
sS'A483'
p579
S'Pietriga, E.'
p580
sS'A482'
p581
S'Hoeferlin, M.'
p582
sS'A481'
p583
S'Heinrich, J.'
p584
sS'A480'
p585
S'Konevtsova, N.'
p586
sS'A487'
p587
S'Buchin, K.'
p588
sS'A486'
p589
S'Claessen, J.H.T.'
p590
sS'A485'
p591
S'Bartram, L.'
p592
sS'A484'
p593
S'Rodgers, J.'
p594
sS'A960'
p595
S'Qing Li'
p596
sS'A489'
p597
S'Yu-Shuen Wang'
p598
sS'A488'
p599
S'Verbeek, K.'
p600
sS'A722'
p601
S'Sunghee Kim'
p602
sS'A713'
p603
S'Halevy, A.'
p604
sS'A712'
p605
S'Klingner, J.'
p606
sS'A711'
p607
S'Bryan Chan'
p608
sS'A710'
p609
S'Xin Dong'
p610
sS'A717'
p611
S'Ivanov, Y.A.'
p612
sS'A716'
p613
S'Leboe, J.'
p614
sS'A715'
p615
S'Irani, P.'
p616
sS'A714'
p617
S'Kadaba, N.R.'
p618
sS'A719'
p619
S'Sorokin, A.'
p620
sS'A718'
p621
S'Wren, C.R.'
p622
sS'A961'
p623
S'Shedd, B.'
p624
sS'A1217'
p625
S'Leibfried, T.'
p626
sS'A502'
p627
S'Telea, A.'
p628
sS'A503'
p629
S'Ersoy, O.'
p630
sS'A500'
p631
S'Cuminato, J.A.'
p632
sS'A501'
p633
S'Nonato, L.G.'
p634
sS'A506'
p635
S'Wickham, H.'
p636
sS'A507'
p637
S'Tatu, A.'
p638
sS'A504'
p639
S'Beck, F.'
p640
sS'A505'
p641
S'Diehl, S.'
p642
sS'A1158'
p643
S'Fracchia, F.D.'
p644
sS'A508'
p645
S'Albers, D.'
p646
sS'A509'
p647
S'Dewey, C.'
p648
sS'A527'
p649
S'Ruddle, R.A.'
p650
sS'A958'
p651
S'Wong, N.'
p652
sS'A139'
p653
S'Quinan, P.S.'
p654
sS'A138'
p655
S'Turkay, C.'
p656
sS'A133'
p657
S'van de Wetering, H.'
p658
sS'A132'
p659
S'Hurter, C.'
p660
sS'A131'
p661
S'Scheepens, R.'
p662
sS'A130'
p663
S'Huron, S.'
p664
sS'A137'
p665
S'Slingsby, A.'
p666
sS'A136'
p667
S'Dykes, J.'
p668
sS'A135'
p669
S'Goodwin, S.'
p670
sS'A134'
p671
S'van Wijk, J.J.'
p672
sS'A807'
p673
S'Jewitt, T.'
p674
sS'A657'
p675
S'Xiaoming Li'
p676
sS'A806'
p677
S'Brodbeck, D.'
p678
sS'A1231'
p679
S'Pottier, M.'
p680
sS'A805'
p681
S'Ahlberg, C.'
p682
sS'A436'
p683
S'Langer, S.'
p684
sS'A437'
p685
S'Pascucci, V.'
p686
sS'A434'
p687
S'Landge, A.G.'
p688
sS'A435'
p689
S'Levine, J.A.'
p690
sS'A432'
p691
S'Gahegan, M.'
p692
sS'A433'
p693
S'Guo-Xun Yuan'
p694
sS'A430'
p695
S'Li, B.'
p696
sS'A431'
p697
S'Swingley, D.'
p698
sS'A825'
p699
S'Castagliola, P.'
p700
sS'A803'
p701
S'Rao, R.'
p702
sS'A827'
p703
S'White, H.D.'
p704
sS'A826'
p705
S'Kreuseler, M.'
p706
sS'A821'
p707
S'Saraiya, P.'
p708
sS'A820'
p709
S'Foresti, S.'
p710
sS'A438'
p711
S'Trimm, D.'
p712
sS'A439'
p713
S'Rheingans, P.'
p714
sS'A801'
p715
S'Nossin, F.'
p716
sS'A800'
p717
S'Lommerse, G.'
p718
sS'A227'
p719
S'Zgraggen, E.'
p720
sS'A226'
p721
S'Stray, J.'
p722
sS'A225'
p723
S'Ingram, S.'
p724
sS'A224'
p725
S'Xi Zhu'
p726
sS'A223'
p727
S'Diansheng Guo'
p728
sS'A222'
p729
S'Dearden, J.'
p730
sS'A221'
p731
S'Dove, A.'
p732
sS'A220'
p733
S'Major, T.'
p734
sS'A340'
p735
S'Mazurek, M.L.'
p736
sS'A341'
p737
S'Ganger, G.R.'
p738
sS'A342'
p739
S'Vo, A.A.'
p740
sS'A343'
p741
S'Isola, P.'
p742
sS'A344'
p743
S'Sunkavalli, S.'
p744
sS'A345'
p745
S'Kai Xu'
p746
sS'A229'
p747
S'Drucker, S.'
p748
sS'A228'
p749
S'Zeleznik, R.'
p750
sS'A1047'
p751
S'Muller, W.'
p752
sS'A1046'
p753
S'Alexa, M.'
p754
sS'A1045'
p755
S'Weber, M.'
p756
sS'A1044'
p757
S'Jones, J.A.'
p758
sS'A1043'
p759
S'Harrold, M.J.'
p760
sS'A1042'
p761
S'Hsu, M.'
p762
sS'A1041'
p763
S'Ladisch, J.'
p764
sS'A1040'
p765
S'Miller, N.'
p766
sS'A1049'
p767
S'Chi, E.H.'
p768
sS'A1048'
p769
S'Lopez, N.'
p770
sS'A1228'
p771
S'Wise, J.A.'
p772
sS'A1168'
p773
S'Kaufman, A.'
p774
sS'A1169'
p775
S'Alper, N.'
p776
sS'A907'
p777
S'Gansner, E.'
p778
sS'A1164'
p779
S'Ilgen, M.R.'
p780
sS'A1165'
p781
S'Cowperthwaite, D.J.'
p782
sS'A1166'
p783
S'Crabb, A.H.'
p784
sS'A1167'
p785
S'Varshney, A.'
p786
sS'A1160'
p787
S'Finger, J.'
p788
sS'A1161'
p789
S'Bentley, C.L.'
p790
sS'A1162'
p791
S'Feiner, S.'
p792
sS'A1163'
p793
S'Rushall, D.A.'
p794
sS'A1226'
p795
S'Dawkes, H.'
p796
sS'A749'
p797
S'Di Battista, G.'
p798
sS'A984'
p799
S'Quang Vinh Nguyen'
p800
sS'A986'
p801
S'Harel, D.'
p802
sS'A901'
p803
S'Lu, D.'
p804
sS'A843'
p805
S'Stanton, E.'
p806
sS'A919'
p807
S'Krishnaswamy, P.'
p808
sS'A858'
p809
S'Seneker, D.'
p810
sS'A859'
p811
S'Davison, G.'
p812
sS'A911'
p813
S'de Oliveira, M.C.F.'
p814
sS'A910'
p815
S'Artero, A.O.'
p816
sS'A913'
p817
S'Kobsa, A.'
p818
sS'A912'
p819
S'Levkowitz, H.'
p820
sS'A915'
p821
S'Huang Shiping'
p822
sS'A588'
p823
S'Jones, S.J.M.'
p824
sS'A917'
p825
S'Keahey, T.A.'
p826
sS'A916'
p827
S'Nishant Mehta'
p828
sS'A1026'
p829
S'Wylie, B.'
p830
sS'A589'
p831
S'Vrotsou, K.'
p832
sS'A889'
p833
S'Melancon, G.'
p834
sS'A681'
p835
S'Summet, J.'
p836
sS'A680'
p837
S'Romero, M.'
p838
sS'A683'
p839
S'Draper, G.'
p840
sS'A682'
p841
S'Abowd, G.'
p842
sS'A685'
p843
S'Ellis, G.'
p844
sS'A684'
p845
S'Riesenfeld, R.F.'
p846
sS'A687'
p847
S'Tan, D.S.'
p848
sS'A686'
p849
S'Dix, A.'
p850
sS'A689'
p851
S'Pousman, Z.'
p852
sS'A688'
p853
S'Blanch, R.'
p854
sS'A760'
p855
S'Barford, A.'
p856
sS'A761'
p857
S'Newman, M.'
p858
sS'A766'
p859
S'Proctor, J.'
p860
sS'A767'
p861
S'Sturtz, D.'
p862
sS'A764'
p863
S'Aluker, S.'
p864
sS'A765'
p865
S'Panjwani, G.'
p866
sS'A46'
p867
S'Marriott, K.'
p868
sS'A47'
p869
S'Wybrow, M.'
p870
sS'A44'
p871
S'Kieffer, S.'
p872
sS'A45'
p873
S'Klein, K.'
p874
sS'A42'
p875
S'Dwyer, T.'
p876
sS'A43'
p877
S'Gange, G.'
p878
sS'A40'
p879
S'Schreck, T.'
p880
sS'A41'
p881
S'Yoghourdjian, V.'
p882
sS'A865'
p883
S'Kerne, A.'
p884
sS'A993'
p885
S'Nowell, L.'
p886
sS'A852'
p887
S'Myers, E.'
p888
sS'A48'
p889
S'Sukwon Lee'
p890
sS'A49'
p891
S'Sung-Hee Kim'
p892
sS'A853'
p893
S'Coppin, P.'
p894
sS'A867'
p895
S'Wright, W.'
p896
sS'A854'
p897
S'Wagner, M.'
p898
sS'A866'
p899
S'Kapler, T.'
p900
sS'A829'
p901
S'Buzydlowski, J.'
p902
sS'A1227'
p903
S'Hua Su'
p904
sS'A985'
p905
S'Mao Lin Huang'
p906
sS'A968'
p907
S'Morrison, A.'
p908
sS'A850'
p909
S'Sabol, V.'
p910
sS'A618'
p911
S'Botha, C.P.'
p912
sS'A619'
p913
S'Grundy, E.'
p914
sS'A616'
p915
S'Sullivan, T.'
p916
sS'A617'
p917
S'Blaas, J.'
p918
sS'A614'
p919
S'Peihong Guo'
p920
sS'A615'
p921
S'He Xiao'
p922
sS'A612'
p923
S'Desai, K.'
p924
sS'A613'
p925
S'Foley, J.D.'
p926
sS'A610'
p927
S'Feinberg, J.'
p928
sS'A611'
p929
S'Clarkson, E.'
p930
sS'A1224'
p931
S'Spence, B.'
p932
sS'A469'
p933
S'Czerwinski, M.'
p934
sS'A468'
p935
S'Alper, B.'
p936
sS'A465'
p937
S'Waldner, M.'
p938
sS'A464'
p939
S'Steinberger, M.'
p940
sS'A467'
p941
S'Ogievetsky, V.'
p942
sS'A466'
p943
S'Bostock, M.'
p944
sS'A461'
p945
S'Krstajic, M.'
p946
sS'A460'
p947
S'Filzmoser, P.'
p948
sS'A463'
p949
S'Willems, N.'
p950
sS'A462'
p951
S'Keim, D.A.'
p952
sS'A982'
p953
S'Girardin, L.'
p954
sS'A1225'
p955
S'Tweedie, L.'
p956
sS'A1220'
p957
S'Jerding, D.F.'
p958
sS'A33'
p959
S'Kay, M.'
p960
sS'A32'
p961
S'Oliva, A.'
p962
sS'A31'
p963
S'Pfister, H.'
p964
sS'A30'
p965
S'Borkin, D.'
p966
sS'A37'
p967
S'Strobelt, H.'
p968
sS'A36'
p969
S'Forsell, C.'
p970
sS'A35'
p971
S'Johansson, J.'
p972
sS'A34'
p973
S'Heer, J.'
p974
sS'A869'
p975
S'Cluxton, D.'
p976
sS'A868'
p977
S'Pin Ren'
p978
sS'A39'
p979
S'Bum Chul Kwon'
p980
sS'A38'
p981
S'Oelke, D.'
p982
sS'A1223'
p983
S'Golovchinsky, G.'
p984
sS'A1034'
p985
S'Syroid, N.'
p986
sS'A1221'
p987
S'Reichenberger, K.'
p988
sS'A983'
p989
S'Morris, S.'
p990
sS'A521'
p991
S'Xiaolong Zhang'
p992
sS'A1148'
p993
S'Reiss, S.P.'
p994
sS'A388'
p995
S'Majumder, M.'
p996
sS'A389'
p997
S'Cook, D.'
p998
sS'A384'
p999
S'Balakrishnan, R.'
p1000
sS'A385'
p1001
S'Kong, N.'
p1002
sS'A386'
p1003
S'Agrawala, M.'
p1004
sS'A387'
p1005
S'Follett, L.'
p1006
sS'A380'
p1007
S'Christoph, B.'
p1008
sS'A381'
p1009
S'Grechenig, T.'
p1010
sS'A382'
p1011
S'Gotz, D.'
p1012
sS'A383'
p1013
S'Jian Zhao'
p1014
sS'A142'
p1015
S'Mackinlay, J.'
p1016
sS'A143'
p1017
S'Howe, B.'
p1018
sS'A140'
p1019
S'Wongsuphasawat, K.'
p1020
sS'A141'
p1021
S'Moritz, D.'
p1022
sS'A146'
p1023
S'Stusak, S.'
p1024
sS'A147'
p1025
S'Tabard, A.'
p1026
sS'A144'
p1027
S'Rensink, R.A.'
p1028
sS'A145'
p1029
S'Bertini, E.'
p1030
sS'A263'
p1031
S'Hullman, J.'
p1032
sS'A262'
p1033
S'Wattenberg, M.'
p1034
sS'A261'
p1035
S'Armstrong, Z.'
p1036
sS'A260'
p1037
S'Moller, T.'
p1038
sS'A267'
p1039
S'Adar, E.'
p1040
sS'A266'
p1041
S'Fisher, D.'
p1042
sS'A265'
p1043
S'Bongshin Lee'
p1044
sS'A264'
p1045
S'Riche, N.H.'
p1046
sS'A1120'
p1047
S'Min Song'
p1048
sS'A1121'
p1049
S'Hansen, M.'
p1050
sS'A1089'
p1051
S"D'Eletto, R."
p1052
sS'A1088'
p1053
S'Baker, J.'
p1054
sS'A1124'
p1055
S'Chuah, M.C.'
p1056
sS'A1125'
p1057
S'Boscoe, F.P.'
p1058
sS'A578'
p1059
S'Fernandez, R.'
p1060
sS'A1127'
p1061
S'Sprenger, T.C.'
p1062
sS'A1083'
p1063
S'Ribler, R. L.'
p1064
sS'A1082'
p1065
S'Redstrom, J.'
p1066
sS'A1081'
p1067
S'Bjork, S.'
p1068
sS'A1080'
p1069
S'Weber, J.D.'
p1070
sS'A1087'
p1071
S'Matsushita, Y.'
p1072
sS'A359'
p1073
S'Micallef, L.'
p1074
sS'A1085'
p1075
S'Shiozawa, H.'
p1076
sS'A1084'
p1077
S'Abrams, M.'
p1078
sS'A546'
p1079
S'Grammel, L.'
p1080
sS'A547'
p1081
S'Storey, M.'
p1082
sS'A544'
p1083
S'Ritz, A.M.'
p1084
sS'A358'
p1085
S'Floridi, L.'
p1086
sS'A542'
p1087
S'McDonnel, B.'
p1088
sS'A543'
p1089
S"O'Brien, T.M."
p1090
sS'A540'
p1091
S'Buja, A.'
p1092
sS'A541'
p1093
S'Javed, W.'
p1094
sS'A818'
p1095
S'Livnat, Y.'
p1096
sS'A819'
p1097
S'Shaun Moon'
p1098
sS'A548'
p1099
S'Koh, K.'
p1100
sS'A549'
p1101
S'Feng, D.'
p1102
sS'A851'
p1103
S'Klieber, W.'
p1104
sS'A317'
p1105
S'Yang Liu'
p1106
sS'A316'
p1107
S'Mengchen Liu'
p1108
sS'A315'
p1109
S'Enxun Wei'
p1110
sS'A314'
p1111
S'Yingcai Wu'
p1112
sS'A313'
p1113
S'Smith, G.'
p1114
sS'A312'
p1115
S'Kazi, R.H.'
p1116
sS'A311'
p1117
S'Wolff, A.'
p1118
sS'A310'
p1119
S'Spoerhase, J.'
p1120
sS'A351'
p1121
S'Schulz, A.'
p1122
sS'A319'
p1123
S'Clear, T.'
p1124
sS'A318'
p1125
S'Basole, R.C.'
p1126
sS'A1146'
p1127
S'Teraoka, T.'
p1128
sS'A350'
p1129
S'Jenny, B.'
p1130
sS'A560'
p1131
S'Karlson, A.'
p1132
sS'A1068'
p1133
S'Flowers, W.C.'
p1134
sS'A277'
p1135
S'Karger, D.R.'
p1136
sS'A1154'
p1137
S'Tenev, T.'
p1138
sS'A1157'
p1139
S'Wong, K.'
p1140
sS'A1156'
p1141
S'Robertson, E.L.'
p1142
sS'A1018'
p1143
S'Page, W.'
p1144
sS'A1019'
p1145
S'Kleiberg, E.'
p1146
sS'A1153'
p1147
S'Cotture, P.'
p1148
sS'A666'
p1149
S'Yuntao Jia'
p1150
sS'A1014'
p1151
S'Dantone, J.'
p1152
sS'A1015'
p1153
S'Gershon, N.'
p1154
sS'A1016'
p1155
S'Dale, J.'
p1156
sS'A1017'
p1157
S'Hamburger, T.'
p1158
sS'A1010'
p1159
S'Ka-Ping Yee'
p1160
sS'A1011'
p1161
S'Dhamija, R.'
p1162
sS'A1012'
p1163
S'Hearst, M.'
p1164
sS'A1013'
p1165
S'Posdamer, J.L.'
p1166
sS'A82'
p1167
S'Dork, M.'
p1168
sS'A83'
p1169
S'Muller, B.'
p1170
sS'A80'
p1171
S'Meyer, M.'
p1172
sS'A81'
p1173
S'Stahnke, J.'
p1174
sS'A86'
p1175
S'Russell, R.'
p1176
sS'A87'
p1177
S'Hoffswell, J.'
p1178
sS'A84'
p1179
S'Thom, A.'
p1180
sS'A85'
p1181
S'Satyanarayan, A.'
p1182
sS'A1038'
p1183
S'Strayer, D.'
p1184
sS'A88'
p1185
S'Cohe, A.'
p1186
sS'A89'
p1187
S'Liutkus, B.'
p1188
sS'A660'
p1189
S'Freiler, W.'
p1190
sS'A920'
p1191
S'Mohammadi-Aragh, M.J.'
p1192
sS'A921'
p1193
S'Jankun-Kelly, T.J.'
p1194
sS'A922'
p1195
S'Diep, E.'
p1196
sS'A923'
p1197
S'Jacob, R.'
p1198
sS'A861'
p1199
S'Schneidewind, J.'
p1200
sS'A925'
p1201
S'Levy, S.'
p1202
sS'A926'
p1203
S'Ahmed, A.'
p1204
sS'A927'
p1205
S'Murray, C.'
p1206
sS'A928'
p1207
S'Le Song'
p1208
sS'A929'
p1209
S'Ying Xin Wu'
p1210
sS'A1057'
p1211
S'Mogensen, P.'
p1212
sS'A269'
p1213
S'Nocke, T.'
p1214
sS'A1062'
p1215
S'Fujishiro, I.'
p1216
sS'A1064'
p1217
S'Furuhata, R.'
p1218
sS'A268'
p1219
S'Schulz, H.'
p1220
sS'A1067'
p1221
S'Yang-Pelaez, J.'
p1222
sS'A1149'
p1223
S'Kolojejchick, J.'
p1224
sS'A1170'
p1225
S'Stein, C.'
p1226
sS'A804'
p1227
S'Andrews, K.'
p1228
sS'A1212'
p1229
S'Wistrand, E.'
p1230
sS'A1210'
p1231
S'Wood, A.M.'
p1232
sS'A996'
p1233
S'Conklin, N.'
p1234
sS'A823'
p1235
S'Boyd, D.'
p1236
sS'A148'
p1237
S'Sauka, F.'
p1238
sS'A991'
p1239
S'Mei Chuah'
p1240
sS'A149'
p1241
S'Khot, R.A.'
p1242
sS'A79'
p1243
S'Coles, K.'
p1244
sS'A78'
p1245
S'Lein, J.'
p1246
sS'A77'
p1247
S'McCurdy, N.'
p1248
sS'A76'
p1249
S'Vilanova, A.'
p1250
sS'A75'
p1251
S'Eisemann, E.'
p1252
sS'A74'
p1253
S'Breeuwer, M.'
p1254
sS'A73'
p1255
S'Eisemann, M.'
p1256
sS'A72'
p1257
S'Raidou, R.G.'
p1258
sS'A71'
p1259
S'Theisel, H.'
p1260
sS'A70'
p1261
S'Lehmann, D.J.'
p1262
sS'A645'
p1263
S'Ying Tu'
p1264
sS'A644'
p1265
S'Jiexun Li'
p1266
sS'A647'
p1267
S'Barsky, A.'
p1268
sS'A646'
p1269
S'Han-Wei Shen'
p1270
sS'A641'
p1271
S'Villerd, J.'
p1272
sS'A640'
p1273
S'Ranwez, S.'
p1274
sS'A643'
p1275
S'Chen, C.'
p1276
sS'A642'
p1277
S'Jian Zhang'
p1278
sS'A726'
p1279
S'Neeraj Krishnan'
p1280
sS'A727'
p1281
S'Bottger, J.'
p1282
sS'A724'
p1283
S'Healey, C.'
p1284
sS'A725'
p1285
S'Abello, J.'
p1286
sS'A561'
p1287
S'Tuan Nhon Dang'
p1288
sS'A648'
p1289
S'Gardy, J.'
p1290
sS'A720'
p1291
S'Kaur, I.'
p1292
sS'A721'
p1293
S'Hagh-Shenas, H.'
p1294
sS'A106'
p1295
S'Conglei Shi'
p1296
sS'A107'
p1297
S'Heulot, N.'
p1298
sS'A104'
p1299
S'Fekete, J.'
p1300
sS'A105'
p1301
S'Bach, B.'
p1302
sS'A102'
p1303
S'Eveillard, L.'
p1304
sS'A103'
p1305
S'Detienne, F.'
p1306
sS'A100'
p1307
S'Moynihan, B.'
p1308
sS'A101'
p1309
S'Boy, J.'
p1310
sS'A515'
p1311
S'Magnor, M.'
p1312
sS'A514'
p1313
S'Lowe, T.'
p1314
sS'A517'
p1315
S'Yangqiu Song'
p1316
sS'A516'
p1317
S'Li Tan'
p1318
sS'A458'
p1319
S'Freire, J.'
p1320
sS'A459'
p1321
S'Silva, C.T.'
p1322
sS'A108'
p1323
S'Madhyastha, T.'
p1324
sS'A109'
p1325
S'Grabowski, T.'
p1326
sS'A1123'
p1327
S'Pang, A.'
p1328
sS'A391'
p1329
S'Whitney, D.'
p1330
sS'A1110'
p1331
S'Lucas, P.'
p1332
sS'A992'
p1333
S'Kosslyn, S.M.'
p1334
sS'A1031'
p1335
S'Tollis, I.G.'
p1336
sS'A1112'
p1337
S'Rosenblum, M.'
p1338
sS'A1126'
p1339
S'Haug, D.'
p1340
sS'A1114'
p1341
S'Moses, Y.'
p1342
sS'A421'
p1343
S'Horn, M.S.'
p1344
sS'A420'
p1345
S'Block, F.'
p1346
sS'A423'
p1347
S'Diamond, J.'
p1348
sS'A422'
p1349
S'Phillips, B.C.'
p1350
sS'A425'
p1351
S'Chia Shen'
p1352
sS'A424'
p1353
S'Evans, E.M.'
p1354
sS'A427'
p1355
S'Johns, P.'
p1356
sS'A426'
p1357
S'Walny, J.'
p1358
sS'A429'
p1359
S"O'Brien, J."
p1360
sS'A428'
p1361
S'MacEachren, A.M.'
p1362
sS'A580'
p1363
S'van Ham, F.'
p1364
sS'A581'
p1365
S'Perer, A.'
p1366
sS'A586'
p1367
S'Jackman, S.D.'
p1368
sS'A587'
p1369
S'Birol, I.'
p1370
sS'A584'
p1371
S'North, C.'
p1372
sS'A585'
p1373
S'Muigg, P.'
p1374
sS'A1159'
p1375
S'Muller, H.A.'
p1376
sS'A1051'
p1377
S'Abdo, H.'
p1378
sS'A579'
p1379
S'Ruble, S.'
p1380
sS'A1086'
p1381
S'Okada, K.'
p1382
sS'A212'
p1383
S'Sikansi, F.'
p1384
sS'A213'
p1385
S'Fatore, F.M.'
p1386
sS'A210'
p1387
S'Hadwiger, M.'
p1388
sS'A211'
p1389
S'Duarte, F.S.L.G.'
p1390
sS'A216'
p1391
S'Saket, B.'
p1392
sS'A217'
p1393
S'Kobourov, S.'
p1394
sS'A214'
p1395
S'Fadel, S.G.'
p1396
sS'A215'
p1397
S'Paulovich, F.V.'
p1398
sS'A353'
p1399
S'Hanrahan, P.'
p1400
sS'A352'
p1401
S'Gerth, J.'
p1402
sS'A218'
p1403
S'Borner, K.'
p1404
sS'A219'
p1405
S'Sadana, R.'
p1406
sS'A357'
p1407
S'Reppa, I.'
p1408
sS'A356'
p1409
S'Grant, P.W.'
p1410
sS'A355'
p1411
S'Mohamed, F.'
p1412
sS'A354'
p1413
S'Abdul-Rahman, A.'
p1414
sS'A1050'
p1415
S'Brewer, I.'
p1416
sS'A814'
p1417
S'Yamamoto, M.'
p1418
sS'A1052'
p1419
S'Gundrum, J.'
p1420
sS'A1053'
p1421
S'Otto, G.'
p1422
sS'A1054'
p1423
S'Buscher, M.'
p1424
sS'A1055'
p1425
S'Shapiro, D.'
p1426
sS'A1056'
p1427
S'Christensen, M.'
p1428
sS'A815'
p1429
S'Saito, H.'
p1430
sS'A1058'
p1431
S'Orbaek, P.'
p1432
sS'A1059'
p1433
S'Herman, I.'
p1434
sS'A816'
p1435
S'Hoshiya, Y.'
p1436
sS'A1119'
p1437
S'Riedl, J.'
p1438
sS'A1118'
p1439
S'Ed Huai-Hsin Chi'
p1440
sS'A545'
p1441
S'Raphael, B.J.'
p1442
sS'A1111'
p1443
S'Sean, J.'
p1444
sS'A810'
p1445
S'Payne, D.A.'
p1446
sS'A1113'
p1447
S'Whitney, P.'
p1448
sS'A190'
p1449
S'Hollerer, T.'
p1450
sS'A1115'
p1451
S'Polunsky, Z.'
p1452
sS'A571'
p1453
S'Zhang, E.'
p1454
sS'A1117'
p1455
S'Wills, G.J.'
p1456
sS'A811'
p1457
S'Turner, A.'
p1458
sS'A1214'
p1459
S'Ernst, R.'
p1460
sS'A570'
p1461
S'Ju, C.'
p1462
sS'A537'
p1463
S'Janicke, H.'
p1464
sS'A812'
p1465
S'Saito, T.'
p1466
sS'A932'
p1467
S'Summers, K.L.'
p1468
sS'A813'
p1469
S'Miyamura, H.N.'
p1470
sS'A1179'
p1471
S'Wolf, P.'
p1472
sS'A1222'
p1473
S'Kamps, T.'
p1474
sS'A569'
p1475
S'Hess, R.'
p1476
sS'A1215'
p1477
S'Anupam, V.'
p1478
sS'A1182'
p1479
S'Burks, M.B.'
p1480
sS'A536'
p1481
S'Proctor, K.'
p1482
sS'A934'
p1483
S'Kubica, S.'
p1484
sS'A1180'
p1485
S'Senn, J.A.'
p1486
sS'A1025'
p1487
S'Davidson, G.'
p1488
sS'A1024'
p1489
S'Tanasse, T.'
p1490
sS'A1027'
p1491
S'Boyack, K.W.'
p1492
sS'A971'
p1493
S'Grinstein, G.'
p1494
sS'A1021'
p1495
S'Pickle, L.'
p1496
sS'A1020'
p1497
S'Edsall, R.M.'
p1498
sS'A1023'
p1499
S'Becker, B.'
p1500
sS'A1022'
p1501
S'Brainerd, J.'
p1502
sS'A582'
p1503
S'Quinn, K.I.'
p1504
sS'A828'
p1505
S'Lin, X.'
p1506
sS'A1029'
p1507
S'Ebert, J.'
p1508
sS'A939'
p1509
S'Skog, T.'
p1510
sS'A535'
p1511
S'Swindells, C.'
p1512
sS'A1205'
p1513
S'Pernicks, A.'
p1514
sS'A678'
p1515
S'Lebanon, G.'
p1516
sS'A679'
p1517
S'Cleveland, W.S.'
p1518
sS'A674'
p1519
S'Chan, B.'
p1520
sS'A675'
p1521
S'Wu, L.'
p1522
sS'A676'
p1523
S'Cammarano, M.'
p1524
sS'A677'
p1525
S'Kidwell, P.'
p1526
sS'A670'
p1527
S'Luboschik, M.'
p1528
sS'A671'
p1529
S'Cords, H.'
p1530
sS'A672'
p1531
S'Rogowitz, B.'
p1532
sS'A673'
p1533
S'Byron, L.'
p1534
sS'A970'
p1535
S'Trutschl, M.'
p1536
sS'A1151'
p1537
S'Beigel, R.'
p1538
sS'A583'
p1539
S'Robertson, G.'
p1540
sS'A1189'
p1541
S'Fenner, B.'
p1542
sS'A1138'
p1543
S'Ankerst, M.'
p1544
sS'A980'
p1545
S'Kerr, B.'
p1546
sS'A773'
p1547
S'Mackey, P.'
p1548
sS'A609'
p1549
S'Viegas, F.B.'
p1550
sS'A608'
p1551
S'Tobiasz, M.'
p1552
sS'A979'
p1553
S'Ware, C.'
p1554
sS'A978'
p1555
S'Nuij, W.A.A.'
p1556
sS'A601'
p1557
S'Ming Dong'
p1558
sS'A600'
p1559
S'Lijun Wang'
p1560
sS'A603'
p1561
S'Conversy, S.'
p1562
sS'A602'
p1563
S'Tissoires, B.'
p1564
sS'A605'
p1565
S'Hoffman, E.'
p1566
sS'A604'
p1567
S'Knoblach, S.'
p1568
sS'A607'
p1569
S'Johansson, S.'
p1570
sS'A606'
p1571
S'McKeon, M.'
p1572
sS'A418'
p1573
S'Andrienko, G.'
p1574
sS'A419'
p1575
S'Andrienko, N.'
p1576
sS'A1213'
p1577
S'Luders, P.'
p1578
sS'A410'
p1579
S'Frank, A.'
p1580
sS'A411'
p1581
S'Lundervold, A.'
p1582
sS'A412'
p1583
S'Pileggi, H.'
p1584
sS'A413'
p1585
S'Boyle, J.M.'
p1586
sS'A414'
p1587
S'Afzal, S.'
p1588
sS'A415'
p1589
S'Maciejewski, R.'
p1590
sS'A416'
p1591
S'Yun Jang'
p1592
sS'A417'
p1593
S'Ebert, D.S.'
p1594
sS'A788'
p1595
S'Hanfler, M.'
p1596
sS'A789'
p1597
S'Froehlich, B.'
p1598
sS'A1211'
p1599
S'Beale, R.'
p1600
sS'A1155'
p1601
S'Brath, R.'
p1602
sS'A824'
p1603
S'Ghoniem, M.'
p1604
sS'A768'
p1605
S'Vukovic, M.'
p1606
sS'A781'
p1607
S'Yeh, R.'
p1608
sS'A782'
p1609
S'Grossman, R.'
p1610
sS'A783'
p1611
S'Fleischer, D.'
p1612
sS'A784'
p1613
S'Lerner, J.'
p1614
sS'A785'
p1615
S'Hao, M.C.'
p1616
sS'A786'
p1617
S'Dayal, U.'
p1618
sS'A787'
p1619
S'Riehmann, P.'
p1620
sS'A20'
p1621
S'Min Zhu'
p1622
sS'A21'
p1623
S'Sixiao Yang'
p1624
sS'A22'
p1625
S'Huamin Qu'
p1626
sS'A23'
p1627
S'Anand, A.'
p1628
sS'A24'
p1629
S'Talbot, J.'
p1630
sS'A25'
p1631
S'Borkin, M.'
p1632
sS'A26'
p1633
S'Bylinskii, Z.'
p1634
sS'A27'
p1635
S'Nam Wook Kim'
p1636
sS'A28'
p1637
S'Bainbridge, C.M.'
p1638
sS'A29'
p1639
S'Yeh, C.S.'
p1640
sS'A896'
p1641
S'Gossett, N.'
p1642
sS'A897'
p1643
S'Baoquan Chen'
p1644
sS'A890'
p1645
S'Tzu-Wei Hsu'
p1646
sS'A891'
p1647
S'Inman, L.'
p1648
sS'A892'
p1649
S'McColgin, D.'
p1650
sS'A893'
p1651
S'Stamper, K.'
p1652
sS'A775'
p1653
S'Foote, H.'
p1654
sS'A774'
p1655
S'Perrine, K.'
p1656
sS'A777'
p1657
S'Shengdong Zhao'
p1658
sS'A776'
p1659
S'Thomas, J.'
p1660
sS'A771'
p1661
S'Aggarwal, V.'
p1662
sS'A770'
p1663
S'Fanea, E.'
p1664
sS'A769'
p1665
S'Kang Shi'
p1666
sS'A772'
p1667
S'Koren, Y.'
p1668
sS'A568'
p1669
S'Pham, T.'
p1670
sS'A822'
p1671
S'Lee, P.'
p1672
sS'A779'
p1673
S'Doantam Phan'
p1674
sS'A778'
p1675
S'Chignell, M.H.'
p1676
sS'A256'
p1677
S'Sedlmair, M.'
p1678
sS'A257'
p1679
S'Heinzl, C.'
p1680
sS'A254'
p1681
S'de Jonge, E.'
p1682
sS'A255'
p1683
S'Vuillemot, R.'
p1684
sS'A252'
p1685
S'Laidlaw, D.H.'
p1686
sS'A253'
p1687
S'Tennekes, M.'
p1688
sS'A250'
p1689
S'Gramazio, C.'
p1690
sS'A251'
p1691
S'Schloss, K.B.'
p1692
sS'A397'
p1693
S'Brandes, U.'
p1694
sS'A396'
p1695
S'Zinsmaier, M.'
p1696
sS'A395'
p1697
S'Tominski, C.'
p1698
sS'A394'
p1699
S'Xin Zhang'
p1700
sS'A393'
p1701
S'Yifan Hu'
p1702
sS'A392'
p1703
S'Limei Che'
p1704
sS'A258'
p1705
S'Bruckner, S.'
p1706
sS'A259'
p1707
S'Piringer, H.'
p1708
sS'A1094'
p1709
S'Espinosa, O.J.'
p1710
sS'A1095'
p1711
S'Hendrickson, C.'
p1712
sS'A1096'
p1713
S'Garrett, J.H.'
p1714
sS'A1097'
p1715
S'Wilson, R.M.'
p1716
sS'A159'
p1717
S'Schulz, M.'
p1718
sS'A158'
p1719
S'Bhatele, A.'
p1720
sS'A1092'
p1721
S'Guimbretiere, F.'
p1722
sS'A1093'
p1723
S'Boltman, A.'
p1724
sS'A155'
p1725
S'Bremer, P.-T.'
p1726
sS'A154'
p1727
S'Isaacs, K.E.'
p1728
sS'A157'
p1729
S'Gamblin, T.'
p1730
sS'A156'
p1731
S'Jusufi, I.'
p1732
sS'A151'
p1733
S'Kindlmann, G.'
p1734
sS'A150'
p1735
S'Butz, A.'
p1736
sS'A153'
p1737
S'Wood, J.'
p1738
sS'A152'
p1739
S'Hauser, H.'
p1740
sS'A994'
p1741
S'Schulman, R.'
p1742
sS'A1101'
p1743
S'Rodden, K.'
p1744
sS'A551'
p1745
S'Yueh Lee'
p1746
sS'A550'
p1747
S'Kwock, L.'
p1748
sS'A553'
p1749
S'DePace, A.'
p1750
sS'A552'
p1751
S'Taylor, R.M.'
p1752
sS'A555'
p1753
S'Furu Wei'
p1754
sS'A554'
p1755
S'Segel, E.'
p1756
sS'A557'
p1757
S'Hong Zhou'
p1758
sS'A556'
p1759
S'Au, N.'
p1760
sS'A559'
p1761
S'Kincaid, R.'
p1762
sS'A558'
p1763
S'Tuttle, C.'
p1764
sS'A809'
p1765
S'Crow, V.'
p1766
sS'A808'
p1767
S'Hetzler, E.'
p1768
sS'A490'
p1769
S'Ming-Te Chi'
p1770
sS'A747'
p1771
S'Yost, B.'
p1772
sS'A491'
p1773
S'Lloyd, D.'
p1774
sS'A492'
p1775
S'Paiva, J.G.'
p1776
sS'A322'
p1777
S'Gali, G.'
p1778
sS'A323'
p1779
S'Ferstay, J.A.'
p1780
sS'A320'
p1781
S'Mengdie Hu'
p1782
sS'A321'
p1783
S'Mehrotra, H.'
p1784
sS'A326'
p1785
S'Rocca-Serra, P.'
p1786
sS'A327'
p1787
S'Sansone, S.-A.'
p1788
sS'A324'
p1789
S'Nielsen, C.B.'
p1790
sS'A325'
p1791
S'Maguire, E.'
p1792
sS'A1152'
p1793
S'Lunzer, A.'
p1794
sS'A494'
p1795
S'Pedrini, H.'
p1796
sS'A328'
p1797
S'Davies, J.'
p1798
sS'A329'
p1799
S'Chen, M.'
p1800
sS'A1122'
p1801
S'Meads, D.'
p1802
sS'A495'
p1803
S'Telles, G.P.'
p1804
sS'A348'
p1805
S'Dong-Han Ham'
p1806
sS'A855'
p1807
S'Fischer, K.'
p1808
sS'A496'
p1809
S'Minghim, R.'
p1810
sS'A349'
p1811
S'Nguyen, P.H.'
p1812
sS'A497'
p1813
S'Hadlak, S.'
p1814
sS'A1028'
p1815
S'Dachselt, R.'
p1816
sS'A1069'
p1817
S'Pu, P.'
p1818
sS'A887'
p1819
S'Viswanath, L.'
p1820
sS'A1144'
p1821
S'Barry, P.'
p1822
sS'A1145'
p1823
S'Konstan, J.'
p1824
sS'A1142'
p1825
S'Appel, A.W.'
p1826
sS'A1143'
p1827
S'Frecon, E.'
p1828
sS'A963'
p1829
S'Hardisty, F.'
p1830
sS'A886'
p1831
S'Ke, W.'
p1832
sS'A1061'
p1833
S'Skupin, A.'
p1834
sS'A1060'
p1835
S'Marshall, M.S.'
p1836
sS'A1063'
p1837
S'Ichikawa, Y.'
p1838
sS'A196'
p1839
S'Jonghun Park'
p1840
sS'A1065'
p1841
S'Takeshima, Y.'
p1842
sS'A885'
p1843
S'Card, S.K.'
p1844
sS'A451'
p1845
S'Nick, B.'
p1846
sS'A1066'
p1847
S'Woodruff, A.'
p1848
sS'A883'
p1849
S'Gail Ahn'
p1850
sS'A762'
p1851
S'Zotti, G.'
p1852
sS'A882'
p1853
S'Herring, R.'
p1854
sS'A739'
p1855
S'Rundensteiner, E.A.'
p1856
sS'A933'
p1857
S'Goldsmith, T.E.'
p1858
sS'A700'
p1859
S'Henry, N.'
p1860
sS'A931'
p1861
S'Chalmers, M.'
p1862
sS'A930'
p1863
S'Ross, G.'
p1864
sS'A937'
p1865
S'Brady, R.'
p1866
sS'A936'
p1867
S'Spell, R.'
p1868
sS'A935'
p1869
S'Caudell, T.P.'
p1870
sS'A701'
p1871
S'Yi Mao'
p1872
sS'A763'
p1873
S'Allendoerfer, K.'
p1874
sS'A938'
p1875
S'Dietrich, F.'
p1876
sS'A702'
p1877
S'Dillon, J.V.'
p1878
sS'A703'
p1879
S'Sprague, D.W.'
p1880
sS'A346'
p1881
S'Rooney, C.'
p1882
sS'A445'
p1883
S'Dasgupta, A.'
p1884
sS'A738'
p1885
S'Ward, M.O.'
p1886
sS'A704'
p1887
S'Fuqu Wu'
p1888
sS'A347'
p1889
S'Passmore, P.'
p1890
sS'A705'
p1891
S'Wing Yan So'
p1892
sS'A748'
p1893
S'Cortese, P.F.'
p1894
sS'A706'
p1895
S'Jacko, J.A.'
p1896
sS'A744'
p1897
S'Li, X.'
p1898
sS'A745'
p1899
S'Wang, Y.'
p1900
sS'A746'
p1901
S'Skiena, S.'
p1902
sS'A707'
p1903
S'North, S.C.'
p1904
sS'A740'
p1905
S'Aris, A.'
p1906
sS'A741'
p1907
S'Auber, D.'
p1908
sS'A742'
p1909
S'Mehler, A.'
p1910
sS'A743'
p1911
S'Bao, Y.'
p1912
sS'A708'
p1913
S'Rexroad, B.'
p1914
sS'A444'
p1915
S'Lazer, D.'
p1916
sS'A709'
p1917
S'Sheleheda, D.'
p1918
sS'A1192'
p1919
S'Hara, Y.'
p1920
sS'A177'
p1921
S'Isenberg, P.'
p1922
sS'A68'
p1923
S'Bak, P.'
p1924
sS'A69'
p1925
S'Rafaeli, S.'
p1926
sS'A176'
p1927
S'Willett, W.'
p1928
sS'A64'
p1929
S'Tate, K.'
p1930
sS'A65'
p1931
S'Munzner, T.'
p1932
sS'A66'
p1933
S'Albo, Y.'
p1934
sS'A67'
p1935
S'Lanir, J.'
p1936
sS'A60'
p1937
S'Han, P.K.J.'
p1938
sS'A61'
p1939
S'Chang, R.'
p1940
sS'A62'
p1941
S'Brehmer, M.'
p1942
sS'A63'
p1943
S'Ng, J.'
p1944
sS'A630'
p1945
S'Roseman, D.'
p1946
sS'A631'
p1947
S'Marchand, G.'
p1948
sS'A632'
p1949
S'Mukherjee, V.'
p1950
sS'A633'
p1951
S'Smith, M.'
p1952
sS'A634'
p1953
S'Bresciani, S.'
p1954
sS'A635'
p1955
S'Eppler, M.J.'
p1956
sS'A636'
p1957
S'Muelder, C.'
p1958
sS'A637'
p1959
S'Gygi, F.'
p1960
sS'A638'
p1961
S'Crampes, M.'
p1962
sS'A639'
p1963
S'de Oliveira-Kumar, J.'
p1964
sS'A733'
p1965
S'Holten, D.'
p1966
sS'A732'
p1967
S'Meyers, B.Robbins.'
p1968
sS'A735'
p1969
S'Gerken, J.'
p1970
sS'A734'
p1971
S'Buring, T.'
p1972
sS'A737'
p1973
S'Cui, Q.'
p1974
sS'A736'
p1975
S'Reiterer, H.'
p1976
sS'A111'
p1977
S'Walker, J.'
p1978
sS'A110'
p1979
S'Dragicevic, P.'
p1980
sS'A113'
p1981
S'Jones, M.W.'
p1982
sS'A112'
p1983
S'Borgo, R.'
p1984
sS'A115'
p1985
S'Perin, C.'
p1986
sS'A114'
p1987
S'Loorak, M.H.'
p1988
sS'A117'
p1989
S'Hill, M.'
p1990
sS'A116'
p1991
S'Kamal, N.'
p1992
sS'A292'
p1993
S'Kalkofen, D.'
p1994
sS'A118'
p1995
S'Carpendale, S.'
p1996
sS'A290'
p1997
S'Tory, M.'
p1998
sS'A291'
p1999
S'Partl, C.'
p2000
sS'A296'
p2001
S'Macko, P.'
p2002
sS'A297'
p2003
S'Gajos, K.'
p2004
sS'A294'
p2005
S'Schmalstieg, D.'
p2006
sS'A295'
p2007
S'Boyd, M.'
p2008
sS'A1191'
p2009
S'Hirata, K.'
p2010
sS'A1128'
p2011
S'Gross, M.'
p2012
sS'A1193'
p2013
S'Gray, M.'
p2014
sS'A534'
p2015
S'Hoi Ying Tsang'
p2016
sS'A1195'
p2017
S'Guzdial, M.'
p2018
sS'A1194'
p2019
S'Badre, A.'
p2020
sS'A1197'
p2021
S'Johnston, L.J.'
p2022
sS'A1196'
p2023
S'Burton, C.A.'
p2024
sS'A1199'
p2025
S'Mitchell, R.'
p2026
sS'A533'
p2027
S'Kashofer, K.'
p2028
sS'A532'
p2029
S'Legrady, G.'
p2030
sS'A595'
p2031
S'Jin Chen'
p2032
sS'A594'
p2033
S'Weaver, C.'
p2034
sS'A597'
p2035
S'Rohrdantz, C.'
p2036
sS'A596'
p2037
S'Peuquet, D.'
p2038
sS'A591'
p2039
S'Penn, G.'
p2040
sS'A531'
p2041
S'Lin, S.'
p2042
sS'A593'
p2043
S'Dreezer, R.'
p2044
sS'A592'
p2045
S'Ogawa, M.'
p2046
sS'A1209'
p2047
S'Drew, N.S.'
p2048
sS'A1208'
p2049
S'Hendley, R.J.'
p2050
sS'A530'
p2051
S'Williamson, C.'
p2052
sS'A599'
p2053
S'Yanhua Chen'
p2054
sS'A598'
p2055
S'Stoffel, A.'
p2056
sS'A1129'
p2057
S'Bielser, D.'
p2058
sS'A849'
p2059
S'Kienreich, W.'
p2060
sS'A848'
p2061
S'Granitzer, M.'
p2062
sS'A179'
p2063
S'Kahng, M.'
p2064
sS'A188'
p2065
S'Hao Wei'
p2066
sS'A189'
p2067
S'Donghao Ren'
p2068
sS'A186'
p2069
S'Shixia Liu'
p2070
sS'A187'
p2071
S'Zhuofeng Wu'
p2072
sS'A184'
p2073
S'Duen Horng Chau'
p2074
sS'A185'
p2075
S'Weiwei Cui'
p2076
sS'A182'
p2077
S'Goel, A.'
p2078
sS'A183'
p2079
S'Stasko, J.'
p2080
sS'A180'
p2081
S'Zhiyuan Lin'
p2082
sS'A181'
p2083
S'Foerster, F.'
p2084
sS'A366'
p2085
S'Westenberg, M.A.'
p2086
sS'A367'
p2087
S'Tanahashi, Y.'
p2088
sS'A364'
p2089
S'Unwin, A.'
p2090
sS'A365'
p2091
S'Dinkla, K.'
p2092
sS'A362'
p2093
S'Pilhofer, A.'
p2094
sS'A363'
p2095
S'Gribov, A.'
p2096
sS'A360'
p2097
S'Baudel, T.'
p2098
sS'A361'
p2099
S'Broeksema, B.'
p2100
sS'A1140'
p2101
S'Rohrer, R.M.'
p2102
sS'A981'
p2103
S'Carmel, L.'
p2104
sS'A368'
p2105
S'Kwan-Liu Ma'
p2106
sS'A369'
p2107
S'Gomez, S.R.'
p2108
sS'A164'
p2109
S'McKenna, S.'
p2110
sS'A165'
p2111
S'Mazur, D.'
p2112
sS'A166'
p2113
S'Agutter, J.'
p2114
sS'A167'
p2115
S'Kondo, B.'
p2116
sS'A160'
p2117
S'Hamann, B.'
p2118
sS'A208'
p2119
S'Kasthuri, N.'
p2120
sS'A162'
p2121
S'Burch, M.'
p2122
sS'A163'
p2123
S'Weiskopf, D.'
p2124
sS'A205'
p2125
S'van den Elzen, S.'
p2126
sS'A204'
p2127
S'Beecham, R.'
p2128
sS'A207'
p2129
S'Beyer, J.'
p2130
sS'A206'
p2131
S'Al-Awami, A.'
p2132
sS'A201'
p2133
S'Oulasvirta, A.'
p2134
sS'A169'
p2135
S'Gratzl, S.'
p2136
sS'A203'
p2137
S'Weinkauf, T.'
p2138
sS'A202'
p2139
S'Seidel, H.-P.'
p2140
sS'A1234'
p2141
S'Sowizral, H.A.'
p2142
sS'A1141'
p2143
S'Sibert, J.L.'
p2144
sS'A1108'
p2145
S'Rose, S.'
p2146
sS'A1109'
p2147
S'Higgins, M.'
p2148
sS'A988'
p2149
S'Doleisch, H.'
p2150
sS'A1102'
p2151
S'Basalaj, W.'
p2152
sS'A1103'
p2153
S'Sinclair, D.'
p2154
sS'A1100'
p2155
S'Moore, A.'
p2156
sS'A989'
p2157
S'Ying Feng'
p2158
sS'A1106'
p2159
S'Inselberg, A.'
p2160
sS'A860'
p2161
S'Barro, H.'
p2162
sS'A1104'
p2163
S'Wood, K.'
p2164
sS'A1105'
p2165
S'Ying-Huey Fua'
p2166
sS'A447'
p2167
S'Zhao Geng'
p2168
sS'A446'
p2169
S'Kosara, R.'
p2170
sS'A731'
p2171
S'Yap, C.'
p2172
sS'A298'
p2173
S'Seltzer, M.'
p2174
sS'A1204'
p2175
S'Croall, J.'
p2176
sS'A299'
p2177
S'Im, J.-F.'
p2178
sS'A1139'
p2179
S'Berchtold, S.'
p2180
sS'A1200'
p2181
S'Day, D.'
p2182
sS'A443'
p2183
S'Xiaohua Sun'
p2184
sS'A863'
p2185
S'Domenger, J.'
p2186
sS'A566'
p2187
S'Seiffert, F.'
p2188
sS'A442'
p2189
S'Yu-Ru Lin'
p2190
sS'A1116'
p2191
S'Ulitsky, L.'
p2192
sS'A1074'
p2193
S'Gros, P.'
p2194
sS'A441'
p2195
S'Nan Cao'
p2196
sS'A730'
p2197
S'Daiches, E.'
p2198
sS'A440'
p2199
S'desJardins, M.'
p2200
sS'A1036'
p2201
S'Westenskow, D.'
p2202
sS'A119'
p2203
S'Alsallakh, B.'
p2204
sS'A524'
p2205
S'Pretorius, A.J.'
p2206
sS'A1035'
p2207
S'Drews, F.'
p2208
sS'A1032'
p2209
S'Finocchi, I.'
p2210
sS'A1033'
p2211
S'Korn, J.'
p2212
sS'A1030'
p2213
S'Six, J.M.'
p2214
sS'A293'
p2215
S'Wassermann, A.M.'
p2216
sS'A862'
p2217
S'Delest, M.'
p2218
sS'A567'
p2219
S'Boring, S.'
p2220
sS'A562'
p2221
S'Wilkinson, L.'
p2222
sS'A918'
p2223
S'Cox, K.C.'
p2224
sS'A1039'
p2225
S'Jurrus, E.'
p2226
sS'A563'
p2227
S'Viau, C.'
p2228
sS'A669'
p2229
S'Hart, J.C.'
p2230
sS'A668'
p2231
S'Garland, M.'
p2232
sS'A667'
p2233
S'Hoberock, J.'
p2234
sS'A564'
p2235
S'Chiricota, Y.'
p2236
sS'A665'
p2237
S'Ribarsky, W.'
p2238
sS'A664'
p2239
S'Wartell, Z.'
p2240
sS'A663'
p2241
S'Wenwen Dou'
p2242
sS'A662'
p2243
S'Butkiewicz, T.'
p2244
sS'A661'
p2245
S'Matkovic, K.'
p2246
sS'A565'
p2247
S'Jurisica, I.'
p2248
sS'A525'
p2249
S'Bray, M.-A.P.'
p2250
sS'A977'
p2251
S'MelanAon, G.'
p2252
sS'A493'
p2253
S'Florian, L.'
p2254
sS'A888'
p2255
S'Jourdan, F.'
p2256
sS'A449'
p2257
S'Laramee, R.S.'
p2258
sS'A976'
p2259
S'Aubert, D.'
p2260
sS'A924'
p2261
S'Surendran, D.'
p2262
sS'A448'
p2263
S'ZhenMin Peng'
p2264
sS'A975'
p2265
S'Brown, D.C.'
p2266
sS'A962'
p2267
S'Xiping, D.'
p2268
sS'A974'
p2269
S'Rosario, G.E.'
p2270
sS'A1190'
p2271
S'Mukherjea, S.'
p2272
sS'A973'
p2273
S'Wei Peng'
p2274
sS'A972'
p2275
S'Cvek, U.'
p2276
sS'A948'
p2277
S'Kim, S.'
p2278
sS'A949'
p2279
S'Craig, P.'
p2280
sS'A864'
p2281
S'Mandic, M.'
p2282
sS'A942'
p2283
S'Tsigas, P.'
p2284
sS'A943'
p2285
S'Hong Chen'
p2286
sS'A940'
p2287
S'Ljungblad, S.'
p2288
sS'A941'
p2289
S'Holmquist, L.E.'
p2290
sS'A946'
p2291
S'Hauptmann, A.G.'
p2292
sS'A947'
p2293
S'Wactlar, H.D.'
p2294
sS'A944'
p2295
S'Derthick, M.'
p2296
sS'A945'
p2297
S'Christel, M.G.'
p2298
sS'A409'
p2299
S'Wei Chen'
p2300
sS'A408'
p2301
S'Panpan Xu'
p2302
sS'A403'
p2303
S'Goncu, C.'
p2304
sS'A402'
p2305
S'Purchase, H.'
p2306
sS'A401'
p2307
S'Frazier, J.'
p2308
sS'A400'
p2309
S'Liao, I.'
p2310
sS'A407'
p2311
S'Dumais, S.'
p2312
sS'A406'
p2313
S'Ramos, G.'
p2314
sS'A405'
p2315
S'Dork, M.'
p2316
sS'A404'
p2317
S'Nocaj, A.'
p2318
sS'A799'
p2319
S'Poonam Shanbhag'
p2320
sS'A798'
p2321
S'Lind, M.'
p2322
sS'A1198'
p2323
S'Sonenberg, E.A.'
p2324
sS'A793'
p2325
S'Slack, J.'
p2326
sS'A792'
p2327
S'Bendix, F.'
p2328
sS'A791'
p2329
S'Chlan, E.B.'
p2330
sS'A790'
p2331
S'Amar, R.'
p2332
sS'A797'
p2333
S'Seipel, S.'
p2334
sS'A796'
p2335
S'Jern, M.'
p2336
sS'A795'
p2337
S'Ljung, P.'
p2338
sS'A794'
p2339
S'Hildebrand, K.'
p2340
sS'A15'
p2341
S'Elmqvist, N.'
p2342
sS'A14'
p2343
S'Yalcin, M.A.'
p2344
sS'A17'
p2345
S'Yong Wang'
p2346
sS'A16'
p2347
S'Bederson, B.B.'
p2348
sS'A11'
p2349
S'Byrne, L.'
p2350
sS'A10'
p2351
S'Scheidegger, C.E.'
p2352
sS'A13'
p2353
S'Wiles, J.'
p2354
sS'A12'
p2355
S'Angus, D.'
p2356
sS'A498'
p2357
S'Joia, P.'
p2358
sS'A499'
p2359
S'Coimbra, D.'
p2360
sS'A520'
p2361
S'Liang Gou'
p2362
sS'A884'
p2363
S'Lindgren, D.'
p2364
sS'A19'
p2365
S'Zhiguang Zhou'
p2366
sS'A18'
p2367
S'Qiaomu Shen'
p2368
sS'A881'
p2369
S'Subramanian, K.R.'
p2370
sS'A880'
p2371
S'Foster, J.'
p2372
sS'A1'
p2373
S'Raya, L.'
p2374
sS'A0'
p2375
S'Rubio-Sanchez, M.'
p2376
sS'A3'
p2377
S'Sanchez, A.'
p2378
sS'A2'
p2379
S'Diaz, F.'
p2380
sS'A5'
p2381
S'Stone, M.C.'
p2382
sS'A4'
p2383
S'Setlur, V.'
p2384
sS'A7'
p2385
S'Hornbaek, K.'
p2386
sS'A6'
p2387
S'Jansen, Y.'
p2388
sS'A9'
p2389
S'Archambault, D.'
p2390
sS'A8'
p2391
S'Simonetto, P.'
p2392
sS'A241'
p2393
S'Zhicheng Liu'
p2394
sS'A240'
p2395
S'Ye Zhao'
p2396
sS'A243'
p2397
S'Bezerianos, A.'
p2398
sS'A242'
p2399
S'Fuchs, J.'
p2400
sS'A245'
p2401
S'Chevalier, F.'
p2402
sS'A244'
p2403
S'Fischer, F.'
p2404
sS'A247'
p2405
S'Manivannan, A.'
p2406
sS'A246'
p2407
S'Pandey, A.V.'
p2408
sS'A249'
p2409
S'Satterthwaite, M.'
p2410
sS'A248'
p2411
S'Nov, O.'
p2412
sS'A1203'
p2413
S'Winstead, J.'
p2414
sS'A539'
p2415
S'Thornton, I.M.'
p2416
sS'A538'
p2417
S'Murray, T.'
p2418
sS'A128'
p2419
S'Thudt, A.'
p2420
sS'A129'
p2421
S'Baur, D.'
p2422
sS'A1202'
p2423
S'LeVasseur, J.'
p2424
sS'A120'
p2425
S'Botros, J.'
p2426
sS'A121'
p2427
S'Peterson, B.'
p2428
sS'A122'
p2429
S'Borowsky, M.'
p2430
sS'A123'
p2431
S'Lex, A.'
p2432
sS'A124'
p2433
S'Gschwandtner, T.'
p2434
sS'A125'
p2435
S'Bogl, M.'
p2436
sS'A126'
p2437
S'Federico, P.'
p2438
sS'A127'
p2439
S'Miksch, S.'
p2440
sS'A1207'
p2441
S'Rhyne, T.M.'
p2442
sS'A522'
p2443
S'Venolia, G.'
p2444
sS'A1216'
p2445
S'Dar, S.'
p2446
sS'A802'
p2447
S'Voinea, L.'
p2448
sS'A1206'
p2449
S'Ruh, W.'
p2450
sS'A832'
p2451
S'Newbern, C.'
p2452
sS'A833'
p2453
S'Kalghatgi, N.'
p2454
sS'A830'
p2455
S'Duca, K.'
p2456
sS'A831'
p2457
S'Darling, E.'
p2458
sS'A836'
p2459
S'Gainant, G.'
p2460
sS'A837'
p2461
S'Perry, E.'
p2462
sS'A834'
p2463
S'Burgman, A.'
p2464
sS'A835'
p2465
S'Recktenwald, K.'
p2466
sS'A838'
p2467
S'Howe, E.'
p2468
sS'A839'
p2469
S'Donath, J.'
p2470
s.