(dp0
S'P140618'
p1
(dp2
S'keywords'
p3
(lp4
S'information visualization'
p5
aS'user scenario'
p6
aS'information analysis'
p7
aS'document analysis'
p8
asS'name'
p9
S'Jim Thomas'
p10
ssS'P76267'
p11
(dp12
g3
(lp13
S'auxiliary graph'
p14
aS'computer graphics'
p15
aS'directed graphs'
p16
aS'four-pass algorithm'
p17
aS'iterative heuristic'
p18
aS'local transpositions'
p19
aS'network simplex algorithm'
p20
aS'novel weight function'
p21
aS'optimal coordinates'
p22
aS'optimal rank assignment'
p23
aS'optimisation'
p24
aS'splines'
p25
aS'splines (mathematics)'
p26
aS'vertex order'
p27
asg9
S'Eleftherios Koutsofios'
p28
ssS'P169793'
p29
(dp30
g3
(lp31
S'graph layout'
p32
aS'graph browser'
p33
aS'directed graphs'
p34
asg9
S'Lawrence A. Rowe'
p35
ssS'P312796'
p36
(dp37
g3
(lp38
S'e-commerce clickstream visualization'
p39
aS'graph visualization'
p40
aS'web site visualization'
p41
asg9
S'Jeffrey Brainerd'
p42
ssS'P192995'
p43
(dp44
g3
(lp45
S'information retrieval'
p46
aS'information visualization'
p47
aS'text visualization'
p48
aS'wavelet transform'
p49
asg9
S'Mary Brewster'
p50
ssS'P201116'
p51
(dp52
g3
(lp53
S'selection'
p54
aS'learning'
p55
aS'graphics'
p56
aS'database'
p57
aS'visualizations'
p58
asg9
S'Min Chen'
p59
ssS'P47668'
p60
(dp61
g3
(lp62
S'research'
p63
aS'search'
p64
aS'colour'
p65
asg9
S'Christopher G. Healey'
p66
ssS'P372726'
p67
(dp68
g3
(lp69
S'code'
p70
aS'visualization'
p71
aS'techniques'
p72
aS'multimedia'
p73
aS'history'
p74
aS'control'
p75
aS'animation'
p76
asg9
S'Mac Holden'
p77
ssS'P179328'
p78
(dp79
g3
(lp80
S'charts'
p81
aS'custom visualizations'
p82
aS'data analysis'
p83
aS'data logging'
p84
aS'data visualisation'
p85
aS'geometry'
p86
aS'graphical user interface testing'
p87
aS'key press'
p88
aS'mouse click'
p89
aS'organizing structure'
p90
aS'usability analysis'
p91
aS'usability log data visualisation'
p92
asg9
S'M. Gray'
p93
ssS'P135514'
p94
(dp95
g3
(lp96
S'kidpad'
p97
aS'pad++'
p98
aS'children'
p99
aS'cooperative design'
p100
aS'design techniques'
p101
aS'educational applications'
p102
aS'evaluation'
p103
aS'participatory design'
p104
aS'social issues'
p105
asg9
S'Jason Stewart'
p106
ssS'P292276'
p107
(dp108
g3
(lp109
S'image generation'
p110
aS'display algorithms'
p111
aS'computational geometry'
p112
aS'objective modeling'
p113
aS'methodology'
p114
aS'3d graphs'
p115
aS'3d realism'
p116
asg9
S'Volker Vogelmann'
p117
ssS'P28811'
p118
(dp119
g3
(lp120
S'hierarchies'
p121
aS'human-computer interaction'
p122
aS'image browsers'
p123
aS'information visualization'
p124
aS'jazz'
p125
aS'ordered treemaps'
p126
aS'treemaps'
p127
aS'trees'
p128
aS'zoomable user interfaces (zuis).'
p129
asg9
S'Benjamin B. Bederson'
p130
ssS'P422437'
p131
(dp132
g3
(lp133
S'diagrams'
p134
aS'object recognition'
p135
aS'cognitive externalizations'
p136
aS'cognitive symbolic operations'
p137
aS'data-flow models'
p138
aS'diagrams'
p139
aS'entity-relationship diagrams'
p140
aS'large information systems'
p141
aS'node-link diagrams'
p142
aS'perceptual pattern finding'
p143
aS'perceptual syntax'
p144
aS'semantic content'
p145
aS'software structure diagrams'
p146
aS'visual representation'
p147
asg9
S'Maureen Tingley'
p148
ssS'P317004'
p149
(dp150
g3
(lp151
S'data synthesis'
p152
aS'heart'
p153
aS'medical'
p154
aS'visualization'
p155
asg9
S'C. K. Yung'
p156
ssS'P255551'
p157
(dp158
g3
(lp159
S'text'
p160
aS'string'
p161
aS'sequence'
p162
aS'design'
p163
aS'techniques'
p164
aS'interaction'
p165
aS'protein'
p166
aS'algorithms'
p167
asg9
S'S. Joy Mountford'
p168
ssS'P280843'
p169
(dp170
g3
(lp171
S'similarity'
p172
aS'images'
p173
aS'retrieval'
p174
asg9
S'Thomas Hofmann'
p175
ssS'P241262'
p176
(dp177
g3
(lp178
S'world wide web'
p179
aS'documents'
p180
aS'hypertext'
p181
aS'information ecologies'
p182
aS'log file analysis'
p183
aS'temporal analysis'
p184
aS'visualizaiton'
p185
asg9
S'Rich Gossweiler'
p186
ssS'P181485'
p187
(dp188
g3
(lp189
S'cvi'
p190
aS'internet'
p191
aS'rf-cone'
p192
aS'world wide web'
p193
aS'adaptive information visualization method'
p194
aS'data visualisation'
p195
aS'graphical user interfaces'
p196
aS'hypermedia'
p197
aS'information retrieval'
p198
aS'interactive 3d visualization'
p199
aS'interactive viewpoint selection'
p200
aS'multiple viewpoints'
p201
aS'semantic relationship'
p202
aS'structural relationship'
p203
asg9
S'M. Maruyama'
p204
ssS'P375094'
p205
(dp206
g3
(lp207
sg9
S'Peter R. Keller'
p208
ssS'P203702'
p209
(dp210
g3
(lp211
S'database visualization'
p212
aS'direct-manipulation'
p213
aS'visual programming'
p214
asg9
S'Mybrid Spalding'
p215
ssS'P572981'
p216
(dp217
g3
(lp218
S'sage'
p219
aS'visage'
p220
aS'briefing tool'
p221
aS'data manipulation operations'
p222
aS'data-intensive domains'
p223
aS'direct user access'
p224
aS'information analysis'
p225
aS'information exploration'
p226
aS'information-centric approach'
p227
aS'intelligent system'
p228
aS'interaction styles'
p229
aS'interactive presentation slides'
p230
aS'multiple data visualizations'
p231
aS'presentation tools'
p232
aS'user interface design'
p233
aS'user interface environment'
p234
aS'user interface management systems'
p235
aS'visual display conversion'
p236
asg9
S'C. Dunmire'
p237
ssS'P572982'
p238
(dp239
g3
g218
sg9
S'C. C. Gomberg'
p240
ssS'P15550'
p241
(dp242
g3
(lp243
S'clutter'
p244
aS'information density'
p245
aS'information navigation'
p246
aS'interactive graphics'
p247
aS'visual interfaces'
p248
aS'visualization'
p249
aS'zoomable interfaces'
p250
asg9
S'Allison Woodruff'
p251
ssS'P157384'
p252
(dp253
g3
(lp254
S'detail'
p255
aS'interaction'
p256
aS'algorithm'
p257
aS'context'
p258
asg9
S'Karlis Kaugars'
p259
ssS'P147271'
p260
(dp261
g3
(lp262
S'world wide web'
p263
aS'web navigation'
p264
aS'web browser'
p265
aS'usability'
p266
aS'pad++'
p267
aS'zooming user interface (zui)'
p268
aS'hypertext'
p269
aS'multiscale interfaces'
p270
aS'information visualization'
p271
asg9
S'Jonathan I. Helfman'
p272
ssS'P49085'
p273
(dp274
g3
(lp275
S'visualization'
p276
asg9
S'Claudia Schmid'
p277
ssS'P573229'
p278
(dp279
g3
(lp280
S'query results'
p281
aS'search results'
p282
aS'visualization'
p283
asg9
S'Ken Perrine'
p284
ssS'P117142'
p285
(dp286
g3
(lp287
S'interactive techniques'
p288
aS'intelligent interfaces'
p289
aS'cartography'
p290
aS'multi-layer'
p291
aS'graphics presentation'
p292
aS'activation spreading network'
p293
asg9
S'Ishantha Lokuge'
p294
ssS'P185050'
p295
(dp296
g3
(lp297
S'menus'
p298
aS'user interface'
p299
aS'empirical studies'
p300
aS'directional selection'
p301
asg9
S'M. Weiser'
p302
ssS'P161221'
p303
(dp304
g3
(lp305
S'text'
p306
asg9
S'Kevin Teixeira'
p307
ssS'P84959'
p308
(dp309
g3
(lp310
Vheart
p311
aVhypertext
p312
aVmanagement
p313
aVdetail
p314
aVcontext
p315
aVbrowsing
p316
aVauthoring
p317
asg9
S'Fran\xc3\xa7ois Robillard'
p318
ssS'P202714'
p319
(dp320
g3
(lp321
S'similarity'
p322
aS'query'
p323
aS'indexing'
p324
aS'queries'
p325
aS'video'
p326
aS'images'
p327
aS'multimedia'
p328
aS'key'
p329
aS'color'
p330
aS'camera'
p331
aS'techniques'
p332
aS'database'
p333
aS'retrieval'
p334
asg9
S'Monika Gorkani'
p335
ssS'P38699'
p336
(dp337
g3
(lp338
S'2d information visualization'
p339
aS'sfa'
p340
aS'data visualisation'
p341
aS'document similarity'
p342
aS'glyph-based volume rendering'
p343
aS'human visual system'
p344
aS'hypertext'
p345
aS'information attributes'
p346
aS'information visualization'
p347
aS'minimally immersive volumetric interactive system'
p348
aS'multivariate time-varying information'
p349
aS'navigation'
p350
aS'stereoscopic viewing'
p351
aS'surface-based information visualization'
p352
aS'textual documents'
p353
aS'three-dimensional perception'
p354
aS'three-dimensional volumetric visualization'
p355
aS'two-handed interaction'
p356
aS'user learning'
p357
asg9
S'C. Shaw'
p358
ssS'P117266'
p359
(dp360
g3
(lp361
S'modular visualization environments'
p362
aS'dataflow paradigm'
p363
aS'knowledge base'
p364
aS'object-oriented design'
p365
aS'taxonomy of visualization techniques'
p366
aS"visineers' heuristics and expertise"
p367
aS'visualization systems'
p368
asg9
S'Issei Fujishiro'
p369
ssS'P248651'
p370
(dp371
g3
(lp372
S'aesthetics'
p373
aS'graph drawing'
p374
aS'simulated annealing'
p375
asg9
S'Ron Davidson'
p376
ssS'P66621'
p377
(dp378
g3
(lp379
S'parallel computing'
p380
aS'performance visualization'
p381
aS'performance analysis'
p382
aS'performance evaluation'
p383
aS'performance debugging'
p384
aS'scientific visualization'
p385
asg9
S'Diane T. Rover'
p386
ssS'P573363'
p387
(dp388
g3
(lp389
S'animation'
p390
aS'hierarchy'
p391
aS'techniques'
p392
aS'visualization'
p393
aS'detail'
p394
aS'relational'
p395
aS'hierarchies'
p396
aS'trees'
p397
aS'zooming'
p398
asg9
S'Quang Vinh Nguyen'
p399
ssS'P573362'
p400
(dp401
g3
(lp402
S'text'
p403
aS'protein'
p404
aS'techniques'
p405
aS'dimensions'
p406
aS'visualization'
p407
aS'framework'
p408
aS'algorithm'
p409
asg9
S'Praveen R. Thiagarajan'
p410
ssS'P268478'
p411
(dp412
g3
(lp413
S'hierarchy'
p414
aS'clustering'
p415
aS'algorithm'
p416
aS'graphs'
p417
aS'representation'
p418
asg9
S'Stephen G. Kobourov'
p419
ssS'P573006'
p420
(dp421
g3
(lp422
S'information visualization'
p423
aS'visualization of geo-related information'
p424
aS'continuous cartograms'
p425
aS'value-by-area cartograms'
p426
aS'visualization and cartography.'
p427
asg9
S'Christian Panse'
p428
ssS'P551247'
p429
(dp430
g3
(lp431
S'ibm visualization data explorer'
p432
aS'pravdacolor'
p433
aS'colormap selection'
p434
aS'colour graphics'
p435
aS'data analysis'
p436
aS'data type'
p437
aS'data visualisation'
p438
aS'expert systems'
p439
aS'human perceptual system'
p440
aS'rule-based tool'
p441
aS'spatial frequency'
p442
asg9
S'L. D. Bergman'
p443
ssS'P573004'
p444
(dp445
g3
(lp446
S'design'
p447
aS'visualization'
p448
aS'framework'
p449
aS'analysis'
p450
aS'visualizations'
p451
asg9
S'Chris Hendrickson Octavia Juarez Espinosa'
p452
ssS'P204767'
p453
(dp454
g3
(lp455
S'aerospace computing'
p456
aS'expert systems'
p457
aS'human factors'
p458
aS'military systems'
p459
aS'software engineering'
p460
aS'pa'
p461
aS"pilot's associate"
p462
aS'air-to-air combat'
p463
aS'computer-aided fighter pilots'
p464
aS'expert system'
p465
aS'human-factors'
p466
aS'mission goal'
p467
aS'operational characteristics'
p468
aS'plan-goal graph'
p469
aS'real-time responses'
p470
aS'software modules'
p471
asg9
S'N. D. Geddes'
p472
ssS'P162343'
p473
(dp474
g3
(lp475
S'design'
p476
aS'measurement'
p477
aS'performance'
p478
aS'reliability'
p479
asg9
S'Klaus Mueller'
p480
ssS'P160218'
p481
(dp482
g3
(lp483
S'data mining'
p484
aS'visualization'
p485
aS'classification'
p486
asg9
S'Kenneth Marx'
p487
ssS'P573368'
p488
(dp489
g3
(lp490
S'3d information visualization'
p491
aS'cognitive overhead'
p492
aS'data density'
p493
aS'data points'
p494
aS'data visualisation'
p495
aS'design'
p496
aS'dimensions'
p497
aS'identifiable points'
p498
aS'information visualization metrics'
p499
aS'occlusion'
p500
aS'reference context'
p501
asg9
S'R. Brath'
p502
ssS'P161838'
p503
(dp504
g3
(lp505
S'similarity'
p506
aS'techniques'
p507
aS'search'
p508
asg9
S'King-Ip Lin'
p509
ssS'P46852'
p510
(dp511
g3
(lp512
S'algorithms'
p513
asg9
S'Christian Uhrig'
p514
ssS'P106192'
p515
(dp516
g3
(lp517
S'colour'
p518
aS'computerised picture processing'
p519
aS'medical computing'
p520
aS'locs'
p521
aS'heated-object color scale'
p522
aS'linearized gray scale'
p523
aS'linearized optimal color scale'
p524
aS'medical image data'
p525
aS'perception'
p526
asg9
S'Haim Levkowitz'
p527
ssS'P132781'
p528
(dp529
g3
g243
sg9
S'James Landay'
p530
ssS'P215317'
p531
(dp532
g3
(lp533
S'3d information visualization'
p534
aS'3d navigation'
p535
aS'3d visual metaphors'
p536
aS'metaphor-aware navigation'
p537
aS'virtual worlds'
p538
asg9
S'P. Gros'
p539
ssS'P596405'
p540
(dp541
g3
g31
sg9
S'Carl Meyer'
p542
ssS'P328241'
p543
(dp544
g3
(lp545
S'java'
p546
aS'data structures'
p547
aS'algorithms'
p548
asg9
S'Robert Cohen'
p549
ssS'P643533'
p550
(dp551
g3
(lp552
S'computer graphics'
p553
aS'graph theory'
p554
aS'lattice'
p555
aS'scatter field visualization'
p556
asg9
S'J. Timlin'
p557
ssS'P172868'
p558
(dp559
g3
g431
sg9
S'Lloyd A. Treinish'
p560
ssS'P327893'
p561
(dp562
g3
g545
sg9
S'Beno\xc3\xaet Hudson'
p563
ssS'P327302'
p564
(dp565
g3
(lp566
S'searching'
p567
aS'multimedia'
p568
aS'research'
p569
aS'retrieval'
p570
asg9
S'Eric Labow'
p571
ssS'P187565'
p572
(dp573
g3
(lp574
S'2d'
p575
aS'3d'
p576
aS'evaluation'
p577
aS'information visualization'
p578
aS'interface design'
p579
aS'text'
p580
asg9
S'Marc M. Sebrechts'
p581
ssS'P317072'
p582
(dp583
g3
g280
sg9
S'Elizabeth Jurrus'
p584
ssS'P53673'
p585
(dp586
g3
g151
sg9
S'D. L. Gresh'
p587
ssS'P32007'
p588
(dp589
g3
(lp590
S'design'
p591
aS'management'
p592
aS'measurement'
p593
aS'performance'
p594
asg9
S'Bradley W. Halversen'
p595
ssS'P507545'
p596
(dp597
g3
(lp598
S'query'
p599
aS'tools'
p600
aS'browsing'
p601
aS'search'
p602
aS'database'
p603
aS'order'
p604
aS'databases'
p605
aS'retrieval'
p606
asg9
S'Mei Chuah'
p607
ssS'P380981'
p608
(dp609
g3
(lp610
S'dimensionality reduction'
p611
aS'visual hierarchy'
p612
aS'parallel coordinates'
p613
aS'scatterplot matrices'
p614
asg9
S'Jing Yang'
p615
ssS'P282347'
p616
(dp617
g3
(lp618
S'graphical user interfaces'
p619
aS'informational physics'
p620
aS'interface mechanisms'
p621
aS'professional work'
p622
aS'reflective practitioner'
p623
asg9
S'Tim McCandless'
p624
ssS'P343060'
p625
(dp626
g3
(lp627
S'fixed queries tree'
p628
aS'metric spaces'
p629
aS'range search'
p630
aS'similarity search'
p631
asg9
S'Edgar Ch\xc3\xa1vez'
p632
ssS'P193125'
p633
(dp634
g3
(lp635
S'animation'
p636
aS'circular/radial displays'
p637
aS'debugging'
p638
aS'fault localization'
p639
aS'focus+context'
p640
aS'hierarchy visualizations'
p641
aS'overview and detail'
p642
asg9
S'Mary Jean Harrold'
p643
ssS'P261164'
p644
(dp645
g3
(lp646
S'cone tree'
p647
aS'flesh'
p648
aS'rapid prototyping'
p649
asg9
S'Scott S. Snibbe'
p650
ssS'P572930'
p651
(dp652
g3
g338
sg9
S'A. Zwa'
p653
ssS'P49781'
p654
(dp655
g3
g133
sg9
S'Colin Ware'
p656
ssS'P573090'
p657
(dp658
g3
(lp659
S'clustering'
p660
aS'cone trees'
p661
aS'finite automaton'
p662
aS'finite state machines'
p663
aS'graph visualization'
p664
aS'state transition diagrams'
p665
aS'symmetry.'
p666
asg9
S'Frank Van Ham'
p667
ssS'P573318'
p668
(dp669
g3
(lp670
S'focus+context'
p671
aS'clustering'
p672
aS'hierarchy'
p673
aS'information visualization'
p674
aS'multi-dimensional information space'
p675
asg9
S'Norma Lopez'
p676
ssS'P643612'
p677
(dp678
g3
(lp679
S'scientific visualization'
p680
aS'visualization techniques'
p681
asg9
S'Stephen Wehrend'
p682
ssS'P227903'
p683
(dp684
g3
(lp685
S'information visualization'
p686
aS'spreadsheet'
p687
aS'animation'
p688
aS'dataflow graph'
p689
aS'fluid user interfaces'
p690
asg9
S'Polle T. Zellweger'
p691
ssS'P572938'
p692
(dp693
g3
(lp694
S'techniques'
p695
aS'clustering'
p696
aS'interpolation'
p697
aS'visualisation'
p698
aS'algorithm'
p699
aS'interactive'
p700
asg9
S'Alistair Morrison'
p701
ssS'P212246'
p702
(dp703
g3
g646
sg9
S'Oren J. Tversky'
p704
ssS'P141155'
p705
(dp706
g3
(lp707
S'grouping'
p708
aS'image segmentation'
p709
aS'graph partitioning'
p710
asg9
S'Jitendra Malik'
p711
ssS'P228635'
p712
(dp713
g3
g321
sg9
S'Qian Huang'
p714
ssS'P198980'
p715
(dp716
g3
g243
sg9
S'Michael Stonebraker'
p717
ssS'P262823'
p718
(dp719
g3
(lp720
sg9
S'Shari Lawrence Pfleeger'
p721
ssS'P95381'
p722
(dp723
g3
(lp724
S'browsing'
p725
aS'graphical user interface'
p726
aS'information retrieval'
p727
aS'information visualization'
p728
asg9
S'George S. Davidson'
p729
ssS'P422114'
p730
(dp731
g3
(lp732
S'size'
p733
aS'network'
p734
aS'libraries'
p735
aS'graphs'
p736
asg9
S'Brendan Madden'
p737
ssS'P27937'
p738
(dp739
g3
(lp740
S'client-server systems'
p741
aS'data visualisation'
p742
aS'decision support systems'
p743
aS'deductive databases'
p744
aS'knowledge acquisition'
p745
aS'relational databases'
p746
aS'mineset'
p747
aS'client-server architecture'
p748
aS'computationally intensive tasks'
p749
aS'data mining'
p750
aS'database visualization'
p751
aS'decision making'
p752
aS'knowledge discovery'
p753
aS'relational data'
p754
aS'visualization'
p755
asg9
S'Barry G. Becker'
p756
ssS'P145051'
p757
(dp758
g3
(lp759
S'direct manipulation interface'
p760
aS'exploratory data analysis'
p761
asg9
S'John Alan McDonald'
p762
ssS'P186929'
p763
(dp764
g3
(lp765
S'fisheye views'
p766
aS'information visualization'
p767
asg9
S'Manojit Sarkar'
p768
ssS'P113085'
p769
(dp770
g3
(lp771
S'botanical tree'
p772
aS'directory tree'
p773
aS'huge hierarchy'
p774
aS'logical tree'
p775
aS'phyllotaxis'
p776
aS'strands'
p777
aS'tree visualization'
p778
asg9
S'Huub van de Wetering'
p779
ssS'P113087'
p780
(dp781
g3
(lp782
S'interactive graphics'
p783
aS'visualization'
p784
asg9
S'Huw Dawkes'
p785
ssS'P315441'
p786
(dp787
g3
(lp788
S'multimedia database'
p789
aS'visual querying'
p790
aS'visualization system'
p791
asg9
S'Rika Furuhata'
p792
ssS'P290125'
p793
(dp794
g3
(lp795
S'research'
p796
asg9
S'Vannevar Bush'
p797
ssS'P451420'
p798
(dp799
g3
(lp800
S'three-dimensional information visualization'
p801
aS'physics-based graph layout'
p802
aS'object-oriented visualization toolkit'
p803
aS'multidimensional information modeling'
p804
aS'time varying data'
p805
asg9
S'Daniel Bielser'
p806
ssS'P149126'
p807
(dp808
g3
(lp809
S'data visualisation'
p810
aS'spreadsheet programs'
p811
aS'information visualization'
p812
aS'information visualization spreadsheets'
p813
aS'spreadsheet paradigm'
p814
aS'user interactions'
p815
asg9
S'Joseph Konstan'
p816
ssS'P192970'
p817
(dp818
g3
(lp819
S'local-area wireless networks'
p820
aS'network analysis'
p821
asg9
S'Mary Baker'
p822
ssS'P550593'
p823
(dp824
g3
(lp825
S'nested graphs'
p826
aS'pan and zoom'
p827
aS'fisheye views'
p828
aS'hypertext'
p829
aS'mental map'
p830
aS'software visualization'
p831
aS'program understanding'
p832
asg9
S'H. A. Mueller'
p833
ssS'P116662'
p834
(dp835
g3
(lp836
S'design'
p837
aS'techniques'
p838
aS'network'
p839
aS'structure'
p840
aS'framework'
p841
aS'graphs'
p842
asg9
S'Ioannis G. Tollis'
p843
ssS'P12617'
p844
(dp845
g3
(lp846
Vsimilarity
p847
aVvisualization
p848
aVpresentation
p849
aVtools
p850
aVanalysis
p851
asg9
S'Alan M. MacEachren'
p852
ssS'P75554'
p853
(dp854
g3
(lp855
S'management'
p856
aS'hypermedia'
p857
aS'methodology'
p858
aS'design'
p859
asg9
S'Edward A. Stohr'
p860
ssS'P59283'
p861
(dp862
g3
(lp863
S'3d user interfaces'
p864
aS'desktop vr'
p865
aS'document mangement'
p866
aS'information visualization'
p867
aS'spatial cognition'
p868
aS'spatial memory'
p869
asg9
S'Daniel C. Robbins'
p870
ssS'P137466'
p871
(dp872
g3
(lp873
S'directed graphs'
p874
aS'graphical browsers'
p875
aS'hierarchies'
p876
aS'hypertext structures'
p877
aS'information graphs'
p878
aS'representation'
p879
aS'reuse'
p880
asg9
S'Jeff Zacks'
p881
ssS'P49349'
p882
(dp883
g3
(lp884
S'effectiveness'
p885
aS'images'
p886
aS'query'
p887
aS'evaluation'
p888
aS'indexing'
p889
aS'database'
p890
aS'retrieval'
p891
asg9
S'Clement T. Yu'
p892
ssS'P152906'
p893
(dp894
g3
(lp895
S'ip addresses'
p896
aS'internet'
p897
aS'internet mbone'
p898
aS'mbone routers'
p899
aS'mbone topology visualisation'
p900
aS'nasa shuttle launches'
p901
aS'vrml'
p902
aS'world-wide web'
p903
aS'case study'
p904
aS'conferences'
p905
aS'congressional sessions'
p906
aS'data visualization'
p907
aS'geographic representation'
p908
aS'hostnames'
p909
aS'interactive 3d maps'
p910
aS'meetings'
p911
aS'minimal packet duplication'
p912
aS'multicast backbone'
p913
aS'multiple receivers'
p914
aS'real-time audio'
p915
aS'real-time video'
p916
aS'suboptimal topology'
p917
aS'tunnel structure'
p918
asg9
S'K. Claffy'
p919
ssS'P199962'
p920
(dp921
g3
(lp922
S'automated design of graphics'
p923
aS'visual discourse'
p924
aS'visual task characterization'
p925
asg9
S'Michelle X. Zhou'
p926
ssS'P134249'
p927
(dp928
g3
(lp929
S'tools'
p930
aS'techniques'
p931
aS'workspace'
p932
asg9
S'Jan O. Pedersen'
p933
ssS'P45945'
p934
(dp935
g3
(lp936
S'text analysis'
p937
aS'hypertext'
p938
aS'collection browsing'
p939
aS'information retrieval'
p940
asg9
S'Chris Buckley'
p941
ssS'P339941'
p942
(dp943
g3
(lp944
S'path analysis'
p945
aS'web site traffic'
p946
asg9
S'Jonathan D. Beche'
p947
ssS'P227759'
p948
(dp949
g3
(lp950
S'selection'
p951
aS'similarity'
p952
aS'trees'
p953
aS'searching'
p954
aS'query'
p955
aS'techniques'
p956
aS'dimensions'
p957
aS'search'
p958
aS'context'
p959
aS'database'
p960
asg9
S'Piotr Indyk'
p961
ssS'P150698'
p962
(dp963
g3
(lp964
S'blobby surface'
p965
aS'bump map'
p966
aS'generalized cylinder'
p967
aS'interpolation'
p968
aS'modeling'
p969
aS'ramiform'
p970
aS'space curve'
p971
aS'spline'
p972
aS'texture map'
p973
asg9
S'Jules Bloomenthal'
p974
ssS'P218971'
p975
(dp976
g3
(lp977
S'wavelet transform'
p978
aS'data compression'
p979
aS'data visualization'
p980
aS'multiresolution visualization'
p981
asg9
S'Pak Chung Wong'
p982
ssS'P4486'
p983
(dp984
g3
(lp985
S'visualization'
p986
aS'images'
p987
aS'tools'
p988
aS'browsing'
p989
aS'color'
p990
aS'size'
p991
aS'datasets'
p992
aS'interactive'
p993
aS'spreadsheet'
p994
aS'algorithms'
p995
asg9
S'A. F. Hasler'
p996
ssS'P270271'
p997
(dp998
g3
(lp999
S'interaction techniques'
p1000
aS'models and principles'
p1001
aS'graphics editors'
p1002
aS'document and text processing'
p1003
asg9
S'Steven F. Roth'
p1004
ssS'P152643'
p1005
(dp1006
g3
(lp1007
S'query'
p1008
aS'visualization'
p1009
aS'detail'
p1010
aS'presentation'
p1011
asg9
S'K. Beyer'
p1012
ssS'P280448'
p1013
(dp1014
g3
(lp1015
sg9
S'Thomas H. Cormen'
p1016
ssS'P225624'
p1017
(dp1018
g3
g321
sg9
S'Peter Yanker'
p1019
ssS'P22325'
p1020
(dp1021
g3
(lp1022
S'similarity'
p1023
aS'indexing'
p1024
asg9
S'Arun N. Swami'
p1025
ssS'P355753'
p1026
(dp1027
g3
(lp1028
sg9
S'Larry Dane Brimner'
p1029
ssS'P145991'
p1030
(dp1031
g3
(lp1032
S'cognitive maps'
p1033
aS'navigation'
p1034
aS'orientation'
p1035
aS'virtual worlds'
p1036
asg9
S'John L. Sibert'
p1037
ssS'P61019'
p1038
(dp1039
g3
(lp1040
S'bandwidth-limited resource'
p1041
aS'interactivity'
p1042
aS'real-time display'
p1043
aS'texture caching'
p1044
aS'texture mapping'
p1045
asg9
S'David Cline'
p1046
ssS'P60334'
p1047
(dp1048
g3
g618
sg9
S'Dave Wroblewski'
p1049
ssS'P234373'
p1050
(dp1051
g3
(lp1052
S'fish search visualization tool'
p1053
aS'internet'
p1054
aS'color'
p1055
aS'data attributes'
p1056
aS'data visualisation'
p1057
aS'document hierarch'
p1058
aS'hierarchically structured information viewing'
p1059
aS'indentation'
p1060
aS'information overload management'
p1061
aS'information retrieval'
p1062
aS'large document spaces'
p1063
aS'online front-ends'
p1064
aS'order'
p1065
aS'returned documents'
p1066
aS'search requests'
p1067
aS'search tools'
p1068
aS'size'
p1069
aS'user navigation'
p1070
asg9
S'R. Mitchell'
p1071
ssS'P159689'
p1072
(dp1073
g3
(lp1074
S'3-d user interfaces'
p1075
aS'natto view'
p1076
aS'information visualization'
p1077
aS'inter-cell dependencies'
p1078
aS'lifting-up operation'
p1079
aS'spreadsheets'
p1080
asg9
S'Ken-ichi Okada'
p1081
ssS'P33462'
p1082
(dp1083
g3
g724
sg9
S'Bruce Hendrickson'
p1084
ssS'P200408'
p1085
(dp1086
g3
(lp1087
S'techniques'
p1088
aS'web'
p1089
aS'3d'
p1090
aS'key'
p1091
aS'browsing'
p1092
aS'visualizations'
p1093
asg9
S'Mike Craven'
p1094
ssS'P239102'
p1095
(dp1096
g3
(lp1097
S'simulations'
p1098
aS'alternative reality'
p1099
aS'user interface'
p1100
asg9
S'Randall B. Smith'
p1101
ssS'P21454'
p1102
(dp1103
g3
g950
sg9
S'Aristides Gionis'
p1104
ssS'P15444'
p1105
(dp1106
g3
g379
sg9
S'Allen D. Malony'
p1107
ssS'P643577'
p1108
(dp1109
g3
g552
sg9
S'E. Gawlinski'
p1110
ssS'P306422'
p1111
(dp1112
g3
(lp1113
S'algorithm visualization'
p1114
aS'algorithm animation'
p1115
aS'distributed algorithms'
p1116
asg9
S'Yoram Moses'
p1117
ssS'P64183'
p1118
(dp1119
g3
(lp1120
S'self'
p1121
aS'animation'
p1122
aS'cartoons'
p1123
aS'motion blur'
p1124
aS'user interfaces'
p1125
asg9
S'David Ungar'
p1126
ssS'P17682'
p1127
(dp1128
g3
(lp1129
S'picture/image generation'
p1130
aS'viewing algorithms'
p1131
aS'visual programming'
p1132
aS'testing and debugging'
p1133
aS'debugging aids'
p1134
asg9
S'Andrew W. Appel'
p1135
ssS'P109606'
p1136
(dp1137
g3
(lp1138
S'2d zoom'
p1139
aS'browsing'
p1140
aS'interactive technique'
p1141
aS'macroscope'
p1142
aS'multi-scale multi-layer translucent virtual space'
p1143
aS"relative scaleieee conference on information visualisation (iv '97)"
p1144
aS'viewfinders'
p1145
aS'virtual display spaces'
p1146
aS'virtual reality'
p1147
aS'widely disparate spatial scales'
p1148
asg9
S'Henry Lieberman'
p1149
ssS'P159920'
p1150
(dp1151
g3
(lp1152
S'reliability'
p1153
aS'atomic broadcast'
p1154
aS'fault-tolerant process groups'
p1155
aS'reliable broadcast'
p1156
asg9
S'Kenneth P. Birman'
p1157
ssS'P187458'
p1158
(dp1159
g3
(lp1160
S'hierarchical spatial enumeration'
p1161
aS'medical imaging'
p1162
aS'molecular graphics'
p1163
aS'octree'
p1164
aS'ray tracing'
p1165
aS'scientific visualization'
p1166
aS'volume rendering'
p1167
aS'volume visualization'
p1168
aS'voxel'
p1169
asg9
S'Marc Levoy'
p1170
ssS'P58060'
p1171
(dp1172
g3
(lp1173
S'sequence'
p1174
aS'text'
p1175
aS'protein'
p1176
aS'techniques'
p1177
aS'string'
p1178
aS'algorithms'
p1179
asg9
S'Dan Gusfield'
p1180
ssS'P93733'
p1181
(dp1182
g3
(lp1183
S'documents'
p1184
aS'dimensions'
p1185
aS'presentation'
p1186
aS'browsing'
p1187
asg9
S'Gareth Smith'
p1188
ssS'P643609'
p1189
(dp1190
g3
(lp1191
S'flow analysis'
p1192
aS'fluid mechanics'
p1193
aS'computational fluid dynamics'
p1194
asg9
S'R. Kevin McCabe'
p1195
ssS'P416800'
p1196
(dp1197
g3
(lp1198
S'java'
p1199
aS'component-oriented programming (cop)'
p1200
aS'exploratory data analysis (eda)'
p1201
aS'knowledge construction'
p1202
aS'visual programming'
p1203
asg9
S'Masahiro Takatsuka'
p1204
ssS'P31915'
p1205
(dp1206
g3
(lp1207
S'structured programming'
p1208
aS'user interfaces'
p1209
aS'design'
p1210
aS'human factors'
p1211
aS'languages'
p1212
asg9
S'Brad A. Myers'
p1213
ssS'P63394'
p1214
(dp1215
g3
g96
sg9
S'David Proft'
p1216
ssS'P438303'
p1217
(dp1218
g3
g422
sg9
S'Daniel Keim'
p1219
ssS'P160425'
p1220
(dp1221
g3
(lp1222
S'information systems'
p1223
aS'information storage and retrieval'
p1224
aS'systems and software'
p1225
aS'web view'
p1226
aS'information search and retrieval'
p1227
aS'search process'
p1228
aS'design'
p1229
aS'human factors'
p1230
asg9
S'Kenneth Utting'
p1231
ssS'P278835'
p1232
(dp1233
g3
(lp1234
S'3d interface'
p1235
aS'graphical interface'
p1236
aS'spatial metaphor'
p1237
aS'icon'
p1238
aS'ecological layout'
p1239
aS'regular layout'
p1240
asg9
S'Ted Selker'
p1241
ssS'P64373'
p1242
(dp1243
g3
(lp1244
S'information visualization'
p1245
aS'interactive graphs'
p1246
asg9
S'David Williams'
p1247
ssS'P93284'
p1248
(dp1249
g3
g517
sg9
S'Gabor T. Herman'
p1250
ssS'P169891'
p1251
(dp1252
g3
(lp1253
S'alignment'
p1254
aS'sequence'
p1255
aS'size'
p1256
aS'numbers'
p1257
aS'algorithm'
p1258
asg9
S'Laxmi Parida'
p1259
ssS'P137128'
p1260
(dp1261
g3
(lp1262
S'software documentation'
p1263
aS'conceptual representation methods'
p1264
asg9
S'Jeannine Pinto'
p1265
ssS'P61973'
p1266
(dp1267
g3
(lp1268
S'distributed computing'
p1269
aS'event history'
p1270
aS'nondeterminism'
p1271
aS'parallel processing'
p1272
aS'probe-effect'
p1273
aS'program replay'
p1274
aS'program visualization'
p1275
aS'static analysis'
p1276
asg9
S'David P. Helmbold'
p1277
ssS'P147232'
p1278
(dp1279
g3
(lp1280
S'image retrieval'
p1281
aS'user-centered design'
p1282
asg9
S'Jonathan Furner'
p1283
ssS'P49282'
p1284
(dp1285
g3
g679
sg9
S'Clayton Lewis'
p1286
ssS'P456941'
p1287
(dp1288
g3
g846
sg9
S'Francis P. Boscoe'
p1289
ssS'P115641'
p1290
(dp1291
g3
(lp1292
S'clustering'
p1293
aS'indexing methods'
p1294
aS'information filtering'
p1295
aS'linguistic processing'
p1296
asg9
S'Ian M. Soboroff'
p1297
ssS'P308426'
p1298
(dp1299
g3
g1074
sg9
S'Yutaka Matsushita'
p1300
ssS'P328311'
p1301
(dp1302
g3
g545
sg9
S'Ulrick Barandes'
p1303
ssS'P33622'
p1304
(dp1305
g3
(lp1306
S'3d user interfaces'
p1307
aS'document management'
p1308
aS'information visualization'
p1309
aS'spatial memory'
p1310
asg9
S'Bruce McKenzie'
p1311
ssS'P167944'
p1312
(dp1313
g3
(lp1314
S'algorithm'
p1315
asg9
S'L. Zhang'
p1316
ssS'P30991'
p1317
(dp1318
g3
(lp1319
S'x11'
p1320
aS'augmented reality'
p1321
aS'head-mounted displays'
p1322
aS'hypertext/hypermedia'
p1323
aS'mobile computing'
p1324
aS'portable computers'
p1325
aS'virtual reality'
p1326
aS'virtual worlds'
p1327
aS'window systems'
p1328
asg9
S'Blair MacIntyre'
p1329
ssS'P222451'
p1330
(dp1331
g3
g4
sg9
S'Paul Whitney'
p1332
ssS'P46090'
p1333
(dp1334
g3
(lp1335
S'authors kit'
p1336
aS'conference publications'
p1337
aS'guides'
p1338
aS'instructions'
p1339
asg9
S'Chris Hand'
p1340
ssS'P151571'
p1341
(dp1342
g3
g254
sg9
S'Juris Reinfelds'
p1343
ssS'P38039'
p1344
(dp1345
g3
(lp1346
S'design'
p1347
aS'experimentation'
p1348
aS'languages'
p1349
asg9
S'C. M. Pancake'
p1350
ssS'P21254'
p1351
(dp1352
g3
(lp1353
Vinteractive
p1354
aVdesign
p1355
aVquery
p1356
aVtools
p1357
aVevaluation
p1358
aVvisualization
p1359
aVdocuments
p1360
aVeffectiveness
p1361
aVretrieval
p1362
asg9
S'Aravindan Veerasamy'
p1363
ssS'P259151'
p1364
(dp1365
g3
(lp1366
sg9
S'Samuel Bayer'
p1367
ssS'P100785'
p1368
(dp1369
g3
(lp1370
S'pattern discovery'
p1371
aS'statistical framework'
p1372
asg9
S'Gustova Stolovitzky'
p1373
ssS'P218932'
p1374
(dp1375
g3
(lp1376
S'techniques'
p1377
aS'research'
p1378
aS'classification'
p1379
aS'overview'
p1380
aS'tools'
p1381
aS'database'
p1382
asg9
S'Padhraic Smyth'
p1383
ssS'P75982'
p1384
(dp1385
g3
(lp1386
S'debugging'
p1387
aS'visualization'
p1388
aS'animation'
p1389
aS'context'
p1390
asg9
S'Eileen Kraemer'
p1391
ssS'P573264'
p1392
(dp1393
g3
(lp1394
S'depict'
p1395
aS'context vectors'
p1396
aS'data visualisation'
p1397
aS'documents evaluated as pictures'
p1398
aS'information representations'
p1399
aS'self organizing maps'
p1400
aS'textual corpora'
p1401
aS'textual entities'
p1402
aS'visualization'
p1403
aS'visualizing information'
p1404
asg9
S'M. R. Ilgen'
p1405
ssS'P112532'
p1406
(dp1407
g3
(lp1408
S'design'
p1409
aS'visualization'
p1410
aS'interactive'
p1411
asg9
S'Hua Su'
p1412
ssS'P176636'
p1413
(dp1414
g3
(lp1415
S'perspective wall'
p1416
aS'bifocal displays'
p1417
aS'distortion-oriented presentation'
p1418
aS'fisheye views'
p1419
aS'focus + context techniques'
p1420
aS'graphical interfaces'
p1421
aS'information visualization'
p1422
aS'presentation techniques'
p1423
asg9
S'M. D. Apperley'
p1424
ssS'P198916'
p1425
(dp1426
g3
(lp1427
S'dynamic queries'
p1428
aS'focus+context technique'
p1429
aS'interactive data exploration'
p1430
aS'spreadsheets'
p1431
aS'tables'
p1432
asg9
S'Michael Spenke'
p1433
ssS'P187423'
p1434
(dp1435
g3
g310
sg9
S'Marc Kaltenbach'
p1436
ssS'P573469'
p1437
(dp1438
g3
(lp1439
S'3d graph layout'
p1440
aS'3d graphic operations'
p1441
aS'dataspace'
p1442
aS'computer displays'
p1443
aS'continuous navigation facilities'
p1444
aS'data analysis'
p1445
aS'data visualisation'
p1446
aS'display space'
p1447
aS'image comparison'
p1448
aS'image merging'
p1449
aS'information panels'
p1450
aS'interactive 3d visualization'
p1451
aS'large database analysis'
p1452
aS'large databases'
p1453
aS'layout step'
p1454
aS'performance issues'
p1455
aS'query processing'
p1456
aS'query step'
p1457
aS'rendering step'
p1458
aS'selective rearrangements'
p1459
aS'transparency'
p1460
aS'very large databases'
p1461
asg9
S'T. Leibfried'
p1462
ssS'P152936'
p1463
(dp1464
g3
(lp1465
S'business data visualization applications'
p1466
aS'database summarizing'
p1467
aS'interactive systems'
p1468
aS'interactive visualization'
p1469
aS'large databases'
p1470
aS'multiway tables'
p1471
aS'telephone call billing data'
p1472
aS'visualization tool'
p1473
asg9
S'K. C. Cox'
p1474
ssS'P58197'
p1475
(dp1476
g3
g1253
sg9
S'Dan Platt'
p1477
ssS'P248369'
p1478
(dp1479
g3
(lp1480
S'wap (wireless application protocol)'
p1481
aS'flip zooming'
p1482
aS'focus+context visualization'
p1483
aS'hand-held devices'
p1484
aS'proxy systems'
p1485
aS'text reduction'
p1486
aS'web browser'
p1487
asg9
S'Rolf Danielsson'
p1488
ssS'P573287'
p1489
(dp1490
g3
(lp1491
S'data mining.'
p1492
aS'graph drawing'
p1493
aS'information visualization'
p1494
aS'visualization of time-series data'
p1495
asg9
S'Marc Weber'
p1496
ssS'P425010'
p1497
(dp1498
g3
(lp1499
S'faust'
p1500
aS'sigma'
p1501
aS'application code'
p1502
aS'common data sets'
p1503
aS'context editor'
p1504
aS'dynamic call-graph tool'
p1505
aS'functional integration'
p1506
aS'multiprocessor performance analysis'
p1507
aS'parallel programming'
p1508
aS'performance-evaluation tools'
p1509
aS'program database'
p1510
aS'programming environments'
p1511
aS'project support environments'
p1512
aS'project-management tool'
p1513
asg9
S'Allen D. Maloney'
p1514
ssS'P260900'
p1515
(dp1516
g3
(lp1517
S'hypermedia'
p1518
aS'overview diagrams'
p1519
aS'information visualization'
p1520
aS'hierarchization'
p1521
asg9
S'Scott Hudson'
p1522
ssS'P55986'
p1523
(dp1524
g3
g338
sg9
S'D. A. Roberts'
p1525
ssS'P113040'
p1526
(dp1527
g3
g782
sg9
S'Hus Su'
p1528
ssS'P48241'
p1529
(dp1530
g3
g884
sg9
S'Chuck Thier'
p1531
ssS'P10438'
p1532
(dp1533
g3
(lp1534
S'3-d graphics'
p1535
aS'i/o devices'
p1536
aS'input devices'
p1537
aS'interactive graphics'
p1538
aS'mouse'
p1539
aS'real-time graphics'
p1540
aS'rotation control'
p1541
aS'user performance'
p1542
aS'virtual controllers'
p1543
aS'virtual sphere'
p1544
asg9
S'Abigail Sellen'
p1545
ssS'P46262'
p1546
(dp1547
g3
(lp1548
S'viqing'
p1549
aS'query processing'
p1550
aS'visual databases'
p1551
aS'visual programming'
p1552
asg9
S'Chris Olston'
p1553
ssS'P116372'
p1554
(dp1555
g3
(lp1556
S'camera model'
p1557
aS'computer graphics'
p1558
aS'lens and aperture'
p1559
aS'raster displays'
p1560
aS'visible surface algorithms'
p1561
asg9
S'Indranil Chakravarty'
p1562
ssS'P300695'
p1563
(dp1564
g3
(lp1565
S'evaluation'
p1566
aS'image retrieval'
p1567
aS'information visualization'
p1568
asg9
S'Wojciech Basalaj'
p1569
ssS'P305301'
p1570
(dp1571
g3
(lp1572
S'graphs'
p1573
aS'interactive'
p1574
asg9
S'Yehuda Koren'
p1575
ssS'P10526'
p1576
(dp1577
g3
(lp1578
S'graph drawing'
p1579
aS'orthogonal graph drawing'
p1580
aS'interactive orthogonal graph drawing'
p1581
aS'information visualization'
p1582
aS'graphical user interface.'
p1583
asg9
S'Achilleas Papakostas'
p1584
ssS'P133254'
p1585
(dp1586
g3
(lp1587
S'world wide web'
p1588
aS'data mining'
p1589
aS'dome tree'
p1590
aS'information foraging'
p1591
aS'information scent'
p1592
aS'information visualization'
p1593
aS'longest repeated subsequences'
p1594
aS'usability'
p1595
aS'usage-based layout'
p1596
asg9
S'James Pitkow'
p1597
ssS'P643582'
p1598
(dp1599
g3
g1191
sg9
S'Gordon V. Bancroft'
p1600
ssS'P133851'
p1601
(dp1602
g3
(lp1603
S'text'
p1604
aS'documents'
p1605
aS'visualization'
p1606
aS'history'
p1607
asg9
S'James A. Wise'
p1608
ssS'P18101'
p1609
(dp1610
g3
(lp1611
S'aggregation'
p1612
aS'analysis'
p1613
aS'data cube'
p1614
aS'data mining'
p1615
aS'database'
p1616
aS'query'
p1617
aS'summarization'
p1618
asg9
S'Andrew Layman'
p1619
ssS'P139408'
p1620
(dp1621
g3
g1335
sg9
S'Jessie B. Kennedy'
p1622
ssS'P62263'
p1623
(dp1624
g3
(lp1625
S'framework'
p1626
aS'visualization'
p1627
aS'graphics'
p1628
aS'direct-manipulation'
p1629
aS'interactive'
p1630
asg9
S'David Kamins'
p1631
ssS'P100960'
p1632
(dp1633
g3
(lp1634
S'information interfaces and presentation'
p1635
aS'interaction techniques'
p1636
asg9
S'Guy Vaysseix'
p1637
ssS'P223691'
p1638
(dp1639
g3
(lp1640
S'visualization of parallel programs'
p1641
aS'monitoring'
p1642
aS'distributed memory computers'
p1643
aS'communication and sychronization'
p1644
aS'debugging'
p1645
aS'integrated programming environment'
p1646
asg9
S'Peter Braun'
p1647
ssS'P317034'
p1648
(dp1649
g3
g151
sg9
S'D. F. Scollan'
p1650
ssS'P268645'
p1651
(dp1652
g3
g422
sg9
S'Stephen C. North'
p1653
ssS'P162803'
p1654
(dp1655
g3
(lp1656
S'concurrent monitoring'
p1657
aS'distributed monitoring'
p1658
aS'dynamic documentation'
p1659
aS'graphical monitoring'
p1660
asg9
S'Konrad Slind'
p1661
ssS'P196535'
p1662
(dp1663
g3
(lp1664
S'empirical evaluation'
p1665
aS'fromal models of the user'
p1666
aS'icons'
p1667
aS'screen design'
p1668
asg9
S'Michael D. Byrne'
p1669
ssS'P271709'
p1670
(dp1671
g3
g1611
sg9
S'Surajit Chaudhuri'
p1672
ssS'P573217'
p1673
(dp1674
g3
(lp1675
S'action'
p1676
aS'archived reports'
p1677
aS'data visualisation'
p1678
aS'digital libraries'
p1679
aS'information interaction'
p1680
aS'information retrieval'
p1681
aS'informational characteristics'
p1682
aS'large text document corpora'
p1683
aS'libraries'
p1684
aS'library automation'
p1685
aS'natural world'
p1686
aS'nonvisual visualization'
p1687
aS'perception'
p1688
aS'procedures'
p1689
aS'regulations'
p1690
aS'spatial analysis'
p1691
aS'spatial representation'
p1692
aS'text content'
p1693
aS'text content spatialization'
p1694
aS'text documents'
p1695
aS'visual analysis'
p1696
aS'visual browsing'
p1697
aS'visual databases'
p1698
aS'word processing'
p1699
asg9
S'K. Pennock'
p1700
ssS'P55930'
p1701
(dp1702
g3
(lp1703
S'3d visualization techniques'
p1704
aS'starlight information visualization system'
p1705
aS'starlight software'
p1706
aS"windows nt-based operational systemieee conference on information visualisation (iv '97)"
p1707
aS'concurrent visualization techniques'
p1708
aS'digital imagery'
p1709
aS'geographic information'
p1710
aS'information analysis'
p1711
aS'information collections'
p1712
aS'information storage'
p1713
aS'information system'
p1714
aS'intelligence analysis applications'
p1715
aS'levels of abstraction'
p1716
aS'retrieval technologies'
p1717
aS'unstructured text'
p1718
aS'visual context'
p1719
aS'visualization-oriented user-interface'
p1720
asg9
S'D. B. Rex'
p1721
ssS'P285087'
p1722
(dp1723
g3
(lp1724
S'gis'
p1725
aS'fuzzy'
p1726
aS'slope stability modelling'
p1727
aS'uncertainty'
p1728
aS'visualization'
p1729
asg9
S'Trevor J. Davis'
p1730
ssS'P368727'
p1731
(dp1732
g3
g69
sg9
S'Hen'
p1733
ssS'P499638'
p1734
(dp1735
g3
g732
sg9
S'Ugur Dogrus\xc3\xb6z'
p1736
ssS'P573276'
p1737
(dp1738
g3
g1675
sg9
S'M. Pottier'
p1739
ssS'P280294'
p1740
(dp1741
g3
g1427
sg9
S'Thomas Berlage'
p1742
ssS'P62732'
p1743
(dp1744
g3
(lp1745
S'size'
p1746
asg9
S'David Maier'
p1747
ssS'P573031'
p1748
(dp1749
g3
g1394
sg9
S'D. A. Rushall'
p1750
ssS'P18516'
p1751
(dp1752
g3
(lp1753
S'grammars'
p1754
aS'interactive techniques'
p1755
aS'physically-based modeling'
p1756
asg9
S'Andrew Witkin'
p1757
ssS'P14289'
p1758
(dp1759
g3
(lp1760
S'text'
p1761
asg9
S'Alexander S. Szalay'
p1762
ssS'P18921'
p1763
(dp1764
g3
(lp1765
S'evaluation'
p1766
aS'animation'
p1767
aS'real-time computer graphics'
p1768
aS'zoomable user interfaces (zuis)'
p1769
aS'multiscale interfaces'
p1770
aS'pad++'
p1771
asg9
S'Angela Boltman'
p1772
ssS'P187299'
p1773
(dp1774
g3
g765
sg9
S'Marc H. Brown'
p1775
ssS'P301689'
p1776
(dp1777
g3
(lp1778
S'document handling'
p1779
aS'information retrieval'
p1780
aS'self-organizing feature maps'
p1781
aS'kohonen feature map'
p1782
aS'browsing'
p1783
aS'document space'
p1784
asg9
S'Xia Lin'
p1785
ssS'P25792'
p1786
(dp1787
g3
(lp1788
sg9
S'B. H. McCormick'
p1789
ssS'P70180'
p1790
(dp1791
g3
g321
sg9
S'Dragutin Petkovic'
p1792
ssS'P49467'
p1793
(dp1794
g3
g1015
sg9
S'Clifford Stein'
p1795
ssS'P69361'
p1796
(dp1797
g3
(lp1798
S'information visualization'
p1799
aS'graph drawing'
p1800
aS'force-directed placement'
p1801
aS'social network analysis'
p1802
aS'centrality.'
p1803
asg9
S'Dorothea Wagner'
p1804
ssS'P242695'
p1805
(dp1806
g3
(lp1807
S'network'
p1808
asg9
S'Richard G. Palmer'
p1809
ssS'P131935'
p1810
(dp1811
g3
(lp1812
S'management'
p1813
aS'measurement'
p1814
aS'performance'
p1815
aS'reliability'
p1816
asg9
S'James S. Collofello'
p1817
ssS'P304694'
p1818
(dp1819
g3
(lp1820
S'visualization'
p1821
aS'queries'
p1822
asg9
S'Yannis E. Ioannidis'
p1823
ssS'P448313'
p1824
(dp1825
g3
(lp1826
S'animation'
p1827
aS'order'
p1828
asg9
S'Carsten Friedrich'
p1829
ssS'P422317'
p1830
(dp1831
g3
g1625
sg9
S'Jefrey Vroom'
p1832
ssS'P230677'
p1833
(dp1834
g3
g977
sg9
S'R. Daniel Bergeron'
p1835
ssS'P442689'
p1836
(dp1837
g3
g254
sg9
S'Alvis Brazma'
p1838
ssS'P146822'
p1839
(dp1840
g3
(lp1841
S'database'
p1842
aS'searching'
p1843
aS'design'
p1844
asg9
S'Jon Louis Bentley'
p1845
ssS'P266323'
p1846
(dp1847
g3
(lp1848
S'debugging'
p1849
aS'design'
p1850
aS'visualization'
p1851
aS'animation'
p1852
aS'lens'
p1853
aS'graphics'
p1854
aS'algorithm'
p1855
asg9
S'Sougata Mukherjea'
p1856
ssS'P394977'
p1857
(dp1858
g3
g895
sg9
S'B. Fenner'
p1859
ssS'P466509'
p1860
(dp1861
g3
(lp1862
S'anesthesiology'
p1863
aS'display design'
p1864
aS'graphic displays'
p1865
aS'medicine'
p1866
aS'metaphor displays'
p1867
aS'visualization'
p1868
asg9
S'James Agutter'
p1869
ssS'P58248'
p1870
(dp1871
g3
(lp1872
S'3d workspace'
p1873
aS'cscw'
p1874
aS'roomware'
p1875
aS'virtual office/project room'
p1876
aS'virtual reality'
p1877
aS'working material'
p1878
asg9
S'Dan Shapiro'
p1879
ssS'P999999'
p1880
(dp1881
g3
(lp1882
S'3d information visualization'
p1883
aS'usability study'
p1884
aS'empirical study'
p1885
aS'navigation'
p1886
aS'overview adobe acrobat quicktime windows media player real player'
p1887
asg9
S'U. Wiss'
p1888
ssS'P573040'
p1889
(dp1890
g3
g1862
sg9
S'David Strayer'
p1891
ssS'P191495'
p1892
(dp1893
g3
(lp1894
S'feature-based visualization'
p1895
aS'feature extraction'
p1896
aS'wavelet transform'
p1897
aS'gabor wavelets'
p1898
aS'multidimensional visualization'
p1899
aS'subspace mapping'
p1900
aS'principal components'
p1901
aS'shape'
p1902
aS'and texture analysis.'
p1903
asg9
S'Markus H. Gross'
p1904
ssS'P86082'
p1905
(dp1906
g3
g1611
sg9
S'Frank Pellow'
p1907
ssS'P87141'
p1908
(dp1909
g3
(lp1910
S'scientific visualization'
p1911
aS'feature extraction'
p1912
aS'iconic visualization'
p1913
aS'attribute calculation'
p1914
asg9
S'Frits H. Post'
p1915
ssS'P64995'
p1916
(dp1917
g3
(lp1918
S'cactus'
p1919
aS'flower head'
p1920
aS'modeling of plants'
p1921
aS'realistic image synthesis'
p1922
aS'spiral phyllotaxis'
p1923
asg9
S'Deborah R. Fowler'
p1924
ssS'P39480'
p1925
(dp1926
g3
(lp1927
S'database system'
p1928
aS'exact match queries'
p1929
aS'file maintenance'
p1930
aS'information retrieval'
p1931
aS'key'
p1932
aS'multidimensional space'
p1933
aS'queries'
p1934
aS'range search'
p1935
aS'search'
p1936
asg9
S'C. K. Wong'
p1937
ssS'P300211'
p1938
(dp1939
g3
g566
sg9
S'William C. Wake'
p1940
ssS'P504109'
p1941
(dp1942
g3
(lp1943
S'focus'
p1944
aS'visualization'
p1945
aS'documents'
p1946
aS'databases'
p1947
asg9
S'Young-Min Song'
p1948
ssS'P181534'
p1949
(dp1950
g3
(lp1951
sg9
S'M. L. Matthews'
p1952
ssS'P188513'
p1953
(dp1954
g3
(lp1955
S'visualization'
p1956
aS'nested graphs'
p1957
aS'fisheye views'
p1958
aS'node disjointness problem'
p1959
aS'graph layouts'
p1960
aS'software visualization'
p1961
asg9
S'Margaret-Anne D. Storey'
p1962
ssS'P61351'
p1963
(dp1964
g3
g1292
sg9
S'David S. Ebert'
p1965
ssS'P194963'
p1966
(dp1967
g3
(lp1968
S'viewing filter'
p1969
aS'lens'
p1970
aS'database query'
p1971
aS'dynamic queries'
p1972
aS'magic lens'
p1973
aS'visualization'
p1974
asg9
S'Maureen C. Stone'
p1975
ssS'P247806'
p1976
(dp1977
g3
(lp1978
S'3d scalar field visualisation'
p1979
aS'3d signals'
p1980
aS'3d vector field visualization'
p1981
aS'image reconstruction'
p1982
aS'image texture'
p1983
aS'splatting'
p1984
aS'volume visualization'
p1985
aS'data visualization'
p1986
aS'volume rendering.'
p1987
asg9
S'Roger Crawfis'
p1988
ssS'P15294'
p1989
(dp1990
g3
(lp1991
S'design guidelines'
p1992
aS'information visualization'
p1993
aS'multiple views'
p1994
aS'usability heuristics'
p1995
aS'user interfaces'
p1996
asg9
S'Allan Kuchinsky'
p1997
ssS'P64423'
p1998
(dp1999
g3
(lp2000
S'collaboration'
p2001
aS'directory service'
p2002
aS'dynamic organization'
p2003
aS'graph theory'
p2004
aS'interpersonal communications'
p2005
aS'resource directory'
p2006
aS'traffic analysis'
p2007
asg9
S'David C. M. Wood'
p2008
ssS'P422175'
p2009
(dp2010
g3
g1625
sg9
S'David Schlegel'
p2011
ssS'P58183'
p2012
(dp2013
g3
g590
sg9
S'Dan R. Olsen'
p2014
ssS'P108629'
p2015
(dp2016
g3
g670
sg9
S'Heidrun Schumann'
p2017
ssS'P46578'
p2018
(dp2019
g3
g413
sg9
S'Christian A. Duncan'
p2020
ssS'P160462'
p2021
(dp2022
g3
g1565
sg9
S'Kenneth Wood'
p2023
ssS'P280919'
p2024
(dp2025
g3
g1152
sg9
S'Thomas A. Joseph'
p2026
ssS'P392018'
p2027
(dp2028
g3
(lp2029
sg9
S'Marylyn E. McGill'
p2030
ssS'P123644'
p2031
(dp2032
g3
g1951
sg9
S'J. G. Hollands'
p2033
ssS'P20660'
p2034
(dp2035
g3
(lp2036
S'information visualization'
p2037
aS'software architecture'
p2038
aS'user-interaction'
p2039
asg9
S'Anton Eli\xc3\xabns'
p2040
ssS'P170179'
p2041
(dp2042
g3
(lp2043
S'3d image'
p2044
aS'volume rendering'
p2045
aS'reconstruction'
p2046
aS'algorithms'
p2047
asg9
S'Lee Westover'
p2048
ssS'P291365'
p2049
(dp2050
g3
g1499
sg9
S'Vincent A. Guarna, Jr.'
p2051
ssS'P364772'
p2052
(dp2053
g3
g69
sg9
S'Carl Burnham'
p2054
ssS'P145960'
p2055
(dp2056
g3
(lp2057
S'data visualisation'
p2058
aS'formal specification'
p2059
aS'logic cad'
p2060
aS'microprocessor chips'
p2061
aS'parallel architectures'
p2062
aS'performance evaluation'
p2063
aS'virtual machines'
p2064
aS'vmw'
p2065
aS'machine specification'
p2066
aS'multifunction workbench'
p2067
aS'performance simulators'
p2068
aS'retargetability'
p2069
aS'software tools'
p2070
aS'superscalar processor design'
p2071
aS'visualization-based microarchitecture workbench'
p2072
asg9
S'John Paul Shen'
p2073
ssS'P241419'
p2074
(dp2075
g3
(lp2076
S'network visualization'
p2077
aS'parameter focusing'
p2078
aS'network data analysis'
p2079
aS'interactive graphics'
p2080
aS'data analysis'
p2081
aS'direct manipulation.'
p2082
asg9
S'Richard A. Becker'
p2083
ssS'P59313'
p2084
(dp2085
g3
(lp2086
S'cost structure'
p2087
aS'information access'
p2088
aS'learning loop'
p2089
aS'representation search'
p2090
aS'representation shift'
p2091
aS'sensemaking'
p2092
asg9
S'Daniel M. Russell'
p2093
ssS'P29533'
p2094
(dp2095
g3
(lp2096
S'biology computing'
p2097
aS'botany'
p2098
aS'computational geometry'
p2099
aS'computer graphics'
p2100
aS'knowledge based systems'
p2101
aS'branching object generation'
p2102
aS'bushes'
p2103
aS'flowers'
p2104
aS'free-form deformations'
p2105
aS'geometric modelling techniques'
p2106
aS'geometrical elements'
p2107
aS'geometrical parameters'
p2108
aS'interactive modeling'
p2109
aS'nonbotanical objects'
p2110
aS'plant shape'
p2111
aS'plants'
p2112
aS'rule-based approach'
p2113
aS'structural elements'
p2114
aS'trees'
p2115
aS'tropisms'
p2116
aS'user feedback'
p2117
asg9
S'Bernd Lintermann'
p2118
ssS'P33104'
p2119
(dp2120
g3
g724
sg9
S'Brian N. Wylie'
p2121
ssS'P187648'
p2122
(dp2123
g3
(lp2124
S'focus+context techniques'
p2125
aS'graphical browser'
p2126
aS'hierarchical representation'
p2127
aS'information visualization and exploration'
p2128
asg9
S'Marc-Antoine Parent'
p2129
ssS'P147125'
p2130
(dp2131
g3
g321
sg9
S'Jonathan Ashley'
p2132
ssS'P281357'
p2133
(dp2134
g3
(lp2135
S'electric power system visualization'
p2136
aS'electric utility restructuring'
p2137
aS'interactive 3d'
p2138
asg9
S'Thomas J. Overbye'
p2139
ssS'P207209'
p2140
(dp2141
g3
(lp2142
S'hypermedia database'
p2143
aS'indexing'
p2144
aS'information retrieval'
p2145
aS'media-based navigation'
p2146
aS'pattern matching'
p2147
asg9
S'Naoki Shibata'
p2148
ssS'P86145'
p2149
(dp2150
g3
(lp2151
sg9
S'Frank M. Shipman, III'
p2152
ssS'P173848'
p2153
(dp2154
g3
(lp2155
S'images'
p2156
aS'trees'
p2157
aS'search'
p2158
asg9
S'Luc Devroye'
p2159
ssS'P496745'
p2160
(dp2161
g3
g800
sg9
S'T. Strasser'
p2162
ssS'P169127'
p2163
(dp2164
g3
g262
sg9
S'Laura T. Ring'
p2165
ssS'P213559'
p2166
(dp2167
g3
g533
sg9
S'P. Abel'
p2168
ssS'P15498'
p2169
(dp2170
g3
(lp2171
S'shape'
p2172
aS'images'
p2173
aS'interpolation'
p2174
asg9
S'Allen Van Gelder'
p2175
ssS'P95839'
p2176
(dp2177
g3
(lp2178
S'collaboration'
p2179
aS'interactivity'
p2180
aS'maps'
p2181
aS'scientific visualization'
p2182
aS'virtual reality'
p2183
asg9
S'George Otto'
p2184
ssS'P368178'
p2185
(dp2186
g3
(lp2187
S'techniques'
p2188
asg9
S'Giuseppe Di Battista'
p2189
ssS'P245454'
p2190
(dp2191
g3
(lp2192
Vretrieval
p2193
asg9
S'Robert R. Korfhage'
p2194
ssS'P53060'
p2195
(dp2196
g3
g1007
sg9
S'D. Donjerkovic'
p2197
ssS'P501877'
p2198
(dp2199
g3
g1234
sg9
S'Wendy S. Ark'
p2200
ssS'P60561'
p2201
(dp2202
g3
(lp2203
S'human factors'
p2204
aS'human information processing'
p2205
aS'information systems applications'
p2206
asg9
S'David Beard'
p2207
ssS'P266789'
p2208
(dp2209
g3
(lp2210
S'flip zooming'
p2211
aS'focus+context visualization'
p2212
aS'hierarchies'
p2213
aS'information visualization'
p2214
asg9
S'Staffan Bj\xc3\xb6rk'
p2215
ssS'P549630'
p2216
(dp2217
g3
(lp2218
S'brushing'
p2219
aS'multivariate data visualization'
p2220
aS'visual data exploration'
p2221
asg9
S'Allen R. Martin'
p2222
ssS'P58912'
p2223
(dp2224
g3
(lp2225
S'geometrical problems and computations'
p2226
aS'pattern matching'
p2227
asg9
S'Daniel P. Huttenlocher'
p2228
ssS'P68529'
p2229
(dp2230
g3
(lp2231
S'performance'
p2232
aS'design'
p2233
asg9
S'Donald Ervin Knuth'
p2234
ssS'P159248'
p2235
(dp2236
g3
(lp2237
S'munsell'
p2238
aS'boundary detection'
p2239
aS'cognitive psychology'
p2240
aS'color'
p2241
aS'estimation'
p2242
aS'human vision'
p2243
aS'icon'
p2244
aS'multidimensional data'
p2245
aS'orientation'
p2246
aS'preattentive'
p2247
aS'scientific visualization'
p2248
aS'target detection'
p2249
asg9
S'Kellogg S. Booth'
p2250
ssS'P13911'
p2251
(dp2252
g3
(lp2253
S'direct manipulation'
p2254
aS'database visualization'
p2255
asg9
S'Alexander Aiken'
p2256
ssS'P201750'
p2257
(dp2258
g3
g1007
sg9
S'Miron Livny'
p2259
ssS'P212078'
p2260
(dp2261
g3
(lp2262
S'3d'
p2263
aS'cscw'
p2264
aS'communication'
p2265
aS'control'
p2266
aS'distribution'
p2267
aS'resource sharing'
p2268
aS'user interaction'
p2269
aS'virtual reality'
p2270
aS'visualization'
p2271
asg9
S'Olov St\xc3\xa5hl'
p2272
ssS'P507625'
p2273
(dp2274
g3
(lp2275
S'design'
p2276
aS'relational'
p2277
aS'visualization'
p2278
aS'database'
p2279
aS'databases'
p2280
aS'visualizations'
p2281
asg9
S'Varun Saini'
p2282
ssS'P465902'
p2283
(dp2284
g3
g533
sg9
S'J. P. Paris'
p2285
ssS'P579053'
p2286
(dp2287
g3
(lp2288
S'tree visualization'
p2289
aS'information visualization'
p2290
aS'clustering'
p2291
asg9
S'Guy Melancon'
p2292
ssS'P283627'
p2293
(dp2294
g3
(lp2295
S'3d user interface'
p2296
aS'scientific visualization'
p2297
asg9
S'Tom Meyer'
p2298
ssS'P173072'
p2299
(dp2300
g3
(lp2301
S'camera'
p2302
aS'constructive solid geometry'
p2303
aS'depth of field'
p2304
aS'focus'
p2305
aS'gloss'
p2306
aS'motion blur'
p2307
aS'penumbras'
p2308
aS'ray tracing'
p2309
aS'shadows'
p2310
aS'translucency'
p2311
aS'transparency'
p2312
asg9
S'Loren Carpenter'
p2313
ssS'P163321'
p2314
(dp2315
g3
g1480
sg9
S'Kristofer Franz\xc3\xa9n'
p2316
ssS'P194513'
p2317
(dp2318
g3
(lp2319
S'business charts'
p2320
aS'data visualization'
p2321
aS'demonstrational interfaces'
p2322
aS'interactive techniques'
p2323
asg9
S'Matthew A. Goldberg'
p2324
ssS'P206576'
p2325
(dp2326
g3
g475
sg9
S'Naeem Shareef'
p2327
ssS'P269137'
p2328
(dp2329
g3
(lp2330
S'color'
p2331
aS'images'
p2332
aS'perception'
p2333
aS'structure'
p2334
asg9
S'Steve Bryson'
p2335
ssS'P30422'
p2336
(dp2337
g3
(lp2338
S'text'
p2339
aS'medicine'
p2340
asg9
S'Bill Gates'
p2341
ssS'P62221'
p2342
(dp2343
g3
g724
sg9
S'David K. Johnson'
p2344
ssS'P273940'
p2345
(dp2346
g3
g1951
sg9
S'T. T. Carey'
p2347
ssS'P220113'
p2348
(dp2349
g3
(lp2350
S'scatter/gather'
p2351
aS'browsing'
p2352
aS'clustering'
p2353
aS'information retrieval'
p2354
asg9
S'Patricia Schank'
p2355
ssS'P413048'
p2356
(dp2357
g3
g846
sg9
S'Linda Pickle'
p2358
ssS'P24614'
p2359
(dp2360
g3
g1314
sg9
S'B. DasGupta'
p2361
ssS'P223495'
p2362
(dp2363
g3
g1872
sg9
S'Peter \xc3\x98rb\xc3\xa6k'
p2364
ssS'P269823'
p2365
(dp2366
g3
(lp2367
S'user interfaces'
p2368
aS'hierarchy and geometric transformations'
p2369
aS'interaction techniques'
p2370
asg9
S'Steven K. Feiner'
p2371
ssS'P37652'
p2372
(dp2373
g3
g1951
sg9
S'C. A. McCann'
p2374
ssS'P643562'
p2375
(dp2376
g3
g552
sg9
S'T. Mihalisin'
p2377
ssS'P596917'
p2378
(dp2379
g3
(lp2380
S'drawing trees'
p2381
aS'tex'
p2382
asg9
S'Anne Brueggemann-Klein'
p2383
ssS'P93543'
p2384
(dp2385
g3
g1087
sg9
S'Gail Reynard'
p2386
ssS'P327722'
p2387
(dp2388
g3
g566
sg9
S'Scott A. Guyer'
p2389
ssS'P342859'
p2390
(dp2391
g3
(lp2392
S'information content'
p2393
aS'information theory'
p2394
aS'information visualization'
p2395
aS'metrics'
p2396
asg9
S'Woodie C. Flowers'
p2397
ssS'P562400'
p2398
(dp2399
g3
g446
sg9
S'James H. Garrett Jr.'
p2400
ssS'P5110'
p2401
(dp2402
g3
(lp2403
S'finesse'
p2404
aS'arithmetic'
p2405
aS'data visualization'
p2406
aS'financial data processing'
p2407
aS'financial information spreadsheet'
p2408
aS'functions'
p2409
aS'graphics'
p2410
aS'images'
p2411
aS'information presentation'
p2412
aS'market trends'
p2413
aS'numbers'
p2414
aS'presentation'
p2415
aS'real-time financial information'
p2416
aS'spreadsheet cells'
p2417
aS'text'
p2418
aS'three dimensions'
p2419
aS'two dimensions'
p2420
aS'user interface'
p2421
asg9
S'A. Kaufman'
p2422
ssS'P511630'
p2423
(dp2424
g3
(lp2425
S'focus+context visualization'
p2426
aS'information visualization'
p2427
aS'levels of detail'
p2428
aS'process visualization'
p2429
asg9
S'Reinhard Sainitzer'
p2430
ssS'P58480'
p2431
(dp2432
g3
(lp2433
S'geometry'
p2434
aS'interactive'
p2435
aS'morphing'
p2436
aS'simplification'
p2437
aS'space partitioning'
p2438
aS'textures'
p2439
aS'visibility culling'
p2440
aS'visual complexity'
p2441
asg9
S'Daniel G. Aliaga'
p2442
ssS'P50498'
p2443
(dp2444
g3
g1625
sg9
S'Craig Upson'
p2445
ssS'P208397'
p2446
(dp2447
g3
(lp2448
S'databases'
p2449
aS'information retrieval'
p2450
aS'information systems'
p2451
aS'interaction strategies'
p2452
aS'user interfaces'
p2453
asg9
S'Nicholas J. Belkin'
p2454
ssS'P117429'
p2455
(dp2456
g3
g2288
sg9
S'Ivan Herman'
p2457
ssS'P60891'
p2458
(dp2459
g3
(lp2460
S'computer graphics'
p2461
aS'graphical user interfaces'
p2462
aS'image processing'
p2463
aS'user interface management systems'
p2464
aS'visual databases'
p2465
aS'analysis'
p2466
aS'design'
p2467
aS'designer guidelines'
p2468
aS'evaluation'
p2469
aS'image-browser taxonomy'
p2470
aS'informal specification technique'
p2471
aS'large image browsing'
p2472
aS'selected image exploration'
p2473
aS'task taxonomy'
p2474
aS'tools'
p2475
aS'two-dimensional browsing'
p2476
asg9
S'David Carr'
p2477
ssS'P72983'
p2478
(dp2479
g3
g338
sg9
S'E. L. Miller'
p2480
ssS'P158895'
p2481
(dp2482
g3
(lp2483
S'www'
p2484
aS'internet'
p2485
aS'information systems'
p2486
aS'information visualization'
p2487
asg9
S'Keith Andrews'
p2488
ssS'P339934'
p2489
(dp2490
g3
(lp2491
S'text'
p2492
aS'web'
p2493
aS'classification'
p2494
aS'framework'
p2495
aS'network'
p2496
aS'research'
p2497
aS'analysis'
p2498
asg9
S'Hank Hoek'
p2499
ssS'P573255'
p2500
(dp2501
g3
g218
sg9
S'M. B. Burks'
p2502
ssS'P286704'
p2503
(dp2504
g3
g1798
sg9
S'Ulrik Brandes'
p2505
ssS'P422521'
p2506
(dp2507
g3
(lp2508
S'blobby models'
p2509
aS'document clustering'
p2510
aS'graphics'
p2511
aS'implicit surface modeling'
p2512
aS'information retrieval'
p2513
aS'information visualization'
p2514
aS'procedural visualization'
p2515
aS'text visualization'
p2516
aS'user interfaces'
p2517
asg9
S'Randall M. Rohrer'
p2518
ssS'P60514'
p2519
(dp2520
g3
g1753
sg9
S'David Baraff'
p2521
ssS'P77263'
p2522
(dp2523
g3
(lp2524
S'fisheye'
p2525
aS'techniques'
p2526
aS'visualizing'
p2527
aS'presentation'
p2528
aS'graphs'
p2529
asg9
S'Emanuel G. Noik'
p2530
ssS'P23315'
p2531
(dp2532
g3
(lp2533
S'algorithm animation'
p2534
aS'computational geometry'
p2535
aS'three-dimensional geometric algorithms.'
p2536
asg9
S'Ayellet Tal'
p2537
ssS'P211796'
p2538
(dp2539
g3
g2096
sg9
S'Oliver Deussen'
p2540
ssS'P117392'
p2541
(dp2542
g3
g1480
sg9
S'Ivan Bretan'
p2543
ssS'P247663'
p2544
(dp2545
g3
(lp2546
S'graph theory'
p2547
aS'hierarchies'
p2548
aS'hypertext'
p2549
aS'metrics'
p2550
aS'structural analysis'
p2551
asg9
S'Rodrigo A. Botafogo'
p2552
ssS'P573494'
p2553
(dp2554
g3
g1439
sg9
S'V. Anupam'
p2555
ssS'P361665'
p2556
(dp2557
g3
g69
sg9
S'Ari Halberstadt'
p2558
ssS'P573496'
p2559
(dp2560
g3
g1675
sg9
S'V. Crow'
p2561
ssS'P43667'
p2562
(dp2563
g3
g1015
sg9
S'Charles E. Leiserson'
p2564
ssS'P283968'
p2565
(dp2566
g3
(lp2567
S'visualization'
p2568
aS'framework'
p2569
aS'constraints'
p2570
aS'order'
p2571
asg9
S'Tomihisa Kamada'
p2572
ssS'P96421'
p2573
(dp2574
g3
(lp2575
sg9
S'Gerald L. Lohse'
p2576
ssS'P573492'
p2577
(dp2578
g3
(lp2579
S'decision tree'
p2580
aS'linked views'
p2581
asg9
S'Todd Barlow'
p2582
ssS'P257593'
p2583
(dp2584
g3
g1346
sg9
S'S. Utter'
p2585
ssS'P185741'
p2586
(dp2587
g3
g863
sg9
S'Maarten van Dantzich'
p2588
ssS'P465743'
p2589
(dp2590
g3
(lp2591
S'visual database exploration'
p2592
aS'database visualization'
p2593
aS'metadata'
p2594
aS'user modeling'
p2595
aS'interaction'
p2596
asg9
S'J. P. Lee'
p2597
ssS'P79285'
p2598
(dp2599
g3
(lp2600
S'network'
p2601
aS'usability'
p2602
aS'object-oriented'
p2603
aS'algorithms'
p2604
aS'retrieval'
p2605
asg9
S'Eskinder Sahle'
p2606
ssS'P378471'
p2607
(dp2608
g3
g69
sg9
S'Timothy Briggs'
p2609
ssS'P200330'
p2610
(dp2611
g3
g1753
sg9
S'Mikako Harada'
p2612
ssS'P142560'
p2613
(dp2614
g3
g1918
sg9
S'Johannes Battjes'
p2615
ssS'P264765'
p2616
(dp2617
g3
g1234
sg9
S'Shumin Zhai'
p2618
ssS'P305782'
p2619
(dp2620
g3
g2491
sg9
S'Ying Li'
p2621
ssS'P78259'
p2622
(dp2623
g3
g1634
sg9
S'Eric Lecolinet'
p2624
ssS'P416667'
p2625
(dp2626
g3
(lp2627
S'information visualization'
p2628
aS'iconic display'
p2629
aS'user interface design'
p2630
aS'graphical encoding'
p2631
asg9
S'Robert Schulman'
p2632
ssS'P44203'
p2633
(dp2634
g3
(lp2635
Vgraphs
p2636
aVtechniques
p2637
aVweb
p2638
aVvrml
p2639
aV3d
p2640
aVdocuments
p2641
aVstructure
p2642
aVrepresentation
p2643
aVbrowser
p2644
asg9
S'Charlie Gunn'
p2645
ssS'P275012'
p2646
(dp2647
g3
(lp2648
S'web'
p2649
aS'metaphor'
p2650
aS'analysis'
p2651
aS'algorithms'
p2652
asg9
S'T. Alan Keahey'
p2653
ssS'P99212'
p2654
(dp2655
g3
(lp2656
S'visualization'
p2657
aS'knowledge discovery in databases'
p2658
asg9
S'Graham J. Wills'
p2659
ssS'P78910'
p2660
(dp2661
g3
(lp2662
S'database query'
p2663
aS'dynamic queries'
p2664
aS'information exploration'
p2665
aS'information visualization'
p2666
aS'tight coupling'
p2667
asg9
S'Erik Wistrand'
p2668
ssS'P249221'
p2669
(dp2670
g3
g1015
sg9
S'Ronald L. Rivest'
p2671
ssS'P47308'
p2672
(dp2673
g3
(lp2674
S'imageability'
p2675
aS'information design'
p2676
aS'navigation'
p2677
aS'visualization'
p2678
asg9
S'Christoph Pfranger'
p2679
ssS'P107530'
p2680
(dp2681
g3
g45
sg9
S'Harlan Foote'
p2682
ssS'P168592'
p2683
(dp2684
g3
g929
sg9
S'Larry Masinter'
p2685
ssS'P109930'
p2686
(dp2687
g3
(lp2688
Vdesign
p2689
asg9
S'Herbert A. Simon'
p2690
ssS'P210210'
p2691
(dp2692
g3
g720
sg9
S'Norman E. Fenton'
p2693
ssS'P573084'
p2694
(dp2695
g3
(lp2696
S'brushing'
p2697
aS'focus+context visualization'
p2698
aS'information visualization'
p2699
aS'linear correlations'
p2700
aS'parallel coordinates'
p2701
asg9
S'Florian Ledermann'
p2702
ssS'P12812'
p2703
(dp2704
g3
(lp2705
S'data browsing'
p2706
aS'hypermedia'
p2707
aS'magnifying glasses'
p2708
aS'user interfaces'
p2709
aS'visual databases'
p2710
aS'visual programming'
p2711
aS'wormholes'
p2712
aS'zooming'
p2713
asg9
S'Alan Su'
p2714
ssS'P68131'
p2715
(dp2716
g3
g1611
sg9
S'Don Reichart'
p2717
ssS'P86368'
p2718
(dp2719
g3
(lp2720
S'remote sensing classification'
p2721
aS'uncertainty'
p2722
aS'visualisation'
p2723
asg9
S'Frans J. M. van der Wel'
p2724
ssS'P573088'
p2725
(dp2726
g3
(lp2727
S'visualization'
p2728
aS'structure'
p2729
aS'metrics'
p2730
aS'algorithm'
p2731
aS'queries'
p2732
asg9
S'Francois Guimbretiere'
p2733
ssS'P110338'
p2734
(dp2735
g3
g1074
sg9
S'Hidekazu Shiozawa'
p2736
ssS'P59688'
p2737
(dp2738
g3
g69
sg9
S'Danny Ayers'
p2739
ssS'P128443'
p2740
(dp2741
g3
g1675
sg9
S'J. J. Thomas'
p2742
ssS'P572885'
p2743
(dp2744
g3
g80
sg9
S'A. Badre'
p2745
ssS'P573317'
p2746
(dp2747
g3
g1862
sg9
S'Noah Syroid'
p2748
ssS'P28588'
p2749
(dp2750
g3
g2600
sg9
S'Ben E. Cline'
p2751
ssS'P139655'
p2752
(dp2753
g3
g475
sg9
S'Jian Huang'
p2754
ssS'P162173'
p2755
(dp2756
g3
g2225
sg9
S'Klara Kedem'
p2757
ssS'P239621'
p2758
(dp2759
g3
g1244
sg9
S'Ravinder Bhogal'
p2760
ssS'P283259'
p2761
(dp2762
g3
(lp2763
S'code'
p2764
aS'algorithm'
p2765
asg9
S'Todd Veldhuizen'
p2766
ssS'P283825'
p2767
(dp2768
g3
g855
sg9
S'Tom\xc3\xa1s Isakowitz'
p2769
ssS'P160097'
p2770
(dp2771
g3
g2295
sg9
S'Kenneth P. Herndon'
p2772
ssS'P238204'
p2773
(dp2774
g3
g505
sg9
S'Rakesh Agrawal'
p2775
ssS'P49354'
p2776
(dp2777
g3
(lp2778
S'animation'
p2779
aS'decision making'
p2780
asg9
S'Cleotilde Gonzalez'
p2781
ssS'P43203'
p2782
(dp2783
g3
g2262
sg9
S'Charles Grant Brown'
p2784
ssS'P109156'
p2785
(dp2786
g3
g2696
sg9
S'Helwig Hauser'
p2787
ssS'P96664'
p2788
(dp2789
g3
(lp2790
S'pattern matching'
p2791
aS'vector space model'
p2792
aS'document retrieval'
p2793
asg9
S'Gerard Salton'
p2794
ssS'P335624'
p2795
(dp2796
g3
(lp2797
S'visualization'
p2798
aS'metaphor'
p2799
aS'trend analysis'
p2800
aS'time line.'
p2801
asg9
S'Lucy Nowell'
p2802
ssS'P344298'
p2803
(dp2804
g3
g635
sg9
S'James A. Jones'
p2805
ssS'P9491'
p2806
(dp2807
g3
g2790
sg9
S'A. Wong'
p2808
ssS'P232840'
p2809
(dp2810
g3
(lp2811
S'narcissus'
p2812
aS'world wide web'
p2813
aS'adaptive systems'
p2814
aS'complex information spaces'
p2815
aS'concurrent engineering'
p2816
aS'data manipulation'
p2817
aS'data visualisation'
p2818
aS'information networks'
p2819
aS'information retrieval'
p2820
aS'information systems'
p2821
aS'information visualisation'
p2822
aS'intuitive understanding'
p2823
aS'large computer based data sets'
p2824
aS'navigation'
p2825
aS'object manipulation'
p2826
aS'programming environments'
p2827
aS'self-adjusting systems'
p2828
aS'software systems'
p2829
aS'user support'
p2830
aS'virtual reality'
p2831
aS'visual programming'
p2832
aS'visualisation tools'
p2833
asg9
S'R. J. Hendley'
p2834
ssS'P280938'
p2835
(dp2836
g3
(lp2837
S'ave'
p2838
aS'automatic visualization environment'
p2839
aS'data visualization'
p2840
aS'data-driven diagram generation'
p2841
aS'semantic networks'
p2842
asg9
S'Thomas Kamps'
p2843
ssS'P219805'
p2844
(dp2845
g3
(lp2846
S'databases'
p2847
aS'data warehouses'
p2848
aS'olap'
p2849
aS'hierarchical projection'
p2850
asg9
S'Pat Hanrahan'
p2851
ssS'P9496'
p2852
(dp2853
g3
g2811
sg9
S'A. M. Wood'
p2854
ssS'P13073'
p2855
(dp2856
g3
(lp2857
S'fisheye view'
p2858
aS'graphical user interface'
p2859
aS'hierarchical network'
p2860
aS'information space'
p2861
aS'information visualization'
p2862
aS'navigation'
p2863
aS'supervisory control systems'
p2864
asg9
S'Albert Ho'
p2865
ssS'P608295'
p2866
(dp2867
g3
(lp2868
S'biology computing'
p2869
aS'computer visualization'
p2870
aS'global genomic information content'
p2871
aS'data visualization'
p2872
aS'subsequences visual models.'
p2873
asg9
S'Douglas J. Cork'
p2874
ssS'P262903'
p2875
(dp2876
g3
g574
sg9
S'Sharon J. Laskowski'
p2877
ssS'P239824'
p2878
(dp2879
g3
g2178
sg9
S'Raymon Masters'
p2880
ssS'P123305'
p2881
(dp2882
g3
g455
sg9
S'J. M. Hammer'
p2883
ssS'P77449'
p2884
(dp2885
g3
g1634
sg9
S'Emmanuel Barillot'
p2886
ssS'P573178'
p2887
(dp2888
g3
(lp2889
S'collaboration'
p2890
aS'geographic visualization'
p2891
aS'spatio-temporal'
p2892
aS'user task analysis'
p2893
asg9
S'Jack Gundrum'
p2894
ssS'P573179'
p2895
(dp2896
g3
g635
sg9
S'James Eagan'
p2897
ssS'P244619'
p2898
(dp2899
g3
(lp2900
S'3d graphics'
p2901
aS'calendars'
p2902
aS'detail+context technique'
p2903
aS'graphical representations'
p2904
aS'information retrieval'
p2905
aS'information visualization'
p2906
aS'interactive animation'
p2907
aS'translucent shadows'
p2908
asg9
S'Robert DeLine'
p2909
ssS'P20144'
p2910
(dp2911
g3
(lp2912
S'graphical user interface'
p2913
aS'human factors'
p2914
aS'information retrieval'
p2915
aS'information visualization'
p2916
aS'visual query language'
p2917
asg9
S'Anselm Spoerri'
p2918
ssS'P19895'
p2919
(dp2920
g3
(lp2921
S'history'
p2922
aS'justice'
p2923
aS'medical record'
p2924
aS'overview'
p2925
aS'personal record'
p2926
aS'screen design'
p2927
aS'screen management'
p2928
aS'timeline'
p2929
aS'visualization'
p2930
asg9
S'Anne Rose'
p2931
ssS'P65018'
p2932
(dp2933
g3
g566
sg9
S'Deborah Hix'
p2934
ssS'P18742'
p2935
(dp2936
g3
g1306
sg9
S'Andy Cockburn'
p2937
ssS'P643579'
p2938
(dp2939
g3
g1191
sg9
S'Fergus J. Merritt'
p2940
ssS'P142064'
p2941
(dp2942
g3
g999
sg9
S'Joe Mattis'
p2943
ssS'P221003'
p2944
(dp2945
g3
(lp2946
S'documents'
p2947
aS'web'
p2948
aS'vrml'
p2949
aS'visualization'
p2950
aS'techniques'
p2951
aS'3d'
p2952
aS'structure'
p2953
aS'graphs'
p2954
aS'representation'
p2955
aS'browser'
p2956
asg9
S'Paul Burchard'
p2957
ssS'P142060'
p2958
(dp2959
g3
(lp2960
S'automated cartography'
p2961
aS'heuristic search'
p2962
aS'label placement'
p2963
aS'simulated annealing'
p2964
aS'stochastic methods'
p2965
asg9
S'Joe Marks'
p2966
ssS'P37070'
p2967
(dp2968
g3
g1724
sg9
S'C. Peter Keller'
p2969
ssS'P71230'
p2970
(dp2971
g3
(lp2972
S'dimensions'
p2973
aS'lattice'
p2974
aS'algorithm'
p2975
aS'graphs'
p2976
asg9
S'E. Bannai'
p2977
ssS'P254852'
p2978
(dp2979
g3
g1007
sg9
S'S. Lawande'
p2980
ssS'P203769'
p2981
(dp2982
g3
g321
sg9
S'Myron Flickner'
p2983
ssS'P333992'
p2984
(dp2985
g3
(lp2986
S'design'
p2987
aS'experimentation'
p2988
asg9
S'Teresa Bleser'
p2989
ssS'P262884'
p2990
(dp2991
g3
(lp2992
S'cognitive models'
p2993
aS'navigation'
p2994
aS'searching'
p2995
aS'task analysis'
p2996
aS'user interface models'
p2997
aS'user models'
p2998
aS'visual problem solving'
p2999
asg9
S'Sharon R. Garber'
p3000
ssS'P14342'
p3001
(dp3002
g3
(lp3003
Vquery
p3004
aVtools
p3005
aVorientation
p3006
aVpresentation
p3007
aVvisualization
p3008
aVsearch
p3009
aVinteraction
p3010
aVdatabase
p3011
aVbrowsing
p3012
aVvisualizations
p3013
aVnavigation
p3014
aVretrieval
p3015
asg9
S'Alexander Willett'
p3016
ssS'P63826'
p3017
(dp3018
g3
(lp3019
S'canonical form'
p3020
aS'closed planar curves'
p3021
aS'computational geometry'
p3022
aS'edge detection'
p3023
aS'image processing'
p3024
aS'invariant shape descriptor'
p3025
aS'isoperimetric normalization'
p3026
aS'object recognition'
p3027
aS'piecewise smooth closed curve'
p3028
aS'projective group pgl(2)'
p3029
asg9
S'David Sinclair'
p3030
ssS'P528641'
p3031
(dp3032
g3
(lp3033
S'c++ class browser'
p3034
aS'vanish'
p3035
aS'vapl'
p3036
aS'application domains'
p3037
aS'hierarchically structured information'
p3038
aS'information navigation'
p3039
aS'interactive information visualization'
p3040
aS'presentation toolkit'
p3041
aS'rapid prototyping'
p3042
aS'software architecture'
p3043
aS'software prototyping'
p3044
aS'software tool'
p3045
aS'visual language'
p3046
aS'visualization techniques reuse'
p3047
aS'visualization-specific code'
p3048
asg9
S'R. Kazman'
p3049
ssS'P109611'
p3050
(dp3051
g3
(lp3052
S'information systems'
p3053
aS'response time'
p3054
asg9
S'Henry C. Lucas, Jr.'
p3055
ssS'P371396'
p3056
(dp3057
g3
g69
sg9
S'Karl Avedal'
p3058
ssS'P173985'
p3059
(dp3060
g3
g545
sg9
S'Luca Vismara'
p3061
ssS'P196751'
p3062
(dp3063
g3
g31
sg9
S'Michael Davis'
p3064
ssS'P477708'
p3065
(dp3066
g3
(lp3067
S'proteins'
p3068
aS'structure'
p3069
aS'alignment'
p3070
aS'fold recognition'
p3071
aS'threading'
p3072
aS'similarity'
p3073
aS'glyphs'
p3074
aS'streamlines'
p3075
aS'ribbons'
p3076
aS'amino acids'
p3077
asg9
S'Marc Hansen'
p3078
ssS'P305767'
p3079
(dp3080
g3
g53
sg9
S'Ying Feng'
p3081
ssS'P21445'
p3082
(dp3083
g3
g1253
sg9
S'Aris Floratos'
p3084
ssS'P238722'
p3085
(dp3086
g3
(lp3087
S'goms'
p3088
aS'database visualization'
p3089
aS'evaluation'
p3090
aS'exploratory data analysis'
p3091
aS'information visualization'
p3092
aS'multivariate visualization'
p3093
asg9
S'Ramana Rao'
p3094
ssS'P21449'
p3095
(dp3096
g3
(lp3097
sg9
S'Aristid Lindenmayer'
p3098
ssS'P280273'
p3099
(dp3100
g3
(lp3101
S'button'
p3102
aS'control panel'
p3103
aS'lens'
p3104
aS'macro'
p3105
aS'menu'
p3106
aS'multihand'
p3107
aS'transparent'
p3108
aS'user interface'
p3109
aS'viewing filter'
p3110
asg9
S'Thomas Baudel'
p3111
ssS'P260611'
p3112
(dp3113
g3
(lp3114
S'text'
p3115
aS'fortran'
p3116
aS'research'
p3117
aS'collaboration'
p3118
asg9
S'Saul A. Teukolsky'
p3119
ssS'P247234'
p3120
(dp3121
g3
(lp3122
S'mocha'
p3123
aS'algorithm animation'
p3124
aS'hypertext narratives'
p3125
asg9
S'Roberto Tamassia'
p3126
ssS'P142351'
p3127
(dp3128
g3
g1280
sg9
S'Joemon M. Jose'
p3129
ssS'P160797'
p3130
(dp3131
g3
(lp3132
S'head-coupled display'
p3133
aS'stereopsis'
p3134
aS'virtual reality'
p3135
aS'virtual worlds'
p3136
asg9
S'Kevin W. Arthur'
p3137
ssS'P207886'
p3138
(dp3139
g3
g2575
sg9
S'Neff Walker'
p3140
ssS'P164294'
p3141
(dp3142
g3
g505
sg9
S'Kyuseok Shim'
p3143
ssS'P172581'
p3144
(dp3145
g3
g1244
sg9
S'Lisa Tweedie'
p3146
ssS'P155822'
p3147
(dp3148
g3
g825
sg9
S'K. Wong'
p3149
ssS'P144264'
p3150
(dp3151
g3
g1807
sg9
S'John Hertz'
p3152
ssS'P414344'
p3153
(dp3154
g3
(lp3155
S'information visualization'
p3156
aS'disc tree'
p3157
aS'compact disc tree'
p3158
aS'plane disc tree'
p3159
aS'hierarchy'
p3160
asg9
S'Chang-Sung Jeong'
p3161
ssS'P85248'
p3162
(dp3163
g3
(lp3164
S'evaluation'
p3165
asg9
S'Francesmary Modugno'
p3166
ssS'P338272'
p3167
(dp3168
g3
g38
sg9
S'Barry Becker'
p3169
ssS'P42092'
p3170
(dp3171
g3
g2151
sg9
S'Catherine C. Marshall'
p3172
ssS'P50519'
p3173
(dp3174
g3
(lp3175
S'animation'
p3176
aS'flow envelopes'
p3177
aS'flow visualization'
p3178
aS'rakes'
p3179
aS'streamlines'
p3180
aS'uncertainty glyphs'
p3181
asg9
S'Craig M. Wittenbrink'
p3182
ssS'P547014'
p3183
(dp3184
g3
(lp3185
S'cityvis'
p3186
aS'telescope'
p3187
aS'abstraction scales'
p3188
aS'abstractor objects'
p3189
aS'automatic abstraction management'
p3190
aS"city dataieee conference on information visualisation (iv '97)"
p3191
aS'complex data'
p3192
aS'customizable infrastructure'
p3193
aS'data visualisation'
p3194
aS'information visualization systems'
p3195
aS'object-oriented architecture'
p3196
aS'reusable support'
p3197
aS'semantic zoom capabilities'
p3198
aS'software architectures'
p3199
asg9
S'A. Teyseyre'
p3200
ssS'P224571'
p3201
(dp3202
g3
g1872
sg9
S'Peter Krogh'
p3203
ssS'P190105'
p3204
(dp3205
g3
(lp3206
S'direct manipulation'
p3207
aS'queries'
p3208
aS'information visualization'
p3209
aS'visual query language'
p3210
asg9
S'Mark Derthick'
p3211
ssS'P198482'
p3212
(dp3213
g3
g1556
sg9
S'Michael Potmesil'
p3214
ssS'P470653'
p3215
(dp3216
g3
g1862
sg9
S'Julio Bermudez'
p3217
ssS'P75581'
p3218
(dp3219
g3
(lp3220
S'color'
p3221
aS'graphics'
p3222
aS'design'
p3223
asg9
S'Edward Tufte'
p3224
ssS'P150480'
p3225
(dp3226
g3
(lp3227
S'editing'
p3228
aS'order'
p3229
asg9
S'Judy Kay'
p3230
ssS'P96398'
p3231
(dp3232
g3
(lp3233
S'analysis'
p3234
aS'visualization'
p3235
aS'timeline'
p3236
aS'functions'
p3237
aS'history'
p3238
asg9
S'Gerald M. Karam'
p3239
ssS'P248681'
p3240
(dp3241
g3
g262
sg9
S'Ron R. Hightower'
p3242
ssS'P78576'
p3243
(dp3244
g3
(lp3245
S'camera control'
p3246
aS'constrained navigation'
p3247
aS'navigation'
p3248
aS'viewing control'
p3249
asg9
S'Eric A. Wernert'
p3250
ssS'P367997'
p3251
(dp3252
g3
(lp3253
sg9
S'George Edward Pelham Box'
p3254
ssS'P145434'
p3255
(dp3256
g3
(lp3257
sg9
S'John K. Ousterhout'
p3258
ssS'P206639'
p3259
(dp3260
g3
(lp3261
S'libraries'
p3262
asg9
S'Nahum Gershon'
p3263
ssS'P298694'
p3264
(dp3265
g3
g3101
sg9
S'William Buxton'
p3266
ssS'P109538'
p3267
(dp3268
g3
(lp3269
S'visualization'
p3270
aS'curvature'
p3271
aS'transparent'
p3272
aS'algorithm'
p3273
asg9
S'Henry Fuchs'
p3274
ssS'P375644'
p3275
(dp3276
g3
g69
sg9
S'Ray Haynes'
p3277
ssS'P43568'
p3278
(dp3279
g3
(lp3280
S'content-based retrieval'
p3281
aS'image databases'
p3282
aS'image indexing'
p3283
aS'image metrics'
p3284
aS'query by content'
p3285
aS'query by example'
p3286
aS'similarity retrieval'
p3287
aS'sketch retrieval'
p3288
aS'wavelets'
p3289
asg9
S'Charles E. Jacobs'
p3290
ssS'P200466'
p3291
(dp3292
g3
g1087
sg9
S'Mike Fraser'
p3293
ssS'P268702'
p3294
(dp3295
g3
g3269
sg9
S'Stephen Pizer'
p3296
ssS'P474753'
p3297
(dp3298
g3
g1113
sg9
S'Leonid Ulitsky'
p3299
ssS'P306682'
p3300
(dp3301
g3
g2142
sg9
S'Yoshinori Hara'
p3302
ssS'P21240'
p3303
(dp3304
g3
(lp3305
S'data visualisation'
p3306
aS'direct manipulation'
p3307
aS'dynamic query'
p3308
aS'graphical user interfaces'
p3309
aS'interaction techniques'
p3310
aS'visual programming'
p3311
asg9
S'Aran Lunzer'
p3312
ssS'P75202'
p3313
(dp3314
g3
g566
sg9
S'Edward A. Fox'
p3315
ssS'P79076'
p3316
(dp3317
g3
(lp3318
S'visualization'
p3319
aS'molecular biology'
p3320
aS'protein'
p3321
aS'dna'
p3322
aS'sequence'
p3323
aS'similarity search'
p3324
asg9
S'Ernest Retzel'
p3325
ssS'P221678'
p3326
(dp3327
g3
g2155
sg9
S'Paul Kruszewski'
p3328
ssS'P244867'
p3329
(dp3330
g3
g566
sg9
S'Robert K. France'
p3331
ssS'P173601'
p3332
(dp3333
g3
g2124
sg9
S'Louis C. Vroomen'
p3334
ssS'P290421'
p3335
(dp3336
g3
(lp3337
S'query'
p3338
aS'lattice'
p3339
aS'aggregation'
p3340
aS'framework'
p3341
aS'queries'
p3342
aS'optimization'
p3343
aS'algorithm'
p3344
aS'algorithms'
p3345
asg9
S'Venky Harinarayan'
p3346
ssS'P278221'
p3347
(dp3348
g3
(lp3349
S'3d'
p3350
aS'algorithm'
p3351
aS'graphs'
p3352
aS'algorithms'
p3353
aS'navigation'
p3354
aS'interactive'
p3355
asg9
S'Tamara Munzner'
p3356
ssS'P573453'
p3357
(dp3358
g3
(lp3359
S'network'
p3360
aS'visualizing'
p3361
aS'focus'
p3362
asg9
S'Steven R. Corman'
p3363
ssS'P135155'
p3364
(dp3365
g3
(lp3366
S'concept learning'
p3367
aS'constructive induction'
p3368
aS'decision lists'
p3369
aS'decision rules'
p3370
aS'decision trees'
p3371
aS'diagrammatic visualization'
p3372
asg9
S'Janusz Wnek'
p3373
ssS'P573455'
p3374
(dp3375
g3
(lp3376
S'information retrieval'
p3377
aS'information visualization'
p3378
aS'knowledge management'
p3379
aS'text visualization'
p3380
aS'visualization'
p3381
asg9
S'Stuart J. Rose'
p3382
ssS'P69536'
p3383
(dp3384
g3
(lp3385
S'data acquisition'
p3386
aS'fisheye views'
p3387
aS'hierarchically clustered graphs'
p3388
aS'information visualization'
p3389
aS'supervisory control'
p3390
asg9
S'Doug Schaffer'
p3391
ssS'P294966'
p3392
(dp3393
g3
g455
sg9
S'W. B. Rouse'
p3394
ssS'P572919'
p3395
(dp3396
g3
g1675
sg9
S'A. Schur'
p3397
ssS'P643537'
p3398
(dp3399
g3
(lp3400
S'graphical data analysis methods'
p3401
aS'geographic information system'
p3402
aS'interactive data visualization'
p3403
aS'time series analysis'
p3404
asg9
S'John Michalak'
p3405
ssS'P643532'
p3406
(dp3407
g3
g552
sg9
S'J. Schwegler'
p3408
ssS'P98679'
p3409
(dp3410
g3
g627
sg9
S'Gonzalo Navarro'
p3411
ssS'P174793'
p3412
(dp3413
g3
g1366
sg9
S'Lynette Hirschman'
p3414
ssS'P573332'
p3415
(dp3416
g3
(lp3417
S'2d visualization tool'
p3418
aS'3d visualizations'
p3419
aS'3d web browsers'
p3420
aS'bead visualization system'
p3421
aS'ubs'
p3422
aS'data analysis'
p3423
aS'data types'
p3424
aS'data visualisation'
p3425
aS'financial institution'
p3426
aS'high-dimensional data layout'
p3427
aS'information visualization system'
p3428
aS'low-dimensional space'
p3429
aS'similarity metrics'
p3430
aS'spreadsheets'
p3431
asg9
S'P. Cotture'
p3432
ssS'P572910'
p3433
(dp3434
g3
(lp3435
S'internet'
p3436
aS'internet resource visualisation'
p3437
aS'world-wide web hyperspace'
p3438
aS'browsing'
p3439
aS'data visualisation'
p3440
aS'document linking'
p3441
aS'documents'
p3442
aS'hyperspace hierarchical structure'
p3443
aS'information analysis'
p3444
aS'information resource interaction'
p3445
aS'information retrieval'
p3446
aS'new information analysis'
p3447
aS'new information discovery'
p3448
aS'personal information hyperspace'
p3449
aS'retrieved documents'
p3450
aS'user-centric approach'
p3451
aS'visual representation'
p3452
asg9
S'A. Pernicks'
p3453
ssS'P252998'
p3454
(dp3455
g3
g1439
sg9
S'S. Dar'
p3456
ssS'P280281'
p3457
(dp3458
g3
g1640
sg9
S'Thomas Bemmerl'
p3459
ssS'P237355'
p3460
(dp3461
g3
(lp3462
S'graph drawing'
p3463
aS'animation'
p3464
aS'interaction'
p3465
asg9
S'Rachna Dhamija'
p3466
ssS'P202708'
p3467
(dp3468
g3
g1872
sg9
S'Monika B\xc3\xbcscher'
p3469
ssS'P398954'
p3470
(dp3471
g3
g2889
sg9
S'Isaac Brewer'
p3472
ssS'P58874'
p3473
(dp3474
g3
g846
sg9
S'Daniel Haug'
p3475
ssS'P196780'
p3476
(dp3477
g3
g2338
sg9
S'Michael L. Dertouzos'
p3478
ssS'P169789'
p3479
(dp3480
g3
(lp3481
sg9
S'Lawrence J. Rosenblum'
p3482
ssS'P120437'
p3483
(dp3484
g3
(lp3485
S'automatic generation'
p3486
aS'composition algebra'
p3487
aS'effectiveness'
p3488
aS'expressiveness'
p3489
aS'graphic design'
p3490
aS'information presentation'
p3491
aS'presentation tool'
p3492
aS'user interface adobe acrobat quicktime windows media player real player'
p3493
asg9
S'J. Bertin'
p3494
ssS'P286936'
p3495
(dp3496
g3
g1376
sg9
S'Usama M. Fayyad'
p3497
ssS'P549550'
p3498
(dp3499
g3
g2403
sg9
S'A. Varshney'
p3500
ssS'P209431'
p3501
(dp3502
g3
(lp3503
S'dataset'
p3504
aS'visualization'
p3505
aS'detail'
p3506
aS'trees'
p3507
aS'key'
p3508
aS'algorithms'
p3509
aS'distribution'
p3510
asg9
S'Nina Amenta'
p3511
ssS'P156277'
p3512
(dp3513
g3
g1872
sg9
S'Kaj Gr\xc3\xb8nb\xc3\xa6k'
p3514
ssS'P128972'
p3515
(dp3516
g3
(lp3517
S'graph theory'
p3518
aS'trees'
p3519
asg9
S'J. Q. Walker, II'
p3520
ssS'P29231'
p3521
(dp3522
g3
(lp3523
S'multi-dimensional geometry'
p3524
aS'parallel coordinates'
p3525
aS'statistical graphics'
p3526
aS'visualization'
p3527
asg9
S'Bernard Dimsdale'
p3528
ssS'P40574'
p3529
(dp3530
g3
g109
sg9
S'Can Keskin'
p3531
ssS'P117166'
p3532
(dp3533
g3
g1253
sg9
S'Isidore Rigoutsos'
p3534
ssS'P373292'
p3535
(dp3536
g3
g207
sg9
S'Mary M. Keller'
p3537
ssS'P573204'
p3538
(dp3539
g3
g2392
sg9
S'Julie Yang-Pel\xc3\xa1ez'
p3540
ssS'P63144'
p3541
(dp3542
g3
(lp3543
S'computing methodologies'
p3544
aS'computer graphics'
p3545
aS'three-dimensional graphics and realism'
p3546
aS'animation'
p3547
aS''
p3548
aS'computer systems organization'
p3549
aS'processor architectures'
p3550
aS'multiple data stream architectures (multiprocessors)'
p3551
aS'parallel processors'
p3552
aS'algorithms'
p3553
aS'theory'
p3554
asg9
S'David Notkin'
p3555
ssS'P573206'
p3556
(dp3557
g3
(lp3558
S'cartogram'
p3559
aS'algorithms'
p3560
asg9
S'J\xc3\xb6rn Schneidewind'
p3561
ssS'P149483'
p3562
(dp3563
g3
(lp3564
S'data visualization'
p3565
aS'visual programming'
p3566
asg9
S'Joseph L. Steffen'
p3567
ssS'P61269'
p3568
(dp3569
g3
g2533
sg9
S'David Dobkin'
p3570
ssS'P573202'
p3571
(dp3572
g3
(lp3573
S'multi-attributes visualization'
p3574
aS'no-aggregation'
p3575
aS'no-overlapping'
p3576
aS'pixel bar charts'
p3577
asg9
S'Julain Ladisch'
p3578
ssS'P999998'
p3579
(dp3580
g3
g1882
sg9
S'D. A. Carr'
p3581
ssS'P171045'
p3582
(dp3583
g3
(lp3584
S'clock synchronization'
p3585
aS'computer networks'
p3586
aS'distributed systems'
p3587
aS'multiprocess systems'
p3588
asg9
S'Leslie Lamport'
p3589
ssS'P573149'
p3590
(dp3591
g3
(lp3592
S'information visualization'
p3593
aS'physically-based systems'
p3594
aS'multidimensional information space'
p3595
aS'hierarchies'
p3596
aS'blobby clustering'
p3597
asg9
S'J. Finger'
p3598
ssS'P573027'
p3599
(dp3600
g3
g1675
sg9
S'D. Lantrip'
p3601
ssS'P573021'
p3602
(dp3603
g3
g1465
sg9
S'D. Hackborn'
p3604
ssS'P573143'
p3605
(dp3606
g3
g3435
sg9
S'J. Croall'
p3607
ssS'P573142'
p3608
(dp3609
g3
g3033
sg9
S'J. Carriere'
p3610
ssS'P54778'
p3611
(dp3612
g3
g533
sg9
S'D. Loisel'
p3613
ssS'P195684'
p3614
(dp3615
g3
g3573
sg9
S'Meichun Hsu'
p3616
ssS'P160215'
p3617
(dp3618
g3
(lp3619
S'visualization'
p3620
aS'2d'
p3621
aS'images'
p3622
aS'3d'
p3623
aS'communication'
p3624
aS'graphics'
p3625
asg9
S'Kenneth M. Martin'
p3626
ssS'P284947'
p3627
(dp3628
g3
(lp3629
S'selection'
p3630
aS'classifier'
p3631
aS'classification'
p3632
aS'size'
p3633
aS'algorithm'
p3634
asg9
S'Tova Avidan'
p3635
ssS'P62419'
p3636
(dp3637
g3
(lp3638
S'amulet'
p3639
aS'command objects'
p3640
aS'redo'
p3641
aS'toolkits'
p3642
aS'undo'
p3643
aS'user interface development environment'
p3644
asg9
S'David S. Kosbie'
p3645
ssS'P192966'
p3646
(dp3647
g3
g3543
sg9
S'Mary L. Bailey'
p3648
ssS'P457399'
p3649
(dp3650
g3
(lp3651
S'graphs'
p3652
asg9
S'Franz-Josef Brandenburg'
p3653
ssS'P194288'
p3654
(dp3655
g3
(lp3656
S'visualization'
p3657
aS'affine structure'
p3658
aS'metric structure'
p3659
aS'3d'
p3660
aS'virtual reality'
p3661
asg9
S'Mats Lind'
p3662
ssS'P11952'
p3663
(dp3664
g3
(lp3665
sg9
S'Al Globus'
p3666
ssS'P447167'
p3667
(dp3668
g3
(lp3669
S'visualization'
p3670
aS'techniques'
p3671
aS'presentation'
p3672
aS'object-oriented'
p3673
aS'multi-layer'
p3674
aS'structure'
p3675
aS'graphs'
p3676
asg9
S'Bruce Leban'
p3677
ssS'P66646'
p3678
(dp3679
g3
g2846
sg9
S'Diane Tang'
p3680
ssS'P147077'
p3681
(dp3682
g3
g884
sg9
S'Jon Zou'
p3683
ssS'P365119'
p3684
(dp3685
g3
g1028
sg9
S'Childrens Press'
p3686
ssS'P475072'
p3687
(dp3688
g3
(lp3689
S'fiedler vector'
p3690
aS'algebraic multigrid'
p3691
aS'force directed layout'
p3692
aS'generalized eigenvalue problem'
p3693
aS'graph drawing'
p3694
aS'multiscale/multilevel optimization'
p3695
aS'the hall energy'
p3696
asg9
S'Liran Carmel'
p3697
ssS'P62495'
p3698
(dp3699
g3
g1625
sg9
S'David Laidlaw'
p3700
ssS'P280182'
p3701
(dp3702
g3
g2868
sg9
S'Thom Grace'
p3703
ssS'P194778'
p3704
(dp3705
g3
(lp3706
Vquery
p3707
aVtools
p3708
aVorientation
p3709
aVpresentation
p3710
aVvisualization
p3711
aVsearch
p3712
aVinteraction
p3713
aVdatabase
p3714
aVbrowsing
p3715
aVvisualizations
p3716
aVnavigation
p3717
aVretrieval
p3718
asg9
S'Matthias Hemmje'
p3719
ssS'P120983'
p3720
(dp3721
g3
g297
sg9
S'J. Callahan'
p3722
ssS'P49314'
p3723
(dp3724
g3
g3003
sg9
S'Clemens Kunkel'
p3725
ssS'P76836'
p3726
(dp3727
g3
g3318
sg9
S'Elizabeth Shoop'
p3728
ssS'P78888'
p3729
(dp3730
g3
(lp3731
S'olap'
p3732
aS'relational databases'
p3733
asg9
S'Erik Thomsen'
p3734
ssS'P29735'
p3735
(dp3736
g3
g431
sg9
S'Bernice E. Rogowitz'
p3737
ssS'P56512'
p3738
(dp3739
g3
(lp3740
S'datasets'
p3741
aS'dataset'
p3742
aS'procedures'
p3743
aS'techniques'
p3744
aS'research'
p3745
aS'evaluation'
p3746
aS'classification'
p3747
aS'algorithms'
p3748
asg9
S'D. J. Spiegelhalter'
p3749
ssS'P307553'
p3750
(dp3751
g3
g1253
sg9
S'Yuan Gao'
p3752
ssS'P32208'
p3753
(dp3754
g3
g159
sg9
S'Brenda Laurel'
p3755
ssS'P250746'
p3756
(dp3757
g3
g2178
sg9
S'Ryan Baxter'
p3758
ssS'P250745'
p3759
(dp3760
g3
g545
sg9
S'Ryan S. Baker'
p3761
ssS'P339321'
p3762
(dp3763
g3
g3462
sg9
S'Ka-Ping Yee'
p3764
ssS'P207303'
p3765
(dp3766
g3
g884
sg9
S'Naphtali Rishe'
p3767
ssS'P177411'
p3768
(dp3769
g3
g1788
sg9
S'M. D. Brown'
p3770
ssS'P109656'
p3771
(dp3772
g3
g2575
sg9
S'Henry H. Rueter'
p3773
ssS'P29946'
p3774
(dp3775
g3
g4
sg9
S'Beth Hetzler'
p3776
ssS'P388072'
p3777
(dp3778
g3
g1807
sg9
S'Anders S. Krogh'
p3779
ssS'P226873'
p3780
(dp3781
g3
g3318
sg9
S'Phillip Barry'
p3782
ssS'P77049'
p3783
(dp3784
g3
(lp3785
S'computer-aided software engineering'
p3786
aS'design recovery'
p3787
aS'enhancement'
p3788
aS'existing systems'
p3789
aS'forward engineering'
p3790
aS'maintenance'
p3791
aS'nomenclature'
p3792
aS'redocumentation'
p3793
aS'reengineering'
p3794
aS'restructuring'
p3795
aS'reverse-engineering approaches'
p3796
aS'software engineering'
p3797
aS'taxonomy'
p3798
asg9
S'Elliot J. Chikofsky'
p3799
ssS'P141918'
p3800
(dp3801
g3
(lp3802
S'interaction techniques'
p3803
aS'user interfaces'
p3804
aS'viewpoint movement'
p3805
aS'object movement'
p3806
aS'virtual reality'
p3807
aS'interactive graphics'
p3808
aS'3d graphics'
p3809
aS'logarithmic motion'
p3810
aS'3d workspaces.'
p3811
asg9
S'Jock Mackinlay'
p3812
ssS'P300312'
p3813
(dp3814
g3
(lp3815
S'3d graphics'
p3816
aS'world wide web'
p3817
aS'information access'
p3818
aS'information workspace'
p3819
aS'user interfaces'
p3820
aS'workspace'
p3821
asg9
S'William York'
p3822
ssS'P2394'
p3823
(dp3824
g3
(lp3825
S'text'
p3826
aS'clustering'
p3827
aS'retrieval'
p3828
aS'databases'
p3829
asg9
S'A. Bookstein'
p3830
ssS'P190979'
p3831
(dp3832
g3
g3385
sg9
S'Mark Roseman'
p3833
ssS'P260891'
p3834
(dp3835
g3
g2448
sg9
S'Scott Henninger'
p3836
ssS'P187155'
p3837
(dp3838
g3
(lp3839
S'clustering'
p3840
aS'force-directed'
p3841
aS'visualization'
p3842
asg9
S'Mao Lin Huang'
p3843
ssS'P262246'
p3844
(dp3845
g3
g2921
sg9
S'Seth Widoff'
p3846
ssS'P49409'
p3847
(dp3848
g3
g2367
sg9
S'Clifford Beshers'
p3849
ssS'P269352'
p3850
(dp3851
g3
(lp3852
S'world wide web'
p3853
asg9
S'Steve Lawrence'
p3854
ssS'P208934'
p3855
(dp3856
g3
g1222
sg9
S'Nicole Yankelovich'
p3857
ssS'P95484'
p3858
(dp3859
g3
(lp3860
S'zui'
p3861
aS'authoring'
p3862
aS'design rationale'
p3863
aS'graphic editor'
p3864
aS'information visualization'
p3865
aS'multiscale interfaces'
p3866
aS'space scale diagram'
p3867
aS'zoom views'
p3868
asg9
S'George W. Furnas'
p3869
ssS'P132223'
p3870
(dp3871
g3
(lp3872
S'code'
p3873
aS'text'
p3874
aS'graphics'
p3875
aS'presentation'
p3876
aS'animation'
p3877
aS'2d'
p3878
aS'design'
p3879
aS'techniques'
p3880
aS'3d'
p3881
aS'modeling'
p3882
aS'interaction'
p3883
aS'spline'
p3884
aS'performance'
p3885
aS'algorithms'
p3886
asg9
S'James D. Foley'
p3887
ssS'P86676'
p3888
(dp3889
g3
(lp3890
S'overview'
p3891
aS'design'
p3892
aS'theory'
p3893
aS'research'
p3894
aS'framework'
p3895
aS'fuzzy'
p3896
aS'database'
p3897
aS'databases'
p3898
asg9
S'Fred Petry'
p3899
ssS'P254127'
p3900
(dp3901
g3
g610
sg9
S'S. Huang'
p3902
ssS'P308348'
p3903
(dp3904
g3
g361
sg9
S'Yuriko Takeshima'
p3905
ssS'P225001'
p3906
(dp3907
g3
g1587
sg9
S'Peter Pirolli'
p3908
ssS'P146109'
p3909
(dp3910
g3
(lp3911
S'algorithm animation'
p3912
aS'tango'
p3913
asg9
S'John Stasko'
p3914
ssS'P39001'
p3915
(dp3916
g3
g3740
sg9
S'C. C. Taylor'
p3917
ssS'P245284'
p3918
(dp3919
g3
(lp3920
S'user interfaces'
p3921
aS'specification techniques'
p3922
aS'specification language'
p3923
aS'human factors'
p3924
aS'direct manipulation'
p3925
aS'state transition diagram'
p3926
aS'user-interface management system (uims)'
p3927
asg9
S'Robert J. K. Jacob'
p3928
ssS'P168847'
p3929
(dp3930
g3
g1480
sg9
S'Lars Erik Holmquist'
p3931
ssS'P643781'
p3932
(dp3933
g3
g2868
sg9
S'Bao Gia Nguyen'
p3934
ssS'P306536'
p3935
(dp3936
g3
g788
sg9
S'Yoshihiko Ichikawa'
p3937
ssS'P515109'
p3938
(dp3939
g3
g2696
sg9
S'Helmut Doleisch'
p3940
ssS'P282032'
p3941
(dp3942
g3
(lp3943
S'clustering'
p3944
aS'datasets'
p3945
aS'performance'
p3946
aS'algorithm'
p3947
aS'database'
p3948
aS'order'
p3949
asg9
S'Tian Zhang'
p3950
ssS'P87379'
p3951
(dp3952
g3
g2142
sg9
S'Fusako Hirabayashi'
p3953
ssS'P177594'
p3954
(dp3955
g3
(lp3956
S'data compression'
p3957
aS'data visualisation'
p3958
aS'three-dimensional displays'
p3959
aS'3d distortion viewing'
p3960
aS'3d information display'
p3961
aS'3d information layouts'
p3962
aS'3d visual access tool'
p3963
aS'detail-in-context views'
p3964
aS'fisheye views'
p3965
aS'global relationships'
p3966
aS'graphs'
p3967
aS'image compression'
p3968
aS'information layout adjustment tools'
p3969
aS'line of sight'
p3970
aS'local details'
p3971
aS'magnification'
p3972
aS'multiscale views'
p3973
aS'occlusion'
p3974
aS'region of interest'
p3975
aS'visual exploration techniques'
p3976
aS'visual pattern recognition'
p3977
asg9
S'M. Sheelagh T. Carpendale'
p3978
ssS'P19124'
p3979
(dp3980
g3
g2203
sg9
S'Anil Nair'
p3981
ssS'P43353'
p3982
(dp3983
g3
(lp3984
S'complex information processing'
p3985
aS'data display'
p3986
aS'data objects'
p3987
aS'data visualization'
p3988
aS'lattice isomorphisms'
p3989
aS'lattice model'
p3990
asg9
S'Charles R. Dyer'
p3991
ssS'P48043'
p3992
(dp3993
g3
g1022
sg9
S'Christos Faloutsos'
p3994
ssS'P161036'
p3995
(dp3996
g3
g863
sg9
S'Kevin Larson'
p3997
ssS'P358220'
p3998
(dp3999
g3
(lp4000
S'tables'
p4001
asg9
S'Robert L. Harris'
p4002
ssS'P196601'
p4003
(dp4004
g3
g1534
sg9
S'Michael Chen'
p4005
ssS'P117016'
p4006
(dp4007
g3
g3122
sg9
S'Isabel F. Cruz'
p4008
ssS'P302504'
p4009
(dp4010
g3
(lp4011
S'computational geometry'
p4012
aS'automatic graph drawing'
p4013
aS'hierarchical graph'
p4014
aS'clustered graph'
p4015
aS'straight-line drawing'
p4016
asg9
S'Xuemin Lin'
p4017
ssS'P248405'
p4018
(dp4019
g3
g1894
sg9
S'Rolf Koch'
p4020
ssS'P643590'
p4021
(dp4022
g3
(lp4023
S'higher dimensional data sets'
p4024
aS'pattern discovery'
p4025
asg9
S'Jeff Beddow'
p4026
ssS'P327405'
p4027
(dp4028
g3
(lp4029
S'graph drawing'
p4030
asg9
S'J\xc3\xbcrgen Branke'
p4031
ssS'P547430'
p4032
(dp4033
g3
g1862
sg9
S'Dwayne Westenskow'
p4034
ssS'P398046'
p4035
(dp4036
g3
g3573
sg9
S'Ming Hao'
p4037
ssS'P20682'
p4038
(dp4039
g3
(lp4040
S'visualization'
p4041
aS'clustering'
p4042
aS'documents'
p4043
aS'search'
p4044
aS'queries'
p4045
aS'overview'
p4046
aS'retrieval'
p4047
asg9
S'Anton Leuski'
p4048
ssS'P138064'
p4049
(dp4050
g3
g3337
sg9
S'Jeffrey D. Ullman'
p4051
ssS'P75487'
p4052
(dp4053
g3
(lp4054
S'techniques'
p4055
aS'magnification'
p4056
aS'representation'
p4057
asg9
S'Edward L. Robertson'
p4058
ssS'P183788'
p4059
(dp4060
g3
(lp4061
S'3d information presentation'
p4062
aS'3d interaction'
p4063
aS'context views'
p4064
aS'detail'
p4065
aS'distortion viewing techniques'
p4066
aS'focus'
p4067
aS'information visualization'
p4068
aS'internal access'
p4069
aS'internal data regions'
p4070
aS'line of sight'
p4071
aS'screen layout'
p4072
aS'smooth integration'
p4073
aS'symmetric distortion function'
p4074
aS'three-dimensional displays'
p4075
aS'user interface design'
p4076
aS'user interface metaphors'
p4077
asg9
S'M. Sheelagh'
p4078
ssS'P243325'
p4079
(dp4080
g3
(lp4081
S'hierarchy'
p4082
aS'design'
p4083
aS'algorithms'
p4084
aS'hierarchies'
p4085
asg9
S'Richard M. Wilson'
p4086
ssS'P76526'
p4087
(dp4088
g3
g1319
sg9
S'Eliot Solomon'
p4089
ssS'P46510'
p4090
(dp4091
g3
g1427
sg9
S'Christian Beilken'
p4092
ssS'P279080'
p4093
(dp4094
g3
g2491
sg9
S'Teresa Mah'
p4095
ssS'P96173'
p4096
(dp4097
g3
g2591
sg9
S'Georges Grinstein'
p4098
ssS'P68610'
p4099
(dp4100
g3
g3740
sg9
S'Donald Michie'
p4101
ssS'P550814'
p4102
(dp4103
g3
g1548
sg9
S'J. M. Hellerstein'
p4104
ssS'P299898'
p4105
(dp4106
g3
g3261
sg9
S'William Ruh'
p4107
ssS'P317210'
p4108
(dp4109
g3
g627
sg9
S'Jos\xc3\xa9 L. Marroqu\xc3\xadn'
p4110
ssS'P133367'
p4111
(dp4112
g3
g2868
sg9
S'James Roberg\xc3\xa9'
p4113
ssS'P281425'
p4114
(dp4115
g3
g2301
sg9
S'Thomas Porter'
p4116
ssS'P241617'
p4117
(dp4118
g3
(lp4119
sg9
S'Richard Chimera'
p4120
ssS'P131909'
p4121
(dp4122
g3
(lp4123
S'geometric models'
p4124
aS'hidden surface algorithms'
p4125
aS'hierarchical data structures'
p4126
aS'visible surface algorithms'
p4127
asg9
S'James H. Clark'
p4128
ssS'P48629'
p4129
(dp4130
g3
g2705
sg9
S'Cimarron Taylor'
p4131
ssS'P170419'
p4132
(dp4133
g3
g2262
sg9
S'Lennart E. Fahl\xc3\xa9n'
p4134
ssS'P131535'
p4135
(dp4136
g3
(lp4137
S'external memory'
p4138
aS'visualization'
p4139
aS'massive data sets'
p4140
aS'graphs'
p4141
aS'hierarchies.'
p4142
asg9
S'James Abello'
p4143
ssS'P193037'
p4144
(dp4145
g3
g863
sg9
S'Mary Czerwinski'
p4146
ssS'P60509'
p4147
(dp4148
g3
g2203
sg9
S'David Banks'
p4149
ssS'P17277'
p4150
(dp4151
g3
g759
sg9
S'Andreas Buja'
p4152
ssS'P248713'
p4153
(dp4154
g3
(lp4155
S'learning'
p4156
aS'tables'
p4157
aS'label'
p4158
aS'algorithms'
p4159
aS'dataset'
p4160
aS'performance'
p4161
aS'datasets'
p4162
aS'algorithm'
p4163
asg9
S'Ron Kohavi'
p4164
ssS'P267773'
p4165
(dp4166
g3
g598
sg9
S'Stephan Kerpedjiev'
p4167
ssS'P552775'
p4168
(dp4169
g3
g1910
sg9
S'Theo Van Walsum'
p4170
ssS'P261265'
p4171
(dp4172
g3
g1812
sg9
S'Scott N. Woodfield'
p4173
ssS'P60506'
p4174
(dp4175
g3
(lp4176
S'computer animation'
p4177
aS'data visualisation'
p4178
aS'interactive systems'
p4179
aS'scheduling'
p4180
aS'sport'
p4181
aS'tree data structures'
p4182
aS'user interfaces'
p4183
aS'2d display'
p4184
aS'magiclens filters'
p4185
aS'tennisviewer'
p4186
aS'tree-maps'
p4187
aS'visual scheduler system'
p4188
aS'animation'
p4189
aS'browser'
p4190
aS'competition trees'
p4191
aS'data analysis'
p4192
aS'group meetings'
p4193
aS'interactive system'
p4194
aS'tennis match'
p4195
aS'time-varying display'
p4196
aS'tree data structure'
p4197
aS'user interface'
p4198
aS'visualization tool'
p4199
asg9
S'David C. Banks'
p4200
ssS'P453201'
p4201
(dp4202
g3
g3067
sg9
S'Doanna Meads'
p4203
ssS'P277957'
p4204
(dp4205
g3
g685
sg9
S'Takeo Igarashi'
p4206
ssS'P299801'
p4207
(dp4208
g3
g3114
sg9
S'William H. Press'
p4209
ssS'P279588'
p4210
(dp4211
g3
(lp4212
S'visualization'
p4213
aS'distribution'
p4214
asg9
S'Teuvo Kohonen'
p4215
ssS'P243148'
p4216
(dp4217
g3
g3227
sg9
S'Richard C. Thomas'
p4218
ssS'P181416'
p4219
(dp4220
g3
g985
sg9
S'M. Manyin'
p4221
ssS'P573488'
p4222
(dp4223
g3
(lp4224
S'visualization'
p4225
aS'analysis'
p4226
asg9
S'Ted Tanasse'
p4227
ssS'P425218'
p4228
(dp4229
g3
g3785
sg9
S'James H. Cross II'
p4230
ssS'P573062'
p4231
(dp4232
g3
(lp4233
S'cluster analysis'
p4234
aS'information visualization'
p4235
aS'time series data'
p4236
asg9
S'Edward R. Van Selow'
p4237
ssS'P371337'
p4238
(dp4239
g3
g305
sg9
S'Kan Pimentel'
p4240
ssS'P573068'
p4241
(dp4242
g3
g771
sg9
S'Ernst Kleiberg'
p4243
ssS'P573340'
p4244
(dp4245
g3
(lp4246
S'automatic display layout'
p4247
aS'automatic layout system'
p4248
aS'computer animation'
p4249
aS'display layouts'
p4250
aS'graph structured information'
p4251
aS'graphical representations'
p4252
aS'graphical user interfaces'
p4253
aS'human factors'
p4254
aS'information browsing'
p4255
aS'information network'
p4256
aS'information retrieval'
p4257
aS'layout algorithms'
p4258
aS'manual layout'
p4259
aS'time consuming'
p4260
aS'user model'
p4261
aS'user modelling'
p4262
aS'user requests'
p4263
asg9
S'P. Luders'
p4264
ssS'P144637'
p4265
(dp4266
g3
(lp4267
S'data analysis'
p4268
aS'data visualisation'
p4269
aS'report generators'
p4270
aS'visage'
p4271
aS'consistent interface'
p4272
aS'data manipulation primitives'
p4273
aS'data visualization primitives'
p4274
aS'expert users'
p4275
aS'exploratory data analysis'
p4276
aS'information analysis workspace'
p4277
aS'information appliances'
p4278
aS'occasional users'
p4279
aS'routine information reporting'
p4280
aS'special-purpose applications'
p4281
aS'tools'
p4282
asg9
S'John Kolojejchick'
p4283
ssS'P89146'
p4284
(dp4285
g3
g1007
sg9
S'G. Chen'
p4286
ssS'P572942'
p4287
(dp4288
g3
(lp4289
S'cartographic generalization'
p4290
aS'cartography'
p4291
aS'feature labeling'
p4292
aS'information visualization'
p4293
aS'maps'
p4294
asg9
S'Andr\xc3\xa9 Skupin'
p4295
ssS'P573346'
p4296
(dp4297
g3
g218
sg9
S'P. J. Stroffolino'
p4298
ssS'P44212'
p4299
(dp4300
g3
g1268
sg9
S'Charlie McDowell'
p4301
ssS'P42125'
p4302
(dp4303
g3
(lp4304
S'direct manipulation'
p4305
aS'dynamic query'
p4306
aS'information system'
p4307
aS'network'
p4308
aS'preview bar'
p4309
aS'query preview'
p4310
aS'science data'
p4311
aS'volume preview'
p4312
aS'user interface'
p4313
asg9
S'Catherine Plaisant'
p4314
ssS'P196981'
p4315
(dp4316
g3
(lp4317
S'superscalar processors'
p4318
aS'dynamic scheduling'
p4319
aS'mxs'
p4320
asg9
S'Michael J. Flynn'
p4321
ssS'P74902'
p4322
(dp4323
g3
(lp4324
sg9
S'Eduard Hovy'
p4325
ssS'P162366'
p4326
(dp4327
g3
g2837
sg9
S'Klaus Reichenberger'
p4328
ssS'P65707'
p4329
(dp4330
g3
g1499
sg9
S'Dennis Gannon'
p4331
ssS'P34285'
p4332
(dp4333
g3
g321
sg9
S'Byron Dom'
p4334
ssS'P173344'
p4335
(dp4336
g3
(lp4337
S"editor's workbench"
p4338
aS'hypermedia reference work'
p4339
aS'knowledge-based system'
p4340
aS'object-oriented data modelling'
p4341
asg9
S'Lothar Rostek'
p4342
ssS'P270747'
p4343
(dp4344
g3
g1634
sg9
S'Stuart Pook'
p4345
ssS'P246434'
p4346
(dp4347
g3
g3175
sg9
S'Robert E. Sheehan'
p4348
ssS'P343763'
p4349
(dp4350
g3
(lp4351
S'3d graphics'
p4352
aS'vrml'
p4353
aS'xml'
p4354
aS'hierarchy'
p4355
aS'interactive tree'
p4356
aS'sitemap'
p4357
aS'visualization'
p4358
aS'web navigation'
p4359
asg9
S'Raimund Dachselt'
p4360
ssS'P316942'
p4361
(dp4362
g3
(lp4363
S'annotation'
p4364
aS'glyphs'
p4365
aS'procedural generation'
p4366
aS'uncertainty visualization'
p4367
asg9
S'Andrej Cedilnik'
p4368
ssS'P267504'
p4369
(dp4370
g3
g69
sg9
S'Stefan Zeiger'
p4371
ssS'P271174'
p4372
(dp4373
g3
g287
sg9
S'Suguru Ishizaki'
p4374
ssS'P572890'
p4375
(dp4376
g3
(lp4377
S'hyperslice representation'
p4378
aS'data resolution'
p4379
aS'data visualisation'
p4380
aS'logical display resolution'
p4381
aS'multiresolution visualization design'
p4382
aS'multivariate data visualization'
p4383
aS'space projection'
p4384
aS'system prototype'
p4385
aS'very large data visualization'
p4386
aS'wavelets'
p4387
asg9
S'A. H. Crabb'
p4388
ssS'P191919'
p4389
(dp4390
g3
(lp4391
S'hierarchy'
p4392
aS'text'
p4393
aS'query'
p4394
aS'animation'
p4395
aS'hierarchies'
p4396
aS'3d'
p4397
aS'queries'
p4398
aS'key'
p4399
aS'search'
p4400
aS'medical'
p4401
aS'workspace'
p4402
aS'browsing'
p4403
asg9
S'Marti Hearst'
p4404
ssS'P143674'
p4405
(dp4406
g3
(lp4407
S'vrml2'
p4408
aS'first-class user interface'
p4409
aS'immersive browser'
p4410
aS'navigation techniques'
p4411
aS'user interface metaphors'
p4412
asg9
S'John D. M. Edwards'
p4413
ssS'P390003'
p4414
(dp4415
g3
g3253
sg9
S'Gwilym Jenkins'
p4416
ssS'P144936'
p4417
(dp4418
g3
(lp4419
S'animation'
p4420
aS'automatic layout'
p4421
aS'direct manipulation'
p4422
aS'directness'
p4423
aS'live editing'
p4424
aS'liveness'
p4425
aS'structural reification'
p4426
aS'user interface construction'
p4427
aS'user interface frameworks'
p4428
asg9
S'John H. Maloney'
p4429
ssS'P395282'
p4430
(dp4431
g3
g895
sg9
S'E. Hoffman'
p4432
ssS'P309831'
p4433
(dp4434
g3
g3385
sg9
S'Zhengping Zuo'
p4435
ssS'P77285'
p4436
(dp4437
g3
g13
sg9
S'Emden R. Gansner'
p4438
ssS'P250840'
p4439
(dp4440
g3
g3366
sg9
S'Ryszard S. Michalski'
p4441
ssS'P141428'
p4442
(dp4443
g3
g171
sg9
S'Joachim M. Buhmann'
p4444
ssS'P203609'
p4445
(dp4446
g3
g2203
sg9
S'Murugappan Palaniappan'
p4447
ssS'P16174'
p4448
(dp4449
g3
g2600
sg9
S'Amjad Daoud'
p4450
ssS'P194797'
p4451
(dp4452
g3
g670
sg9
S'Matthias Kreuseler'
p4453
ssS'P140403'
p4454
(dp4455
g3
g262
sg9
S'Jim Hollan'
p4456
ssS'P198765'
p4457
(dp4458
g3
g2000
sg9
S'Michael F. Schwartz'
p4459
ssS'P143200'
p4460
(dp4461
g3
g3318
sg9
S'John V. Carlis'
p4462
ssS'P573119'
p4463
(dp4464
g3
(lp4465
S'realeyes'
p4466
aS'vr-capable interviews'
p4467
aS'vrmosaic'
p4468
aS'web access'
p4469
aS'computer displays'
p4470
aS'data visualisation'
p4471
aS'detailed geometry display'
p4472
aS'first person perspective'
p4473
aS'flat screen mosaic'
p4474
aS'frame rates'
p4475
aS'fully immersive vr system'
p4476
aS'information networks'
p4477
aS'large-scale geometry display'
p4478
aS'nongeometric data'
p4479
aS'nongeometric information'
p4480
aS'virtual environment'
p4481
aS'virtual reality'
p4482
asg9
S'H. A. Sowizral'
p4483
ssS'P225590'
p4484
(dp4485
g3
g2705
sg9
S'Peter Wisnovsky'
p4486
ssS'P213763'
p4487
(dp4488
g3
g855
sg9
S'P. Balasubramanian'
p4489
ssS'P208157'
p4490
(dp4491
g3
g1978
sg9
S'Nelson Max'
p4492
ssS'P64168'
p4493
(dp4494
g3
(lp4495
S'computer animation'
p4496
aS'data visualization'
p4497
aS'tree data structures'
p4498
aS'trees'
p4499
aS'hierarchy display'
p4500
aS'small multiple displays'
p4501
asg9
S'David Turo'
p4502
ssS'P268092'
p4503
(dp4504
g3
(lp4505
S'automated design'
p4506
aS'graphic design'
p4507
aS'graphic user interface'
p4508
aS'task analysis'
p4509
aS'visual languages'
p4510
asg9
S'Stephen M. Casner'
p4511
ssS'P77081'
p4512
(dp4513
g3
g1262
sg9
S'Elliot Soloway'
p4514
ssS'P425537'
p4515
(dp4516
g3
(lp4517
S'computer graphics'
p4518
aS'data structure'
p4519
aS'delete'
p4520
aS'dynamic trees'
p4521
aS'explicit representation'
p4522
aS'geometric algorithm'
p4523
aS'graphical user interfaces'
p4524
aS'insert'
p4525
aS'node contours'
p4526
aS'polygonal shape'
p4527
aS'subtree contours'
p4528
aS'subtrees'
p4529
aS'tree-drawing algorithm'
p4530
aS'trees (mathematics)'
p4531
aS'user interfaces adobe acrobat quicktime windows media player real player'
p4532
asg9
S'Sven Moen'
p4533
ssS'P135241'
p4534
(dp4535
g3
(lp4536
S'size'
p4537
aS'visualization'
p4538
aS'dimensions'
p4539
aS'treemaps'
p4540
aS'structure'
p4541
aS'treemap'
p4542
asg9
S'Jarke J. van Wijk'
p4543
ssS'P276857'
p4544
(dp4545
g3
g1703
sg9
S'T. B. Walters'
p4546
ssS'P291541'
p4547
(dp4548
g3
(lp4549
S'performance'
p4550
aS'trees'
p4551
aS'search'
p4552
aS'distribution'
p4553
asg9
S'Vinit Jain'
p4554
ssS'P132751'
p4555
(dp4556
g3
g1292
sg9
S'James M. Kukla'
p4557
ssS'P14716'
p4558
(dp4559
g3
g3523
sg9
S'Alfred Inselberg'
p4560
ssS'P246447'
p4561
(dp4562
g3
(lp4563
S'mosaic'
p4564
aS'world-wide web'
p4565
aS'information navigation'
p4566
aS'interaction techniques'
p4567
aS'interactive user interfaces'
p4568
asg9
S'Robert A. Shillner'
p4569
ssS'P192201'
p4570
(dp4571
g3
g1335
sg9
S'Martin Graham'
p4572
ssS'P272369'
p4573
(dp4574
g3
(lp4575
S'pad++'
p4576
aS'ztracker'
p4577
aS'browsing'
p4578
aS'critical zone analysis'
p4579
aS'critical zones'
p4580
aS'information navigation'
p4581
aS'multiscale'
p4582
aS'navigation'
p4583
aS'residue'
p4584
aS'space-scale diagrams'
p4585
aS'view-based navigational aids'
p4586
aS'view-navigation'
p4587
asg9
S'Susanne Jul'
p4588
ssS'P197441'
p4589
(dp4590
g3
g1826
sg9
S'Michael E. Houle'
p4591
ssS'P160714'
p4592
(dp4593
g3
g1565
sg9
S'Kerry Rodden'
p4594
ssS'P138882'
p4595
(dp4596
g3
g1841
sg9
S'Jerome H. Friedman'
p4597
ssS'P178140'
p4598
(dp4599
g3
g2288
sg9
S'M. Delest'
p4600
ssS'P60727'
p4601
(dp4602
g3
g1087
sg9
S'David Brailsford'
p4603
ssS'P527299'
p4604
(dp4605
g3
g1491
sg9
S'Wolfgang M\xc3\xbcller'
p4606
ssS'P361128'
p4607
(dp4608
g3
g3669
sg9
S'Tova Roth'
p4609
ssS'P204628'
p4610
(dp4611
g3
g2811
sg9
S'N. S. Drew'
p4612
ssS'P573188'
p4613
(dp4614
g3
(lp4615
S'information visualization'
p4616
aS'user interface'
p4617
aS'world wide web'
p4618
asg9
S'Jeffrey Senn'
p4619
ssS'P573187'
p4620
(dp4621
g3
g3503
sg9
S'Jeff Klingner'
p4622
ssS'P270779'
p4623
(dp4624
g3
g2960
sg9
S'Stuart Shieber'
p4625
ssS'P394247'
p4626
(dp4627
g3
g2029
sg9
S'William C. Cleveland'
p4628
ssS'P151647'
p4629
(dp4630
g3
(lp4631
S'document retrieval'
p4632
aS'empirical study'
p4633
aS'reliability'
p4634
asg9
S'Justin Zobel'
p4635
ssS'P80040'
p4636
(dp4637
g3
(lp4638
S'e-commerce'
p4639
aS'electronic catalogs'
p4640
aS'human-computer interaction'
p4641
aS'usability evaluation'
p4642
aS'user interfaces'
p4643
asg9
S'Ewa Callahan'
p4644
ssS'P573181'
p4645
(dp4646
g3
(lp4647
S'data visualization'
p4648
aS'information visualization'
p4649
aS'aggregation'
p4650
aS'zoom'
p4651
aS'cartography'
p4652
asg9
S'James K. Rayson'
p4653
ssS'P573180'
p4654
(dp4655
g3
(lp4656
S'database'
p4657
aS'dynamic query'
p4658
aS'probabilistic algorithms'
p4659
asg9
S'James Harrison'
p4660
ssS'P125936'
p4661
(dp4662
g3
g1007
sg9
S'J. Myllymaki'
p4663
ssS'P267385'
p4664
(dp4665
g3
g512
sg9
S'Stefan N\xc3\xa4her'
p4666
ssS'P146794'
p4667
(dp4668
g3
g2253
sg9
S'Jolly Chen'
p4669
ssS'P302036'
p4670
(dp4671
g3
g3860
sg9
S'Xiaolong Zhang'
p4672
ssS'P28355'
p4673
(dp4674
g3
g2036
sg9
S'Bastiaan Sch\xc3\xb6nhage'
p4675
ssS'P141720'
p4676
(dp4677
g3
g574
sg9
S'Joanna Vasilakis'
p4678
ssS'P137780'
p4679
(dp4680
g3
g1656
sg9
S'Jeffrey Joyce'
p4681
ssS'P41698'
p4682
(dp4683
g3
g2705
sg9
S'Caroline Paxson'
p4684
ssS'P223212'
p4685
(dp4686
g3
g4363
sg9
S'Penny Rheingans'
p4687
ssS'P31332'
p4688
(dp4689
g3
g1244
sg9
S'Bob Spence'
p4690
ssS'P244239'
p4691
(dp4692
g3
(lp4693
S'computer systems visualization'
p4694
aS'superscalar processors'
p4695
aS'visualization systems'
p4696
asg9
S'Robert Bosch'
p4697
ssS'P297313'
p4698
(dp4699
g3
(lp4700
S'similarity'
p4701
aS'searching'
p4702
aS'network'
p4703
aS'search'
p4704
aS'browsing'
p4705
aS'learning'
p4706
aS'clustering'
p4707
aS'performance'
p4708
aS'indexing'
p4709
aS'algorithm'
p4710
aS'retrieval'
p4711
asg9
S'Wei-Ying Ma'
p4712
ssS'P66171'
p4713
(dp4714
g3
g2380
sg9
S'Derick Wood'
p4715
ssS'P299195'
p4716
(dp4717
g3
g618
sg9
S'William C. Hill'
p4718
ssS'P222852'
p4719
(dp4720
g3
(lp4721
S'interactive information visualization'
p4722
aS'combinatorial search'
p4723
aS'configuration design'
p4724
aS'human-computer collaboration'
p4725
asg9
S'Pearl Pu'
p4726
ssS'P299190'
p4727
(dp4728
g3
g3984
sg9
S'William L. Hibbard'
p4729
ssS'P191151'
p4730
(dp4731
g3
g2086
sg9
S'Mark J. Stefik'
p4732
ssS'P221082'
p4733
(dp4734
g3
(lp4735
S'visualization'
p4736
aS'information retrieval'
p4737
aS'particle systems'
p4738
aS'n-body problem'
p4739
asg9
S'Paul Chitson'
p4740
ssS'P132154'
p4741
(dp4742
g3
g2237
sg9
S'James T. Enns'
p4743
ssS'P163821'
p4744
(dp4745
g3
g512
sg9
S'Kurt Mehlhorn'
p4746
ssS'P422121'
p4747
(dp4748
g3
g3481
sg9
S'Bruce E. Brown'
p4749
ssS'P54023'
p4750
(dp4751
g3
g297
sg9
S'D. Hopkins'
p4752
ssS'P30329'
p4753
(dp4754
g3
(lp4755
S'fortran'
p4756
aS'pcf fortran'
p4757
aS'interactive toolkit'
p4758
aS'multiprocessors'
p4759
aS'parallel programming'
p4760
aS'parallel-programming toolkit'
p4761
aS'parallelization'
p4762
aS'sequential fortran code'
p4763
aS'software tools'
p4764
asg9
S'Bill Appelbe'
p4765
ssS'P190884'
p4766
(dp4767
g3
g2635
sg9
S'Mark Phillips'
p4768
ssS'P48006'
p4769
(dp4770
g3
(lp4771
S'visualization'
p4772
aS'search'
p4773
aS'queries'
p4774
asg9
S'Christopher Williamson'
p4775
ssS'P13806'
p4776
(dp4777
g3
g3175
sg9
S'Alex Pang'
p4778
ssS'P529470'
p4779
(dp4780
g3
g4351
sg9
S'J\xc3\xbcrgen Ebert'
p4781
ssS'P421159'
p4782
(dp4783
g3
g1910
sg9
S'Frank J. Post'
p4784
ssS'P161205'
p4785
(dp4786
g3
g4755
sg9
S'Kevin Smith'
p4787
ssS'P33048'
p4788
(dp4789
g3
g1656
sg9
S'Brian Unger'
p4790
ssS'P231954'
p4791
(dp4792
g3
g4246
sg9
S'R. Ernst'
p4793
ssS'P160814'
p4794
(dp4795
g3
g2575
sg9
S'Kevin Biolsi'
p4796
ssS'P485738'
p4797
(dp4798
g3
g732
sg9
S'Patrick Madden'
p4799
ssS'P197164'
p4800
(dp4801
g3
g413
sg9
S'Michael T. Goodrich'
p4802
ssS'P643616'
p4803
(dp4804
g3
g1191
sg9
S'Todd C. Plessel'
p4805
ssS'P197160'
p4806
(dp4807
g3
(lp4808
S'empirical study'
p4809
aS'user study'
p4810
asg9
S'Michael Good'
p4811
ssS'P68493'
p4812
(dp4813
g3
(lp4814
S'anamorphosis'
p4815
aS'cartogram'
p4816
aS'constrained optimization'
p4817
aS'map transformation'
p4818
aS'thematic cartography'
p4819
aS'value-by-area map'
p4820
asg9
S'Donald H. House'
p4821
ssS'P69495'
p4822
(dp4823
g3
g3669
sg9
S'Doug Kimelman'
p4824
ssS'P187249'
p4825
(dp4826
g3
(lp4827
S'n-gram analysis'
p4828
aS'pattern matching'
p4829
aS'plagiarism'
p4830
aS'visualization'
p4831
asg9
S'Marc Abrams'
p4832
ssS'P86287'
p4833
(dp4834
g3
(lp4835
S'hypermedia'
p4836
asg9
S'Frank,G. Halasz'
p4837
ssS'P10635'
p4838
(dp4839
g3
g3280
sg9
S'Adam Finkelstein'
p4840
ssS'P378107'
p4841
(dp4842
g3
(lp4843
S'occlusion'
p4844
aS'geometry'
p4845
aS'camera'
p4846
aS'algorithm'
p4847
aS'algorithms'
p4848
asg9
S'T. Shiota'
p4849
ssS'P372655'
p4850
(dp4851
g3
g4843
sg9
S'M. Nitzberg'
p4852
ssS'P206996'
p4853
(dp4854
g3
g45
sg9
S'Nancy Miller'
p4855
ssS'P475248'
p4856
(dp4857
g3
g4
sg9
S'Lou Martucci'
p4858
ssS'P199512'
p4859
(dp4860
g3
(lp4861
S'exploratory data analysis'
p4862
aS'hypermedia'
p4863
aS'multimedia'
p4864
aS'protocol analysis'
p4865
aS'stream algebra'
p4866
aS'streams'
p4867
aS'video'
p4868
asg9
S'Michel Beaudouin-Lafon'
p4869
ssS'P65079'
p4870
(dp4871
g3
g1910
sg9
S'Deborah Silver'
p4872
ssS'P18196'
p4873
(dp4874
g3
g4656
sg9
S'Andrew Moore'
p4875
ssS'P47461'
p4876
(dp4877
g3
(lp4878
S'information retrieval'
p4879
aS'dynamic queries'
p4880
aS'video-on-demand'
p4881
asg9
S'Christopher Ahlberg'
p4882
ssS'P328169'
p4883
(dp4884
g3
g545
sg9
S'Mark Handy'
p4885
ssS'P170457'
p4886
(dp4887
g3
g566
sg9
S'Lenwood S. Heath'
p4888
ssS'P20012'
p4889
(dp4890
g3
(lp4891
S'interfaces to databases'
p4892
aS'visualizing geographical data'
p4893
aS'visualizing large data sets'
p4894
aS'visualizing spatially referenced data'
p4895
asg9
S'Annemarie Herrmann'
p4896
ssS'P303426'
p4897
(dp4898
g3
g1415
sg9
S'Y. K. Leung'
p4899
ssS'P573528'
p4900
(dp4901
g3
(lp4902
S'visualization'
p4903
aS'techniques'
p4904
aS'text'
p4905
aS'datasets'
p4906
asg9
S'Wendy Cowley'
p4907
ssS'P284281'
p4908
(dp4909
g3
(lp4910
S'button'
p4911
aS'control panel'
p4912
aS'lens'
p4913
aS'macro'
p4914
aS'menu'
p4915
aS'multi-hand'
p4916
aS'transparent'
p4917
aS'viewing filter'
p4918
asg9
S'Tony D. DeRose'
p4919
ssS'P223328'
p4920
(dp4921
g3
g929
sg9
S'Per-Kristian Halvorsen'
p4922
ssS'P573524'
p4923
(dp4924
g3
(lp4925
S'3d computer graphics'
p4926
aS'capital markets'
p4927
aS'computer animation'
p4928
aS'data visualisation'
p4929
aS'decision support systems'
p4930
aS'decision-support tool'
p4931
aS'equity trading analytics'
p4932
aS'financial data processing'
p4933
aS'fixed income trading analytics'
p4934
aS'fixed-income risk viewing'
p4935
aS'information animation applications'
p4936
aS'risk management'
p4937
aS'securities industry'
p4938
aS'securities market'
p4939
aS'securities trading'
p4940
aS'three dimensional computer graphics'
p4941
aS'visual design'
p4942
asg9
S'W. Wright'
p4943
ssS'P342898'
p4944
(dp4945
g3
g4721
sg9
S'Denis Lalanne'
p4946
ssS'P61896'
p4947
(dp4948
g3
g1280
sg9
S'David J. Harper'
p4949
ssS'P136466'
p4950
(dp4951
g3
(lp4952
S'dynamic labeling'
p4953
aS'evaluation'
p4954
aS'label'
p4955
aS'visualization'
p4956
asg9
S'Jean-Daniel Fekete'
p4957
ssS'P17980'
p4958
(dp4959
g3
g3245
sg9
S'Andrew J. Hanson'
p4960
ssS'P159548'
p4961
(dp4962
g3
(lp4963
sg9
S'Ken Perlin'
p4964
ssS'P62163'
p4965
(dp4966
g3
g1499
sg9
S'David Jablonowski'
p4967
ssS'P236907'
p4968
(dp4969
g3
g151
sg9
S'R. L. Winslow'
p4970
ssS'P345085'
p4971
(dp4972
g3
(lp4973
S'hierarchy'
p4974
aS'spreadsheet'
p4975
aS'sport'
p4976
aS'metadata'
p4977
aS'visualization'
p4978
aS'analysis'
p4979
aS'visualizations'
p4980
asg9
S'Sandeep Prabhakar'
p4981
ssS'P327358'
p4982
(dp4983
g3
g566
sg9
S'Guillermo A. Averboch'
p4984
ssS'P107778'
p4985
(dp4986
g3
g505
sg9
S'Harpreet Sawhney'
p4987
ssS'P42765'
p4988
(dp4989
g3
g4391
sg9
S'Chandu Karadi'
p4990
ssS'P137799'
p4991
(dp4992
g3
g1129
sg9
S'Jeffrey Korn'
p4993
ssS'P218545'
p4994
(dp4995
g3
(lp4996
S'3d icons'
p4997
aS'harmony information landscape'
p4998
aS'harmony browser'
p4999
aS'hyper-g web server'
p5000
aS'internet'
p5001
aS'data model'
p5002
aS'document representation'
p5003
aS'hierarchical structure'
p5004
aS'hierarchy map'
p5005
aS'hyperlink'
p5006
aS'link map'
p5007
aS'navigational facilities'
p5008
aS'search queries'
p5009
aS'three dimensional icons'
p5010
aS'three-dimensional visualisation'
p5011
asg9
S'P. Wolf'
p5012
ssS'P63937'
p5013
(dp5014
g3
g321
sg9
S'David Steele'
p5015
ssS'P572900'
p5016
(dp5017
g3
g218
sg9
S'A. J. Kolojechick'
p5018
ssS'P121955'
p5019
(dp5020
g3
g985
sg9
S'J. Dodge'
p5021
ssS'P25750'
p5022
(dp5023
g3
g4700
sg9
S'B. S. Manjunath'
p5024
ssS'P159422'
p5025
(dp5026
g3
g1968
sg9
S'Ken Fishkin'
p5027
ssS'P238744'
p5028
(dp5029
g3
g1376
sg9
S'Ramasamy Uthurusamy'
p5030
ssS'P67578'
p5031
(dp5032
g3
(lp5033
S'tools'
p5034
aS'analysis'
p5035
asg9
S'Divesh Srivastava'
p5036
ssS'P79621'
p5037
(dp5038
g3
g483
sg9
S'Eugene Stanley'
p5039
ssS'P32711'
p5040
(dp5041
g3
g4495
sg9
S'Brian Johnson'
p5042
ssS'P260595'
p5043
(dp5044
g3
g3385
sg9
S'Saul Greenberg'
p5045
ssS'P572992'
p5046
(dp5047
g3
g533
sg9
S'C. Russo dos Santos'
p5048
ssS'P155762'
p5049
(dp5050
g3
g1007
sg9
S'K. Wenger'
p5051
ssS'P487877'
p5052
(dp5053
g3
(lp5054
S'design'
p5055
aS'clustering'
p5056
aS'management'
p5057
aS'structure'
p5058
aS'graphs'
p5059
aS'algorithms'
p5060
asg9
S'Qing-Wen Feng'
p5061
ssS'P572997'
p5062
(dp5063
g3
g3656
sg9
S'Camilla Forsell'
p5064
ssS'P508337'
p5065
(dp5066
g3
g13
sg9
S'K.-P. Vo'
p5067
ssS'P75893'
p5068
(dp5069
g3
g2546
sg9
S'Ehud Rivlin'
p5070
ssS'P227961'
p5071
(dp5072
g3
g133
sg9
S'Pourang Irani'
p5073
ssS'P422541'
p5074
(dp5075
g3
g1625
sg9
S'Robert Gurwitz'
p5076
ssS'P268230'
p5077
(dp5078
g3
g3564
sg9
S'Stephen G. Eick'
p5079
ssS'P115664'
p5080
(dp5081
g3
g1087
sg9
S'Ian Taylor'
p5082
ssS'P247317'
p5083
(dp5084
g3
(lp5085
S'cinema'
p5086
aS'interaction design'
p5087
aS'three-dimensional visualization'
p5088
aS'visual design'
p5089
asg9
S'Robin L. Kullberg'
p5090
ssS'P573233'
p5091
(dp5092
g3
g2425
sg9
S'Kreimir Matkovic'
p5093
ssS'P2329'
p5094
(dp5095
g3
g3019
sg9
S'A. Blake'
p5096
ssS'P271764'
p5097
(dp5098
g3
g3175
sg9
S'Suresh K. Lodha'
p5099
ssS'P573237'
p5100
(dp5101
g3
(lp5102
S'data compression'
p5103
aS'data visualisation'
p5104
aS'edge detection'
p5105
aS'edge-detecting smoothing'
p5106
aS'image coding'
p5107
aS'image databases'
p5108
aS'image reduction'
p5109
aS'image selection'
p5110
aS'lossy image compression'
p5111
aS'parent image treatment'
p5112
aS'searching'
p5113
aS'static codebook compression'
p5114
aS'thumbnail creation'
p5115
aS'thumbnail image recognition'
p5116
aS'user interface'
p5117
aS'user interfaces'
p5118
aS'visual databases'
p5119
asg9
S'L. J. Johnston'
p5120
ssS'P140361'
p5121
(dp5122
g3
g1611
sg9
S'Jim Gray'
p5123
ssS'P299459'
p5124
(dp5125
g3
g3619
sg9
S'William E. Lorensen'
p5126
ssS'P643561'
p5127
(dp5128
g3
g3665
sg9
S'T. Lasinski'
p5129
ssS'P230591'
p5130
(dp5131
g3
g2811
sg9
S'R. Beale'
p5132
ssS'P144705'
p5133
(dp5134
g3
(lp5135
S'hierarchy display'
p5136
aS'information visualization'
p5137
aS'fisheye display'
p5138
aS'focus+context technique'
p5139
asg9
S'John Lamping'
p5140
ssS'P285684'
p5141
(dp5142
g3
(lp5143
S'information systems'
p5144
aS'mathematics of computing'
p5145
aS'discrete mathematics'
p5146
aS'design'
p5147
aS'human factors'
p5148
aS'user interface'
p5149
asg9
S'Tyson R. Henry'
p5150
ssS'P181080'
p5151
(dp5152
g3
g1314
sg9
S'M. Li'
p5153
ssS'P237998'
p5154
(dp5155
g3
g950
sg9
S'Rajeev Motwani'
p5156
ssS'P505041'
p5157
(dp5158
g3
g1113
sg9
S'Zvi Polunsky'
p5159
ssS'P188133'
p5160
(dp5161
g3
g1319
sg9
S'Marcus Haupt'
p5162
ssS'P298174'
p5163
(dp5164
g3
g4337
sg9
S'Wiebke M\xc3\xb6hr'
p5165
ssS'P569393'
p5166
(dp5167
g3
(lp5168
S'antialiasing'
p5169
aS'antialiasing techniques'
p5170
aS'browsing'
p5171
aS'color graphics'
p5172
aS'colour graphics'
p5173
aS'data visualisation'
p5174
aS'data visualization'
p5175
aS'display screen'
p5176
aS'global views'
p5177
aS'grayscale shading'
p5178
aS'information display'
p5179
aS'information mural'
p5180
aS'information navigation'
p5181
aS'large information spaces'
p5182
aS'object-oriented programming'
p5183
aS'object-oriented programs'
p5184
aS'software visualization'
p5185
aS'user interfaces'
p5186
aS'visual programming'
p5187
asg9
S'D. F. Jerding'
p5188
ssS'P246404'
p5189
(dp5190
g3
(lp5191
S'algorithm animation'
p5192
aS'computer science education'
p5193
aS'algorithm design'
p5194
aS'algorithm analysis'
p5195
asg9
S'Robert Sedgewick'
p5196
ssS'P164152'
p5197
(dp5198
g3
g361
sg9
S'Kyoko Nakamura'
p5199
ssS'P65458'
p5200
(dp5201
g3
g321
sg9
S'Denis Lee'
p5202
ssS'P577440'
p5203
(dp5204
g3
(lp5205
S'orthogonality'
p5206
aS'data abstraction'
p5207
aS'visualization'
p5208
asg9
S'James Wen'
p5209
ssS'P128597'
p5210
(dp5211
g3
g1314
sg9
S'J. Tromp'
p5212
ssS'P131687'
p5213
(dp5214
g3
g4317
sg9
S'James E. Bennett'
p5215
ssS'P339922'
p5216
(dp5217
g3
g944
sg9
S'Dee Jay Randall'
p5218
ssS'P222728'
p5219
(dp5220
g3
g944
sg9
S'Pavel Berkhin'
p5221
ssS'P573113'
p5222
(dp5223
g3
g694
sg9
S'Greg Ross'
p5224
ssS'P281620'
p5225
(dp5226
g3
(lp5227
S'data mining'
p5228
aS'visualizing large data sets'
p5229
aS'visualizing multidimensional and multivariate data'
p5230
aS'visual query systems'
p5231
aS'interfaces to database systems'
p5232
asg9
S'Thomas Seidl'
p5233
ssS'P298076'
p5234
(dp5235
g3
g759
sg9
S'Werner Stuetzle'
p5236
ssS'P300239'
p5237
(dp5238
g3
(lp5239
S'hierarchy'
p5240
aS'query'
p5241
aS'queries'
p5242
aS'documents'
p5243
aS'evaluation'
p5244
aS'aggregation'
p5245
aS'hierarchies.'
p5246
aS'representation'
p5247
aS'order'
p5248
asg9
S'William J. Weiland'
p5249
ssS'P482738'
p5250
(dp5251
g3
g533
sg9
S'N. Trichaud'
p5252
ssS'P573301'
p5253
(dp5254
g3
(lp5255
S'information visualization'
p5256
aS'architecture'
p5257
aS'work materials'
p5258
aS'context'
p5259
aS'spatio-temporal order'
p5260
aS'electronic workspace'
p5261
asg9
S'Monika B\xc3\xbcscher'
p5262
ssS'P573300'
p5263
(dp5264
g3
(lp5265
S'2d'
p5266
aS'3d'
p5267
aS'spatial memory'
p5268
aS'hierarchical representations'
p5269
asg9
S'Monica Tavanti'
p5270
ssS'P573303'
p5271
(dp5272
g3
(lp5273
S'federal geographic data committee'
p5274
aS'html'
p5275
aS'hypertext markup language'
p5276
aS'java applets'
p5277
aS'master environmental library system'
p5278
aS'www'
p5279
aS'world wide web'
p5280
aS'content standards'
p5281
aS'datasets'
p5282
aS'distributed data access'
p5283
aS'geospatial metadata querying'
p5284
aS'geospatial metadata visualization'
p5285
aS'interactive system'
p5286
aS'visual databases'
p5287
asg9
S'N. Alper'
p5288
ssS'P270635'
p5289
(dp5290
g3
g3802
sg9
S'Stuart Card'
p5291
ssS'P192713'
p5292
(dp5293
g3
(lp5294
S'interactive graphics'
p5295
aS'investing'
p5296
aS'treemap'
p5297
aS'visualization'
p5298
asg9
S'Martin Wattenberg'
p5299
ssS'P192305'
p5300
(dp5301
g3
(lp5302
Valgorithm
p5303
aVanalysis
p5304
asg9
S'Martin Juvan'
p5305
ssS'P43749'
p5306
(dp5307
g3
g724
sg9
S'Charles E. Meyers'
p5308
ssS'P263260'
p5309
(dp5310
g3
g3385
sg9
S'Shelli Dubs'
p5311
ssS'P528656'
p5312
(dp5313
g3
g3185
sg9
S'R. Orosco'
p5314
ssS'P302830'
p5315
(dp5316
g3
g884
sg9
S'Y. Alp Aslandogan'
p5317
ssS'P319187'
p5318
(dp5319
g3
g1052
sg9
S'D. Day'
p5320
ssS'P108350'
p5321
(dp5322
g3
g1955
sg9
S'Hausi A. M\xc3\xbcller'
p5323
ssS'P305826'
p5324
(dp5325
g3
(lp5326
S'brushing'
p5327
aS'hierarchical representation'
p5328
aS'interactive selection'
p5329
aS'exploratory data analysis.'
p5330
asg9
S'Ying-Huey Fua'
p5331
ssS'P266847'
p5332
(dp5333
g3
g1262
sg9
S'Stan Letovsky'
p5334
ssS'P386218'
p5335
(dp5336
g3
(lp5337
S'similarity'
p5338
aS'clustering'
p5339
aS'algorithm'
p5340
aS'database'
p5341
aS'analysis'
p5342
asg9
S'Kevin W. Boyack'
p5343
ssS'P422257'
p5344
(dp5345
g3
(lp5346
S'data visualisation'
p5347
aS'query processing'
p5348
aS'relational databases'
p5349
aS'visual databases'
p5350
aS'visdb'
p5351
aS'data set'
p5352
aS'database exploration'
p5353
aS'display pixel'
p5354
aS'multidimensional data'
p5355
aS'multidimensional visualization'
p5356
aS'query specification process'
p5357
aS'relational database tables'
p5358
aS'user query'
p5359
aS'visual impression'
p5360
asg9
S'Hans-Peter Krigel'
p5361
ssS'P12980'
p5362
(dp5363
g3
(lp5364
S'algorithm animation'
p5365
aS'empirical studies'
p5366
aS'software visualization'
p5367
asg9
S'Albert Badro'
p5368
ssS'P99888'
p5369
(dp5370
g3
g1376
sg9
S'Gregory Piatetsky-Shapiro'
p5371
ssS'P298389'
p5372
(dp5373
g3
g3619
sg9
S'Will Schroeder'
p5374
ssS'P31473'
p5375
(dp5376
g3
g5302
sg9
S'Bojan Mohar'
p5377
ssS'P201858'
p5378
(dp5379
g3
g2992
sg9
S'Mitch B. Grunes'
p5380
ssS'P283451'
p5381
(dp5382
g3
(lp5383
S'supervised learning'
p5384
aS'reinforcement learning'
p5385
aS'temporal-difference learning'
p5386
aS'cognitive architectures'
p5387
asg9
S'Tom Dietterich'
p5388
ssS'P226688'
p5389
(dp5390
g3
(lp5391
S'algorithms'
p5392
aS'measurement'
p5393
aS'data base management'
p5394
asg9
S'Philippe Flajolet'
p5395
ssS'P203471'
p5396
(dp5397
g3
g1611
sg9
S'Murali Venkatrao'
p5398
ssS'P64087'
p5399
(dp5400
g3
g863
sg9
S'David Thiel'
p5401
ssS'P59778'
p5402
(dp5403
g3
g3462
sg9
S'Danyel Fisher'
p5404
ssS'P605971'
p5405
(dp5406
g3
g2868
sg9
S'Dachywan Wu'
p5407
ssS'P225799'
p5408
(dp5409
g3
(lp5410
S'internet'
p5411
aS'structure'
p5412
aS'power-laws'
p5413
asg9
S'Petros Faloutsos'
p5414
ssS'P63248'
p5415
(dp5416
g3
(lp5417
sg9
S'David A. Patterson'
p5418
ssS'P596408'
p5419
(dp5420
g3
g31
sg9
S'Charles Spirakis'
p5421
ssS'P421191'
p5422
(dp5423
g3
g2425
sg9
S'M. Eduard Gr\xc3\xb6ller'
p5424
ssS'P47038'
p5425
(dp5426
g3
g2350
sg9
S'Christine Diehl'
p5427
ssS'P421193'
p5428
(dp5429
g3
(lp5430
S'information visualization'
p5431
aS'graph visualization'
p5432
aS'graph drawing'
p5433
aS'navigation'
p5434
aS'focus+context'
p5435
aS'fish-eye'
p5436
aS'clustering.'
p5437
asg9
S'M. Scott Marshall'
p5438
ssS'P134270'
p5439
(dp5440
g3
g171
sg9
S'Jan Puzicha'
p5441
ssS'P269119'
p5442
(dp5443
g3
g1087
sg9
S'Steve Benford'
p5444
ssS'P200182'
p5445
(dp5446
g3
(lp5447
S'numbers'
p5448
aS'images'
p5449
aS'3d'
p5450
aS'interactive'
p5451
asg9
S'Miguel Santana'
p5452
ssS'P199957'
p5453
(dp5454
g3
g1991
sg9
S'Michelle Q. Wang Baldonado'
p5455
ssS'P354952'
p5456
(dp5457
g3
(lp5458
sg9
S'John A. Hartigan'
p5459
ssS'P121439'
p5460
(dp5461
g3
g2972
sg9
S'J. H. Conway'
p5462
ssS'P173828'
p5463
(dp5464
g3
g2124
sg9
S'Luc Beaudoin'
p5465
ssS'P106482'
p5466
(dp5467
g3
g1611
sg9
S'Hamid Pirahesh'
p5468
ssS'P14721'
p5469
(dp5470
g3
(lp5471
S'visualizing'
p5472
aS'visualization'
p5473
aS'databases'
p5474
asg9
S'Alfred Kobsa'
p5475
ssS'P147188'
p5476
(dp5477
g3
(lp5478
S'mds'
p5479
aS'force-directed'
p5480
aS'graph drawing'
p5481
aS'graph layout'
p5482
aS'multidimensional scaling'
p5483
asg9
S'Jonathan D. Cohen'
p5484
ssS'P77468'
p5485
(dp5486
g3
g1183
sg9
S'Emmanuel Fr\xc3\xa9con'
p5487
ssS'P422617'
p5488
(dp5489
g3
g1625
sg9
S'Thomas Faulhaber, Jr.'
p5490
ssS'P224682'
p5491
(dp5492
g3
g4267
sg9
S'Peter Lucas'
p5493
ssS'P187586'
p5494
(dp5495
g3
(lp5496
S'constraints'
p5497
aS'delegation'
p5498
aS'direct manipulation'
p5499
aS'interaction techniques'
p5500
aS'user interface toolkits'
p5501
aS'visual programming'
p5502
asg9
S'Marc P. Stevens'
p5503
ssS'P349300'
p5504
(dp5505
g3
g4827
sg9
S'Randy L. Ribler'
p5506
ssS'P75845'
p5507
(dp5508
g3
(lp5509
S'query'
p5510
aS'browsing'
p5511
asg9
S'Egemen Tanin'
p5512
ssS'P28611'
p5513
(dp5514
g3
g2720
sg9
S'Ben G. H. Gorte'
p5515
ssS'P536695'
p5516
(dp5517
g3
g2135
sg9
S'Jamie D. Weber'
p5518
ssS'P218969'
p5519
(dp5520
g3
g45
sg9
S'Pak Chung Wong'
p5521
ssS'P148747'
p5522
(dp5523
g3
(lp5524
S'documents'
p5525
aS'interdisciplinary'
p5526
aS'interdisciplinary adobe acrobat quicktime windows media player real player'
p5527
asg9
S'Joseph M. Ballay'
p5528
ssS'P143555'
p5529
(dp5530
g3
g3385
sg9
S'John Dill'
p5531
ssS'P298777'
p5532
(dp5533
g3
(lp5534
S'tools'
p5535
aS'visualization'
p5536
aS'visualizing'
p5537
aS'structure'
p5538
aS'analysis'
p5539
asg9
S'William S. Cleveland'
p5540
ssS'P55261'
p5541
(dp5542
g3
g4843
sg9
S'D. Mumford'
p5543
ssS'P196614'
p5544
(dp5545
g3
g1872
sg9
S'Michael Christensen'
p5546
ssS'P272623'
p5547
(dp5548
g3
g2178
sg9
S'Sven Fuhrmann'
p5549
ssS'P174743'
p5550
(dp5551
g3
g3385
sg9
S'Lyn Bartram'
p5552
ssS'P144244'
p5553
(dp5554
g3
g5417
sg9
S'John L. Hennessy'
p5555
ssS'P172684'
p5556
(dp5557
g3
g2178
sg9
S'Liujian Qian'
p5558
ssS'P270242'
p5559
(dp5560
g3
(lp5561
S'workstations'
p5562
aS'visualization'
p5563
aS'presentation'
p5564
aS'structure'
p5565
asg9
S'Steven P. Reiss'
p5566
ssS'P327994'
p5567
(dp5568
g3
g545
sg9
S'Galina Shubina'
p5569
ssS'P274142'
p5570
(dp5571
g3
g1788
sg9
S'T. A. DeFanti'
p5572
ssS'P200206'
p5573
(dp5574
g3
(lp5575
S'visualizing large data sets'
p5576
aS'visualizing multidimensional and multivariate data'
p5577
aS'visualizing large sequential data sets'
p5578
aS'recursive visualization techniques'
p5579
aS'interfaces to databases'
p5580
asg9
S'Mihael Ankerst'
p5581
ssS'P246990'
p5582
(dp5583
g3
g646
sg9
S'Robert Zeleznik'
p5584
ssS'P306020'
p5585
(dp5586
g3
g1499
sg9
S'Yogesh Gaur'
p5587
ssS'P32602'
p5588
(dp5589
g3
g3114
sg9
S'Brian P. Flannery'
p5590
ssS'P197332'
p5591
(dp5592
g3
g379
sg9
S'Michael T. Heath'
p5593
ssS'P346684'
p5594
(dp5595
g3
(lp5596
S'depth of field'
p5597
aS'focus and context'
p5598
aS'information visualization'
p5599
asg9
S'Robert Kosara'
p5600
ssS'P28685'
p5601
(dp5602
g3
(lp5603
S'computer graphics'
p5604
aS'data analysis'
p5605
aS'display space'
p5606
aS'hierarchical information structures'
p5607
aS'tree-map visualization technique.'
p5608
asg9
S'Ben Shneiderman'
p5609
ssS'P237644'
p5610
(dp5611
g3
g1007
sg9
S'Raghu Ramakrishnan'
p5612
ssS'P464499'
p5613
(dp5614
g3
g1366
sg9
S'Ira Smotroff'
p5615
ssS'P314776'
p5616
(dp5617
g3
g788
sg9
S'Chiemi Watanabe'
p5618
ssS'P201630'
p5619
(dp5620
g3
g4324
sg9
S'Mira Vossers'
p5621
ssS'P74380'
p5622
(dp5623
g3
(lp5624
S'3d interactive graphics'
p5625
aS'abstracted information spaces'
p5626
aS'information interaction design'
p5627
aS'information space design'
p5628
aS'information visualization'
p5629
aS'pyramidal information structures'
p5630
asg9
S'Earl Rennison'
p5631
ssS'P553648'
p5632
(dp5633
g3
g1862
sg9
S'Frank Drews'
p5634
ssS'P82211'
p5635
(dp5636
g3
(lp5637
S'management'
p5638
aS'effectiveness'
p5639
aS'algorithm'
p5640
aS'graphs'
p5641
aS'algorithms'
p5642
asg9
S'F. J. Newbery'
p5643
ssS'P337868'
p5644
(dp5645
g3
g2846
sg9
S'Chris Stolte'
p5646
ssS'P77911'
p5647
(dp5648
g3
g3101
sg9
S'Eric A. Bier'
p5649
ssS'P131144'
p5650
(dp5651
g3
(lp5652
S'automatic presentation systems'
p5653
aS'data visualization'
p5654
aS'design environments'
p5655
aS'graphic design'
p5656
aS'intelligent interfaces'
p5657
aS'interactive techniques'
p5658
asg9
S'Jade Goldstein'
p5659
ssS'P28374'
p5660
(dp5661
g3
g685
sg9
S'Bay-Wei Chang'
p5662
ssS'P99458'
p5663
(dp5664
g3
g1656
sg9
S'Greg Lomow'
p5665
ssS'P107222'
p5666
(dp5667
g3
g5575
sg9
S'Hans-Peter Kriegel'
p5668
ssS'P247318'
p5669
(dp5670
g3
g1262
sg9
S'Robin Lampert'
p5671
ssS'P206001'
p5672
(dp5673
g3
g2972
sg9
S'N. J. A. Sloane'
p5674
ssS'P138075'
p5675
(dp5676
g3
(lp5677
S'fourier transform'
p5678
aS'i/o complexity'
p5679
aS'raid'
p5680
aS'batched computational geometry'
p5681
aS'batched graph problems'
p5682
aS'batched sorting'
p5683
aS'disk block'
p5684
aS'disk striping'
p5685
aS'external memory'
p5686
aS'indivisibility assumption'
p5687
aS'locality and load balancing'
p5688
aS'out-of-core'
p5689
aS'parallel disk model'
p5690
asg9
S'Jeffrey Scott Vitter'
p5691
ssS'P223968'
p5692
(dp5693
g3
(lp5694
S'graph drawing'
p5695
aS'graph layouts'
p5696
asg9
S'Peter Eades'
p5697
ssS'P65623'
p5698
(dp5699
g3
g566
sg9
S'Dennis J. Brueni'
p5700
ssS'P137011'
p5701
(dp5702
g3
g5447
sg9
S'Jean-Yves Vion-Dury'
p5703
ssS'P596396'
p5704
(dp5705
g3
g31
sg9
S'Allan Tuan'
p5706
ssS'P285251'
p5707
(dp5708
g3
g2057
sg9
S'Trung A. Diep'
p5709
ssS'P364260'
p5710
(dp5711
g3
(lp5712
S'code'
p5713
aS'visualization'
p5714
aS'techniques'
p5715
aS'multimedia'
p5716
aS'history'
p5717
aS'control'
p5718
aS'animation'
p5719
asg9
S'Blaine A. Price'
p5720
ssS'P62645'
p5721
(dp5722
g3
g1262
sg9
S'David Littman'
p5723
ssS'P63622'
p5724
(dp5725
g3
g3280
sg9
S'David H. Salesin'
p5726
ssS'P422060'
p5727
(dp5728
g3
(lp5729
S'tools'
p5730
aS'magnification'
p5731
asg9
S'Alan Keahey'
p5732
ssS'P98198'
p5733
(dp5734
g3
g3122
sg9
S'Giuseppe Liotta'
p5735
ssS'P61568'
p5736
(dp5737
g3
g4963
sg9
S'David Fox'
p5738
ssS'P290988'
p5739
(dp5740
g3
(lp5741
S'isosurfaces'
p5742
aS'line integral convolution'
p5743
aS'principal directions'
p5744
aS'shape representation'
p5745
aS'solid texture'
p5746
aS'stroke textures'
p5747
aS'transparent surfaces'
p5748
aS'visualization'
p5749
aS'volume rendering'
p5750
asg9
S'Victoria Interrante'
p5751
ssS'P127072'
p5752
(dp5753
g3
g1703
sg9
S'J. S. Risch'
p5754
ssS'P265269'
p5755
(dp5756
g3
g5596
sg9
S'Silvia Miksch'
p5757
ssS'P422089'
p5758
(dp5759
g3
(lp5760
S'www'
p5761
aS'clustering'
p5762
aS'clustering.'
p5763
aS'graphs'
p5764
aS'interactive'
p5765
asg9
S'Arne Frick'
p5766
ssS'P220392'
p5767
(dp5768
g3
g483
sg9
S'Patrick Hoffman'
p5769
ssS'P74502'
p5770
(dp5771
g3
g3318
sg9
S'Ed H. Chi'
p5772
ssS'P13809'
p5773
(dp5774
g3
(lp5775
sg9
S'Alex P. Pentland'
p5776
ssS'P573275'
p5777
(dp5778
g3
g4996
sg9
S'M. Pichler'
p5779
ssS'P172196'
p5780
(dp5781
g3
g2720
sg9
S'Linda C. van der Gaag'
p5782
ssS'P94710'
p5783
(dp5784
g3
g2837
sg9
S'Gene Golovchinsky'
p5785
ssS'P53095'
p5786
(dp5787
g3
g1234
sg9
S'D. Christopher Dryer'
p5788
ssS'P25923'
p5789
(dp5790
g3
g1703
sg9
S'B. D. Moon'
p5791
ssS'P168280'
p5792
(dp5793
g3
(lp5794
S'jazz'
p5795
aS'pad++'
p5796
aS'animation'
p5797
aS'graphics'
p5798
aS'user interface management systems (uims)'
p5799
aS'zoomable user interfaces (zuis)'
p5800
asg9
S'Lance Good'
p5801
ssS'P106862'
p5802
(dp5803
g3
g275
sg9
S'Hans Hinterberger'
p5804
ssS'P345055'
p5805
(dp5806
g3
g4973
sg9
S'Nathan Conklin'
p5807
ssS'P573476'
p5808
(dp5809
g3
g189
sg9
S'T. Teraoka'
p5810
ssS'P573475'
p5811
(dp5812
g3
(lp5813
S'table lens'
p5814
aS'context visualization'
p5815
aS'data values'
p5816
aS'data visualisation'
p5817
aS'design enhancements'
p5818
aS'exploratory data analysis'
p5819
aS'focus visualization'
p5820
aS'graphical representations'
p5821
aS'large data tables'
p5822
aS'multiple focal level management'
p5823
aS'screen space'
p5824
aS'single pixel row'
p5825
aS'spreadsheet'
p5826
aS'user interface'
p5827
asg9
S'T. Tenev'
p5828
ssS'P573474'
p5829
(dp5830
g3
(lp5831
S'epa case study'
p5832
aS'internet'
p5833
aS'unix'
p5834
aS'world wide web'
p5835
aS'data visualisation'
p5836
aS'decision makers'
p5837
aS'environmental science computing'
p5838
aS'environmental scientists'
p5839
aS'government data processing'
p5840
aS'high performance unix workstations'
p5841
aS'information dissemination'
p5842
aS'information retrieval'
p5843
aS'intelligent visualization capability access'
p5844
aS'knowledge dissemination'
p5845
aS'microcomputer applications'
p5846
aS'operating systems (computers)'
p5847
aS'personal computers'
p5848
aS'policy analysts'
p5849
aS'public administration'
p5850
aS'scientific visualization capabilities'
p5851
aS'technology transfer'
p5852
aS'workstations'
p5853
asg9
S'T. M. Rhyne'
p5854
ssS'P317481'
p5855
(dp5856
g3
g3592
sg9
S'T. C. Sprenger'
p5857
ssS'P572970'
p5858
(dp5859
g3
(lp5860
S'hidden structure and relationship'
p5861
aS'java-based'
p5862
aS'knowledge discovery'
p5863
aS'visual mining'
p5864
asg9
S'Bob Deletto'
p5865
ssS'P273948'
p5866
(dp5867
g3
g4061
sg9
S'T. Carpendale'
p5868
ssS'P572975'
p5869
(dp5870
g3
(lp5871
S'n-dimensional data set visualization'
p5872
aS'computer animation'
p5873
aS'flow visualization'
p5874
aS'high-dimensional data sets'
p5875
aS'iterative nonlinear technique'
p5876
aS'multidimensional data'
p5877
aS'multidimensional scaling animation'
p5878
aS'multivariate data'
p5879
aS'stochastic perturbation'
p5880
asg9
S'C. L. Bentley'
p5881
ssS'P32896'
p5882
(dp5883
g3
g3984
sg9
S'Brian E. Paul'
p5884
ssS'P572977'
p5885
(dp5886
g3
g5102
sg9
S'C. A. Burton'
p5887
ssS'P573359'
p5888
(dp5889
g3
g5255
sg9
S'Peter \xc3\x98rb\xc3\xa6k'
p5890
ssS'P292334'
p5891
(dp5892
g3
g211
sg9
S'Vuk Ercegovac'
p5893
ssS'P10598'
p5894
(dp5895
g3
g1611
sg9
S'Adam Bosworth'
p5896
ssS'P596416'
p5897
(dp5898
g3
g31
sg9
S'Eli Messinger'
p5899
ssS'P250177'
p5900
(dp5901
g3
g1032
sg9
S'Rudy P. Darken'
p5902
ssS'P573350'
p5903
(dp5904
g3
g2579
sg9
S'Padraic Neville'
p5905
ssS'P200312'
p5906
(dp5907
g3
(lp5908
S'data visualization'
p5909
aS'hypermedia'
p5910
aS'information drill-down'
p5911
aS'interactive data drilling'
p5912
asg9
S'Mikael Jern'
p5913
ssS'P421226'
p5914
(dp5915
g3
g2797
sg9
S'Susan Havre'
p5916
ssS'P146843'
p5917
(dp5918
g3
g2960
sg9
S'Jon Christensen'
p5919
ssS'P335034'
p5920
(dp5921
g3
(lp5922
S'visual programming languages'
p5923
asg9
S'Paul E. Haeberli'
p5924
ssS'P16509'
p5925
(dp5926
g3
g3337
sg9
S'Anand Rajaraman'
p5927
ssS'P12515'
p5928
(dp5929
g3
g2203
sg9
S'Alan Humm'
p5930
ssS'P179444'
p5931
(dp5932
g3
g80
sg9
S'M. Guzdial'
p5933
ssS'P46258'
p5934
(dp5935
g3
(lp5936
S'coordination'
p5937
aS'information visualization'
p5938
aS'multiple views'
p5939
aS'relational database'
p5940
aS'tight coupling'
p5941
aS'user interface'
p5942
aS'user study'
p5943
asg9
S'Chris North'
p5944
ssS'P142466'
p5945
(dp5946
g3
g1480
sg9
S'Johan Redstr\xc3\xb6m'
p5947
ssS'P131722'
p5948
(dp5949
g3
(lp5950
S'algorithms'
p5951
aS'performance'
p5952
asg9
S'James F. Blinn'
p5953
ssS'P39545'
p5954
(dp5955
g3
g2790
sg9
S'C. S. Yang'
p5956
ssS'P164140'
p5957
(dp5958
g3
g2142
sg9
S'Kyoji Hirata'
p5959
ssS'P466953'
p5960
(dp5961
g3
g836
sg9
S'Janet M. Six'
p5962
ssS'P46471'
p5963
(dp5964
g3
g2262
sg9
S'Christer Carlsson'
p5965
ssS'P48938'
p5966
(dp5967
g3
g310
sg9
S'Claude Frasson'
p5968
ssS'P335030'
p5969
(dp5970
g3
(lp5971
S'3d image'
p5972
aS'light scattering'
p5973
aS'ray tracing'
p5974
aS'thresholding'
p5975
asg9
S'Paolo Sabella'
p5976
ssS'P140370'
p5977
(dp5978
g3
g321
sg9
S'Jim Hafner'
p5979
ssS'P412760'
p5980
(dp5981
g3
(lp5982
S'animation'
p5983
aS'circular/radial displays'
p5984
aS'focus+context'
p5985
aS'hierarchy visualizations'
p5986
aS'information visualization'
p5987
aS'overview and detail'
p5988
asg9
S'Eugene Zhang'
p5989
ssS'P239833'
p5990
(dp5991
g3
g3052
sg9
S'Raymond E. Barber'
p5992
ssS'P145715'
p5993
(dp5994
g3
g3318
sg9
S'John Riedl'
p5995
ssS'P31652'
p5996
(dp5997
g3
g1087
sg9
S'Boriana Koleva'
p5998
ssS'P468897'
p5999
(dp6000
g3
g3261
sg9
S'Joel Winstead'
p6001
ssS'P143434'
p6002
(dp6003
g3
g574
sg9
S'John V. Cugini'
p6004
ssS'P573123'
p6005
(dp6006
g3
g2889
sg9
S'Hadi Abdo'
p6007
ssS'P94945'
p6008
(dp6009
g3
g3656
sg9
S'Geoffrey P. Bingham'
p6010
ssS'P297012'
p6011
(dp6012
g3
g321
sg9
S'Wayne Niblack'
p6013
ssS'P470250'
p6014
(dp6015
g3
g3261
sg9
S'Joshua Levasseur'
p6016
ssS'P219573'
p6017
(dp6018
g3
g1040
sg9
S'Parris K. Egbert'
p6019
ssS'P152820'
p6020
(dp6021
g3
(lp6022
S'global states'
p6023
aS'distributed deadlock detection'
p6024
aS'distributed systems'
p6025
aS'message communication systems'
p6026
asg9
S'K. Mani Chandy'
p6027
ssS'P225212'
p6028
(dp6029
g3
g5033
sg9
S'Peter G. Selfridge'
p6030
ssS'P63880'
p6031
(dp6032
g3
g3543
sg9
S'David Socha'
p6033
ssS'P190251'
p6034
(dp6035
g3
g1198
sg9
S'Mark Gahegan'
p6036
ssS'P85915'
p6037
(dp6038
g3
g2857
sg9
S'Frank Henigman'
p6039
ssS'P143183'
p6040
(dp6041
g3
g3740
sg9
S'John Campbell'
p6042
ssS'P70234'
p6043
(dp6044
g3
g3669
sg9
S'Dror Zernik'
p6045
ssS'P241424'
p6046
(dp6047
g3
g5509
sg9
S'Richard Beigel'
p6048
ssS'P91025'
p6049
(dp6050
g3
g5391
sg9
S'G. Nigel Martin'
p6051
ssS'P305340'
p6052
(dp6053
g3
g2203
sg9
S'Yen-Ping Shan'
p6054
ssS'P315316'
p6055
(dp6056
g3
g788
sg9
S'Noriko Ukai'
p6057
ssS'P160466'
p6058
(dp6059
g3
(lp6060
S'microprocessor chips'
p6061
aS'mips r10000 superscalar microprocessor'
p6062
aS'cache refills'
p6063
aS'exception handling'
p6064
aS'memory addresses'
p6065
aS'memory latency'
p6066
aS'sequential memory consistency'
p6067
aS'speculative execution'
p6068
aS'write-back caches'
p6069
asg9
S'Kenneth C. Yeager'
p6070
ssS'P195900'
p6071
(dp6072
g3
g4693
sg9
S'Mendel Rosenblum'
p6073
ssS'P207534'
p6074
(dp6075
g3
g545
sg9
S'Natasha Gelfand'
p6076
ssS'P76910'
p6077
(dp6078
g3
g610
sg9
S'Elke A. Rundensteiner'
p6079
ssS'P244730'
p6080
(dp6081
g3
g2178
sg9
S'Robert Edsall'
p6082
ssS'P117589'
p6083
(dp6084
g3
g483
sg9
S'Ivo Grosse'
p6085
ssS'P194710'
p6086
(dp6087
g3
(lp6088
S'n-dimensional brush'
p6089
aS'data visualization'
p6090
aS'physical phenomena'
p6091
aS'integral multiple methods'
p6092
aS'multivariate data'
p6093
aS'spatial relationships'
p6094
asg9
S'Matthew O. Ward'
p6095
ssS'P573196'
p6096
(dp6097
g3
(lp6098
S'focus+context techniques'
p6099
aS'information visualization'
p6100
aS'personal digital assistants'
p6101
asg9
S'Johan Redstr\xc3\xb6m'
p6102
ssS'P573190'
p6103
(dp6104
g3
(lp6105
S'design'
p6106
aS'icons'
p6107
aS'camera'
p6108
aS'search'
p6109
aS'estimation'
p6110
aS'navigation'
p6111
aS'browser'
p6112
asg9
S'Jesse Grosjean'
p6113
ssS'P573192'
p6114
(dp6115
g3
g3122
sg9
S'Jim Baker'
p6116
ssS'P267223'
p6117
(dp6118
g3
(lp6119
S'indexing'
p6120
aS'algorithm'
p6121
aS'analysis'
p6122
asg9
S'Stefan Berchtold'
p6123
ssS'P146953'
p6124
(dp6125
g3
g5794
sg9
S'Jon Meyer'
p6126
ssS'P485726'
p6127
(dp6128
g3
g1798
sg9
S'Patrick Kenis'
p6129
ssS'P387576'
p6130
(dp6131
g3
g4615
sg9
S'Michael Higgins'
p6132
ssS'P301406'
p6133
(dp6134
g3
g1314
sg9
S'X. He'
p6135
ssS'P643602'
p6136
(dp6137
g3
g1191
sg9
S'Paul G. Kelaita'
p6138
ssS'P95917'
p6139
(dp6140
g3
g3802
sg9
S'George G. Robertson'
p6141
ssS'P81304'
p6142
(dp6143
g3
g3956
sg9
S'F. David Fracchia'
p6144
ssS'P199459'
p6145
(dp6146
g3
g5410
sg9
S'Michalis Faloutsos'
p6147
ssS'P139748'
p6148
(dp6149
g3
g707
sg9
S'Jianbo Shi'
p6150
ssS'P440936'
p6151
(dp6152
g3
(lp6153
S'trees'
p6154
aS'2d'
p6155
aS'clustering'
p6156
aS'graphics'
p6157
aS'numbers'
p6158
aS'algorithm'
p6159
aS'graphs'
p6160
asg9
S'Aaron Quigley'
p6161
ssS'P47747'
p6162
(dp6163
g3
g4814
sg9
S'Christopher J. Kocmoud'
p6164
ssS'P305620'
p6165
(dp6166
g3
g4324
sg9
S'Yigal Arens'
p6167
ssS'P489574'
p6168
(dp6169
g3
g5760
sg9
S'Reinhard Sablowski'
p6170
ssS'P52432'
p6171
(dp6172
g3
g3417
sg9
S'D. Brodbeck'
p6173
ssS'P135425'
p6174
(dp6175
g3
(lp6176
S'webquilt'
p6177
aS'log file analysis'
p6178
aS'usability evaluation'
p6179
aS'web proxy'
p6180
aS'web visualization'
p6181
asg9
S'Jason I. Hong'
p6182
ssS'P134688'
p6183
(dp6184
g3
g2171
sg9
S'Jane Wilhelms'
p6185
ssS'P151583'
p6186
(dp6187
g3
g1480
sg9
S'Jussi Karlgren'
p6188
ssS'P187488'
p6189
(dp6190
g3
(lp6191
S'algorithm theory'
p6192
aS'computer animation'
p6193
aS'computer science education'
p6194
aS'data visualization'
p6195
aS'multimedia computing'
p6196
aS'algorithm animation'
p6197
asg9
S'Marc A. Najork'
p6198
ssS'P421167'
p6199
(dp6200
g3
g5430
sg9
S'Guy Melan\xc3\xa7on'
p6201
ssS'P163836'
p6202
(dp6203
g3
(lp6204
S'object-oriented'
p6205
aS'spreadsheets'
p6206
aS'user interface'
p6207
asg9
S'Kurt W. Piersol'
p6208
ssS'P421160'
p6209
(dp6210
g3
g4536
sg9
S'Frank van Ham'
p6211
ssS'P198118'
p6212
(dp6213
g3
g574
sg9
S'Michael S. Miller'
p6214
ssS'P18594'
p6215
(dp6216
g3
g3872
sg9
S'Andries van Dam'
p6217
ssS'P73755'
p6218
(dp6219
g3
g5102
sg9
S'E. A. Sonenberg'
p6220
ssS'P228270'
p6221
(dp6222
g3
g1872
sg9
S'Preben Mogensen'
p6223
ssS'P119616'
p6224
(dp6225
g3
g4638
sg9
S'J\xc3\xbcrgen Koenemann'
p6226
ssS'P548253'
p6227
(dp6228
g3
g3185
sg9
S'M. Campo'
p6229
ssS'P300194'
p6230
(dp6231
g3
g3114
sg9
S'William T. Vetterling'
p6232
ssS'P327501'
p6233
(dp6234
g3
g566
sg9
S'Kaushai Dalal'
p6235
ssS'P36478'
p6236
(dp6237
g3
g3852
sg9
S'C. Lee Giles'
p6238
ssS'P196619'
p6239
(dp6240
g3
g211
sg9
S'Michael Chu'
p6241
ssS'P98829'
p6242
(dp6243
g3
(lp6244
S'accelerators'
p6245
aS'gestures'
p6246
aS'input devices'
p6247
aS'marking menus'
p6248
aS'pen based input'
p6249
aS'pie menus'
p6250
asg9
S'Gordon Kurtenbach'
p6251
ssS'P244499'
p6252
(dp6253
g3
g2301
sg9
S'Robert L. Cook'
p6254
ssS'P172393'
p6255
(dp6256
g3
g4176
sg9
S'Liqun Jin'
p6257
ssS'P46410'
p6258
(dp6259
g3
(lp6260
S'size'
p6261
aS'order'
p6262
aS'force-directed'
p6263
aS'algorithm'
p6264
aS'2d'
p6265
aS'graphs'
p6266
asg9
S'Chris Walshaw'
p6267
ssS'P188881'
p6268
(dp6269
g3
(lp6270
S'algorithm animation'
p6271
aS'geometric algorithms'
p6272
aS'visulaization in education'
p6273
asg9
S'Maria Shneerson'
p6274
ssS'P177668'
p6275
(dp6276
g3
(lp6277
Vresearch
p6278
aVinteraction
p6279
aVtools
p6280
aVubs
p6281
aVdatabase
p6282
asg9
S'M. Chalmers'
p6283
ssS'P32386'
p6284
(dp6285
g3
g2921
sg9
S'Brett Milash'
p6286
ssS'P245269'
p6287
(dp6288
g3
g2674
sg9
S'Robert Ingram'
p6289
ssS'P187254'
p6290
(dp6291
g3
g1491
sg9
S'Marc Alexa'
p6292
ssS'P253185'
p6293
(dp6294
g3
g1703
sg9
S'S. T. Dowson'
p6295
ssS'P43789'
p6296
(dp6297
g3
g1292
sg9
S'Charles K. Nicholas'
p6298
ssS'P254574'
p6299
(dp6300
g3
g3825
sg9
S'S. T. Klein'
p6301
ssS'P190624'
p6302
(dp6303
g3
g211
sg9
S'Mark Lin'
p6304
ssS'P261024'
p6305
(dp6306
g3
(lp6307
sg9
S'Scott Meyers'
p6308
ssS'P286769'
p6309
(dp6310
g3
g3573
sg9
S'Umesh Dayal'
p6311
ssS'P595681'
p6312
(dp6313
g3
(lp6314
S'complete machine simulation'
p6315
asg9
S'Stephen A Herrod'
p6316
ssS'P15525'
p6317
(dp6318
g3
g96
sg9
S'Allison Druin'
p6319
ssS'P174888'
p6320
(dp6321
g3
g5033
sg9
S'Lynn O. Wilson'
p6322
ssS'P274888'
p6323
(dp6324
g3
g1314
sg9
S'T. Jiang'
p6325
ssS'P234137'
p6326
(dp6327
g3
g1703
sg9
S'R. A. May'
p6328
ssS'P144378'
p6329
(dp6330
g3
g3872
sg9
S'John F. Hughes'
p6331
ssS'P362395'
p6332
(dp6333
g3
(lp6334
S'graphs'
p6335
aS'hierarchies.'
p6336
aS'massive data sets'
p6337
aS'visualization'
p6338
asg9
S'Irene Finocchi'
p6339
ssS'P61111'
p6340
(dp6341
g3
g3956
sg9
S'David J. Cowperthwaite'
p6342
ssS'P131548'
p6343
(dp6344
g3
g936
sg9
S'James Allan'
p6345
ssS'P61889'
p6346
(dp6347
g3
g1572
sg9
S'David Harel'
p6348
ssS'P228400'
p6349
(dp6350
g3
g3097
sg9
S'Przemyslaw Prusinkiewicz'
p6351
ssS'P126795'
p6352
(dp6353
g3
(lp6354
S'code'
p6355
aS'trees'
p6356
aS'classifier'
p6357
aS'unix'
p6358
aS'learning'
p6359
aS'datasets'
p6360
asg9
S'J. Ross Quinlan'
p6361
ssS'P572183'
p6362
(dp6363
g3
g6098
sg9
S'Staffan Bj\xc3\xb6rk'
p6364
ssS'P15351'
p6365
(dp6366
g3
g2076
sg9
S'Allan R. Wilks'
p6367
ssS'P161427'
p6368
(dp6369
g3
g4304
sg9
S'Khoa Doan'
p6370
ssS'P113687'
p6371
(dp6372
g3
g4465
sg9
S'I. G. Angus'
p6373
ssS'P280253'
p6374
(dp6375
g3
(lp6376
S'data visualisation'
p6377
aS'software engineering'
p6378
aS'visual programming'
p6379
aS'case studies'
p6380
aS'execution behavior'
p6381
aS'file summary representation'
p6382
aS'hierarchical representation'
p6383
aS'interaction techniques'
p6384
aS'large team-oriented projects'
p6385
aS'line representation'
p6386
aS'pixel representation'
p6387
aS'software history'
p6388
aS'software library'
p6389
aS'software visualization'
p6390
aS'static software characteristics'
p6391
aS'system complexity'
p6392
aS'visual code representations'
p6393
asg9
S'Thomas Ball'
p6394
ssS'P73302'
p6395
(dp6396
g3
g1439
sg9
S'E. Petajan'
p6397
ssS'P37359'
p6398
(dp6399
g3
g3665
sg9
S'C. Levit'
p6400
ssS'P276060'
p6401
(dp6402
g3
g3825
sg9
S'T. Raita'
p6403
ssS'P46076'
p6404
(dp6405
g3
g1087
sg9
S'Chris Greenhalgh'
p6406
ssS'P297809'
p6407
(dp6408
g3
g4861
sg9
S'Wendy E. Mackay'
p6409
ssS'P100128'
p6410
(dp6411
g3
g402
sg9
S'Guang R. Gao'
p6412
ssS'P159551'
p6413
(dp6414
g3
g4910
sg9
S'Ken Pier'
p6415
ss.