(dp0
S'P140618'
p1
S'Jim Thomas'
p2
sS'P76267'
p3
S'Eleftherios Koutsofios'
p4
sS'P169793'
p5
S'Lawrence A. Rowe'
p6
sS'P312796'
p7
S'Jeffrey Brainerd'
p8
sS'P192995'
p9
S'Mary Brewster'
p10
sS'P201116'
p11
S'Min Chen'
p12
sS'P47668'
p13
S'Christopher G. Healey'
p14
sS'P372726'
p15
S'Mac Holden'
p16
sS'P179328'
p17
S'M. Gray'
p18
sS'P135514'
p19
S'Jason Stewart'
p20
sS'P292276'
p21
S'Volker Vogelmann'
p22
sS'P28811'
p23
S'Benjamin B. Bederson'
p24
sS'P422437'
p25
S'Maureen Tingley'
p26
sS'P317004'
p27
S'C. K. Yung'
p28
sS'P255551'
p29
S'S. Joy Mountford'
p30
sS'P280843'
p31
S'Thomas Hofmann'
p32
sS'P241262'
p33
S'Rich Gossweiler'
p34
sS'P181485'
p35
S'M. Maruyama'
p36
sS'P375094'
p37
S'Peter R. Keller'
p38
sS'P203702'
p39
S'Mybrid Spalding'
p40
sS'P572981'
p41
S'C. Dunmire'
p42
sS'P572982'
p43
S'C. C. Gomberg'
p44
sS'P15550'
p45
S'Allison Woodruff'
p46
sS'P157384'
p47
S'Karlis Kaugars'
p48
sS'P147271'
p49
S'Jonathan I. Helfman'
p50
sS'P49085'
p51
S'Claudia Schmid'
p52
sS'P573229'
p53
S'Ken Perrine'
p54
sS'P117142'
p55
S'Ishantha Lokuge'
p56
sS'P185050'
p57
S'M. Weiser'
p58
sS'P161221'
p59
S'Kevin Teixeira'
p60
sS'P84959'
p61
S'Fran\xc3\xa7ois Robillard'
p62
sS'P202714'
p63
S'Monika Gorkani'
p64
sS'P38699'
p65
S'C. Shaw'
p66
sS'P117266'
p67
S'Issei Fujishiro'
p68
sS'P248651'
p69
S'Ron Davidson'
p70
sS'P66621'
p71
S'Diane T. Rover'
p72
sS'P573363'
p73
S'Quang Vinh Nguyen'
p74
sS'P573362'
p75
S'Praveen R. Thiagarajan'
p76
sS'P268478'
p77
S'Stephen G. Kobourov'
p78
sS'P573006'
p79
S'Christian Panse'
p80
sS'P551247'
p81
S'L. D. Bergman'
p82
sS'P573004'
p83
S'Chris Hendrickson Octavia Juarez Espinosa'
p84
sS'P204767'
p85
S'N. D. Geddes'
p86
sS'P162343'
p87
S'Klaus Mueller'
p88
sS'P160218'
p89
S'Kenneth Marx'
p90
sS'P573368'
p91
S'R. Brath'
p92
sS'P161838'
p93
S'King-Ip Lin'
p94
sS'P46852'
p95
S'Christian Uhrig'
p96
sS'P106192'
p97
S'Haim Levkowitz'
p98
sS'P132781'
p99
S'James Landay'
p100
sS'P215317'
p101
S'P. Gros'
p102
sS'P596405'
p103
S'Carl Meyer'
p104
sS'P328241'
p105
S'Robert Cohen'
p106
sS'P643533'
p107
S'J. Timlin'
p108
sS'P172868'
p109
S'Lloyd A. Treinish'
p110
sS'P327893'
p111
S'Beno\xc3\xaet Hudson'
p112
sS'P327302'
p113
S'Eric Labow'
p114
sS'P187565'
p115
S'Marc M. Sebrechts'
p116
sS'P317072'
p117
S'Elizabeth Jurrus'
p118
sS'P53673'
p119
S'D. L. Gresh'
p120
sS'P32007'
p121
S'Bradley W. Halversen'
p122
sS'P507545'
p123
S'Mei Chuah'
p124
sS'P380981'
p125
S'Jing Yang'
p126
sS'P282347'
p127
S'Tim McCandless'
p128
sS'P343060'
p129
S'Edgar Ch\xc3\xa1vez'
p130
sS'P193125'
p131
S'Mary Jean Harrold'
p132
sS'P261164'
p133
S'Scott S. Snibbe'
p134
sS'P572930'
p135
S'A. Zwa'
p136
sS'P49781'
p137
S'Colin Ware'
p138
sS'P573090'
p139
S'Frank Van Ham'
p140
sS'P573318'
p141
S'Norma Lopez'
p142
sS'P643612'
p143
S'Stephen Wehrend'
p144
sS'P227903'
p145
S'Polle T. Zellweger'
p146
sS'P572938'
p147
S'Alistair Morrison'
p148
sS'P212246'
p149
S'Oren J. Tversky'
p150
sS'P141155'
p151
S'Jitendra Malik'
p152
sS'P228635'
p153
S'Qian Huang'
p154
sS'P198980'
p155
S'Michael Stonebraker'
p156
sS'P262823'
p157
S'Shari Lawrence Pfleeger'
p158
sS'P95381'
p159
S'George S. Davidson'
p160
sS'P422114'
p161
S'Brendan Madden'
p162
sS'P27937'
p163
S'Barry G. Becker'
p164
sS'P145051'
p165
S'John Alan McDonald'
p166
sS'P186929'
p167
S'Manojit Sarkar'
p168
sS'P113085'
p169
S'Huub van de Wetering'
p170
sS'P113087'
p171
S'Huw Dawkes'
p172
sS'P315441'
p173
S'Rika Furuhata'
p174
sS'P290125'
p175
S'Vannevar Bush'
p176
sS'P451420'
p177
S'Daniel Bielser'
p178
sS'P149126'
p179
S'Joseph Konstan'
p180
sS'P192970'
p181
S'Mary Baker'
p182
sS'P550593'
p183
S'H. A. Mueller'
p184
sS'P116662'
p185
S'Ioannis G. Tollis'
p186
sS'P12617'
p187
S'Alan M. MacEachren'
p188
sS'P75554'
p189
S'Edward A. Stohr'
p190
sS'P59283'
p191
S'Daniel C. Robbins'
p192
sS'P137466'
p193
S'Jeff Zacks'
p194
sS'P49349'
p195
S'Clement T. Yu'
p196
sS'P152906'
p197
S'K. Claffy'
p198
sS'P199962'
p199
S'Michelle X. Zhou'
p200
sS'P134249'
p201
S'Jan O. Pedersen'
p202
sS'P45945'
p203
S'Chris Buckley'
p204
sS'P339941'
p205
S'Jonathan D. Beche'
p206
sS'P227759'
p207
S'Piotr Indyk'
p208
sS'P150698'
p209
S'Jules Bloomenthal'
p210
sS'P218971'
p211
S'Pak Chung Wong'
p212
sS'P4486'
p213
S'A. F. Hasler'
p214
sS'P270271'
p215
S'Steven F. Roth'
p216
sS'P152643'
p217
S'K. Beyer'
p218
sS'P280448'
p219
S'Thomas H. Cormen'
p220
sS'P225624'
p221
S'Peter Yanker'
p222
sS'P22325'
p223
S'Arun N. Swami'
p224
sS'P355753'
p225
S'Larry Dane Brimner'
p226
sS'P145991'
p227
S'John L. Sibert'
p228
sS'P61019'
p229
S'David Cline'
p230
sS'P60334'
p231
S'Dave Wroblewski'
p232
sS'P234373'
p233
S'R. Mitchell'
p234
sS'P159689'
p235
S'Ken-ichi Okada'
p236
sS'P33462'
p237
S'Bruce Hendrickson'
p238
sS'P200408'
p239
S'Mike Craven'
p240
sS'P239102'
p241
S'Randall B. Smith'
p242
sS'P21454'
p243
S'Aristides Gionis'
p244
sS'P15444'
p245
S'Allen D. Malony'
p246
sS'P643577'
p247
S'E. Gawlinski'
p248
sS'P306422'
p249
S'Yoram Moses'
p250
sS'P64183'
p251
S'David Ungar'
p252
sS'P17682'
p253
S'Andrew W. Appel'
p254
sS'P109606'
p255
S'Henry Lieberman'
p256
sS'P159920'
p257
S'Kenneth P. Birman'
p258
sS'P187458'
p259
S'Marc Levoy'
p260
sS'P58060'
p261
S'Dan Gusfield'
p262
sS'P93733'
p263
S'Gareth Smith'
p264
sS'P643609'
p265
S'R. Kevin McCabe'
p266
sS'P416800'
p267
S'Masahiro Takatsuka'
p268
sS'P31915'
p269
S'Brad A. Myers'
p270
sS'P63394'
p271
S'David Proft'
p272
sS'P438303'
p273
S'Daniel Keim'
p274
sS'P160425'
p275
S'Kenneth Utting'
p276
sS'P278835'
p277
S'Ted Selker'
p278
sS'P64373'
p279
S'David Williams'
p280
sS'P93284'
p281
S'Gabor T. Herman'
p282
sS'P169891'
p283
S'Laxmi Parida'
p284
sS'P137128'
p285
S'Jeannine Pinto'
p286
sS'P61973'
p287
S'David P. Helmbold'
p288
sS'P147232'
p289
S'Jonathan Furner'
p290
sS'P49282'
p291
S'Clayton Lewis'
p292
sS'P456941'
p293
S'Francis P. Boscoe'
p294
sS'P115641'
p295
S'Ian M. Soboroff'
p296
sS'P308426'
p297
S'Yutaka Matsushita'
p298
sS'P328311'
p299
S'Ulrick Barandes'
p300
sS'P33622'
p301
S'Bruce McKenzie'
p302
sS'P167944'
p303
S'L. Zhang'
p304
sS'P30991'
p305
S'Blair MacIntyre'
p306
sS'P222451'
p307
S'Paul Whitney'
p308
sS'P46090'
p309
S'Chris Hand'
p310
sS'P151571'
p311
S'Juris Reinfelds'
p312
sS'P38039'
p313
S'C. M. Pancake'
p314
sS'P21254'
p315
S'Aravindan Veerasamy'
p316
sS'P259151'
p317
S'Samuel Bayer'
p318
sS'P100785'
p319
S'Gustova Stolovitzky'
p320
sS'P218932'
p321
S'Padhraic Smyth'
p322
sS'P75982'
p323
S'Eileen Kraemer'
p324
sS'P573264'
p325
S'M. R. Ilgen'
p326
sS'P112532'
p327
S'Hua Su'
p328
sS'P176636'
p329
S'M. D. Apperley'
p330
sS'P198916'
p331
S'Michael Spenke'
p332
sS'P187423'
p333
S'Marc Kaltenbach'
p334
sS'P573469'
p335
S'T. Leibfried'
p336
sS'P152936'
p337
S'K. C. Cox'
p338
sS'P58197'
p339
S'Dan Platt'
p340
sS'P248369'
p341
S'Rolf Danielsson'
p342
sS'P573287'
p343
S'Marc Weber'
p344
sS'P425010'
p345
S'Allen D. Maloney'
p346
sS'P260900'
p347
S'Scott Hudson'
p348
sS'P55986'
p349
S'D. A. Roberts'
p350
sS'P113040'
p351
S'Hus Su'
p352
sS'P48241'
p353
S'Chuck Thier'
p354
sS'P10438'
p355
S'Abigail Sellen'
p356
sS'P46262'
p357
S'Chris Olston'
p358
sS'P116372'
p359
S'Indranil Chakravarty'
p360
sS'P300695'
p361
S'Wojciech Basalaj'
p362
sS'P305301'
p363
S'Yehuda Koren'
p364
sS'P10526'
p365
S'Achilleas Papakostas'
p366
sS'P133254'
p367
S'James Pitkow'
p368
sS'P643582'
p369
S'Gordon V. Bancroft'
p370
sS'P133851'
p371
S'James A. Wise'
p372
sS'P18101'
p373
S'Andrew Layman'
p374
sS'P139408'
p375
S'Jessie B. Kennedy'
p376
sS'P62263'
p377
S'David Kamins'
p378
sS'P100960'
p379
S'Guy Vaysseix'
p380
sS'P223691'
p381
S'Peter Braun'
p382
sS'P317034'
p383
S'D. F. Scollan'
p384
sS'P268645'
p385
S'Stephen C. North'
p386
sS'P162803'
p387
S'Konrad Slind'
p388
sS'P196535'
p389
S'Michael D. Byrne'
p390
sS'P271709'
p391
S'Surajit Chaudhuri'
p392
sS'P573217'
p393
S'K. Pennock'
p394
sS'P55930'
p395
S'D. B. Rex'
p396
sS'P285087'
p397
S'Trevor J. Davis'
p398
sS'P368727'
p399
S'Hen'
p400
sS'P499638'
p401
S'Ugur Dogrus\xc3\xb6z'
p402
sS'P573276'
p403
S'M. Pottier'
p404
sS'P280294'
p405
S'Thomas Berlage'
p406
sS'P62732'
p407
S'David Maier'
p408
sS'P573031'
p409
S'D. A. Rushall'
p410
sS'P18516'
p411
S'Andrew Witkin'
p412
sS'P14289'
p413
S'Alexander S. Szalay'
p414
sS'P18921'
p415
S'Angela Boltman'
p416
sS'P187299'
p417
S'Marc H. Brown'
p418
sS'P301689'
p419
S'Xia Lin'
p420
sS'P25792'
p421
S'B. H. McCormick'
p422
sS'P70180'
p423
S'Dragutin Petkovic'
p424
sS'P49467'
p425
S'Clifford Stein'
p426
sS'P69361'
p427
S'Dorothea Wagner'
p428
sS'P242695'
p429
S'Richard G. Palmer'
p430
sS'P131935'
p431
S'James S. Collofello'
p432
sS'P304694'
p433
S'Yannis E. Ioannidis'
p434
sS'P448313'
p435
S'Carsten Friedrich'
p436
sS'P422317'
p437
S'Jefrey Vroom'
p438
sS'P230677'
p439
S'R. Daniel Bergeron'
p440
sS'P442689'
p441
S'Alvis Brazma'
p442
sS'P146822'
p443
S'Jon Louis Bentley'
p444
sS'P266323'
p445
S'Sougata Mukherjea'
p446
sS'P394977'
p447
S'B. Fenner'
p448
sS'P466509'
p449
S'James Agutter'
p450
sS'P58248'
p451
S'Dan Shapiro'
p452
sS'P999999'
p453
S'U. Wiss'
p454
sS'P573040'
p455
S'David Strayer'
p456
sS'P191495'
p457
S'Markus H. Gross'
p458
sS'P86082'
p459
S'Frank Pellow'
p460
sS'P87141'
p461
S'Frits H. Post'
p462
sS'P64995'
p463
S'Deborah R. Fowler'
p464
sS'P39480'
p465
S'C. K. Wong'
p466
sS'P300211'
p467
S'William C. Wake'
p468
sS'P504109'
p469
S'Young-Min Song'
p470
sS'P181534'
p471
S'M. L. Matthews'
p472
sS'P188513'
p473
S'Margaret-Anne D. Storey'
p474
sS'P61351'
p475
S'David S. Ebert'
p476
sS'P194963'
p477
S'Maureen C. Stone'
p478
sS'P247806'
p479
S'Roger Crawfis'
p480
sS'P15294'
p481
S'Allan Kuchinsky'
p482
sS'P64423'
p483
S'David C. M. Wood'
p484
sS'P422175'
p485
S'David Schlegel'
p486
sS'P58183'
p487
S'Dan R. Olsen'
p488
sS'P108629'
p489
S'Heidrun Schumann'
p490
sS'P46578'
p491
S'Christian A. Duncan'
p492
sS'P160462'
p493
S'Kenneth Wood'
p494
sS'P280919'
p495
S'Thomas A. Joseph'
p496
sS'P392018'
p497
S'Marylyn E. McGill'
p498
sS'P123644'
p499
S'J. G. Hollands'
p500
sS'P20660'
p501
S'Anton Eli\xc3\xabns'
p502
sS'P170179'
p503
S'Lee Westover'
p504
sS'P291365'
p505
S'Vincent A. Guarna, Jr.'
p506
sS'P364772'
p507
S'Carl Burnham'
p508
sS'P145960'
p509
S'John Paul Shen'
p510
sS'P241419'
p511
S'Richard A. Becker'
p512
sS'P59313'
p513
S'Daniel M. Russell'
p514
sS'P29533'
p515
S'Bernd Lintermann'
p516
sS'P33104'
p517
S'Brian N. Wylie'
p518
sS'P187648'
p519
S'Marc-Antoine Parent'
p520
sS'P147125'
p521
S'Jonathan Ashley'
p522
sS'P281357'
p523
S'Thomas J. Overbye'
p524
sS'P207209'
p525
S'Naoki Shibata'
p526
sS'P86145'
p527
S'Frank M. Shipman, III'
p528
sS'P173848'
p529
S'Luc Devroye'
p530
sS'P496745'
p531
S'T. Strasser'
p532
sS'P169127'
p533
S'Laura T. Ring'
p534
sS'P213559'
p535
S'P. Abel'
p536
sS'P15498'
p537
S'Allen Van Gelder'
p538
sS'P95839'
p539
S'George Otto'
p540
sS'P368178'
p541
S'Giuseppe Di Battista'
p542
sS'P245454'
p543
S'Robert R. Korfhage'
p544
sS'P53060'
p545
S'D. Donjerkovic'
p546
sS'P501877'
p547
S'Wendy S. Ark'
p548
sS'P60561'
p549
S'David Beard'
p550
sS'P266789'
p551
S'Staffan Bj\xc3\xb6rk'
p552
sS'P549630'
p553
S'Allen R. Martin'
p554
sS'P58912'
p555
S'Daniel P. Huttenlocher'
p556
sS'P68529'
p557
S'Donald Ervin Knuth'
p558
sS'P159248'
p559
S'Kellogg S. Booth'
p560
sS'P13911'
p561
S'Alexander Aiken'
p562
sS'P201750'
p563
S'Miron Livny'
p564
sS'P212078'
p565
S'Olov St\xc3\xa5hl'
p566
sS'P507625'
p567
S'Varun Saini'
p568
sS'P465902'
p569
S'J. P. Paris'
p570
sS'P579053'
p571
S'Guy Melancon'
p572
sS'P283627'
p573
S'Tom Meyer'
p574
sS'P173072'
p575
S'Loren Carpenter'
p576
sS'P163321'
p577
S'Kristofer Franz\xc3\xa9n'
p578
sS'P194513'
p579
S'Matthew A. Goldberg'
p580
sS'P206576'
p581
S'Naeem Shareef'
p582
sS'P269137'
p583
S'Steve Bryson'
p584
sS'P30422'
p585
S'Bill Gates'
p586
sS'P62221'
p587
S'David K. Johnson'
p588
sS'P273940'
p589
S'T. T. Carey'
p590
sS'P220113'
p591
S'Patricia Schank'
p592
sS'P413048'
p593
S'Linda Pickle'
p594
sS'P24614'
p595
S'B. DasGupta'
p596
sS'P223495'
p597
S'Peter \xc3\x98rb\xc3\xa6k'
p598
sS'P269823'
p599
S'Steven K. Feiner'
p600
sS'P37652'
p601
S'C. A. McCann'
p602
sS'P643562'
p603
S'T. Mihalisin'
p604
sS'P596917'
p605
S'Anne Brueggemann-Klein'
p606
sS'P93543'
p607
S'Gail Reynard'
p608
sS'P327722'
p609
S'Scott A. Guyer'
p610
sS'P342859'
p611
S'Woodie C. Flowers'
p612
sS'P562400'
p613
S'James H. Garrett Jr.'
p614
sS'P5110'
p615
S'A. Kaufman'
p616
sS'P511630'
p617
S'Reinhard Sainitzer'
p618
sS'P58480'
p619
S'Daniel G. Aliaga'
p620
sS'P50498'
p621
S'Craig Upson'
p622
sS'P208397'
p623
S'Nicholas J. Belkin'
p624
sS'P117429'
p625
S'Ivan Herman'
p626
sS'P60891'
p627
S'David Carr'
p628
sS'P72983'
p629
S'E. L. Miller'
p630
sS'P158895'
p631
S'Keith Andrews'
p632
sS'P339934'
p633
S'Hank Hoek'
p634
sS'P573255'
p635
S'M. B. Burks'
p636
sS'P286704'
p637
S'Ulrik Brandes'
p638
sS'P422521'
p639
S'Randall M. Rohrer'
p640
sS'P60514'
p641
S'David Baraff'
p642
sS'P77263'
p643
S'Emanuel G. Noik'
p644
sS'P23315'
p645
S'Ayellet Tal'
p646
sS'P211796'
p647
S'Oliver Deussen'
p648
sS'P117392'
p649
S'Ivan Bretan'
p650
sS'P247663'
p651
S'Rodrigo A. Botafogo'
p652
sS'P573494'
p653
S'V. Anupam'
p654
sS'P361665'
p655
S'Ari Halberstadt'
p656
sS'P573496'
p657
S'V. Crow'
p658
sS'P43667'
p659
S'Charles E. Leiserson'
p660
sS'P283968'
p661
S'Tomihisa Kamada'
p662
sS'P96421'
p663
S'Gerald L. Lohse'
p664
sS'P573492'
p665
S'Todd Barlow'
p666
sS'P257593'
p667
S'S. Utter'
p668
sS'P185741'
p669
S'Maarten van Dantzich'
p670
sS'P465743'
p671
S'J. P. Lee'
p672
sS'P79285'
p673
S'Eskinder Sahle'
p674
sS'P378471'
p675
S'Timothy Briggs'
p676
sS'P200330'
p677
S'Mikako Harada'
p678
sS'P142560'
p679
S'Johannes Battjes'
p680
sS'P264765'
p681
S'Shumin Zhai'
p682
sS'P305782'
p683
S'Ying Li'
p684
sS'P78259'
p685
S'Eric Lecolinet'
p686
sS'P416667'
p687
S'Robert Schulman'
p688
sS'P44203'
p689
S'Charlie Gunn'
p690
sS'P275012'
p691
S'T. Alan Keahey'
p692
sS'P99212'
p693
S'Graham J. Wills'
p694
sS'P78910'
p695
S'Erik Wistrand'
p696
sS'P249221'
p697
S'Ronald L. Rivest'
p698
sS'P47308'
p699
S'Christoph Pfranger'
p700
sS'P107530'
p701
S'Harlan Foote'
p702
sS'P168592'
p703
S'Larry Masinter'
p704
sS'P109930'
p705
S'Herbert A. Simon'
p706
sS'P210210'
p707
S'Norman E. Fenton'
p708
sS'P573084'
p709
S'Florian Ledermann'
p710
sS'P12812'
p711
S'Alan Su'
p712
sS'P68131'
p713
S'Don Reichart'
p714
sS'P86368'
p715
S'Frans J. M. van der Wel'
p716
sS'P573088'
p717
S'Francois Guimbretiere'
p718
sS'P110338'
p719
S'Hidekazu Shiozawa'
p720
sS'P59688'
p721
S'Danny Ayers'
p722
sS'P128443'
p723
S'J. J. Thomas'
p724
sS'P572885'
p725
S'A. Badre'
p726
sS'P573317'
p727
S'Noah Syroid'
p728
sS'P28588'
p729
S'Ben E. Cline'
p730
sS'P139655'
p731
S'Jian Huang'
p732
sS'P162173'
p733
S'Klara Kedem'
p734
sS'P239621'
p735
S'Ravinder Bhogal'
p736
sS'P283259'
p737
S'Todd Veldhuizen'
p738
sS'P283825'
p739
S'Tom\xc3\xa1s Isakowitz'
p740
sS'P160097'
p741
S'Kenneth P. Herndon'
p742
sS'P238204'
p743
S'Rakesh Agrawal'
p744
sS'P49354'
p745
S'Cleotilde Gonzalez'
p746
sS'P43203'
p747
S'Charles Grant Brown'
p748
sS'P109156'
p749
S'Helwig Hauser'
p750
sS'P96664'
p751
S'Gerard Salton'
p752
sS'P335624'
p753
S'Lucy Nowell'
p754
sS'P344298'
p755
S'James A. Jones'
p756
sS'P9491'
p757
S'A. Wong'
p758
sS'P232840'
p759
S'R. J. Hendley'
p760
sS'P280938'
p761
S'Thomas Kamps'
p762
sS'P219805'
p763
S'Pat Hanrahan'
p764
sS'P9496'
p765
S'A. M. Wood'
p766
sS'P13073'
p767
S'Albert Ho'
p768
sS'P608295'
p769
S'Douglas J. Cork'
p770
sS'P262903'
p771
S'Sharon J. Laskowski'
p772
sS'P239824'
p773
S'Raymon Masters'
p774
sS'P123305'
p775
S'J. M. Hammer'
p776
sS'P77449'
p777
S'Emmanuel Barillot'
p778
sS'P573178'
p779
S'Jack Gundrum'
p780
sS'P573179'
p781
S'James Eagan'
p782
sS'P244619'
p783
S'Robert DeLine'
p784
sS'P20144'
p785
S'Anselm Spoerri'
p786
sS'P19895'
p787
S'Anne Rose'
p788
sS'P65018'
p789
S'Deborah Hix'
p790
sS'P18742'
p791
S'Andy Cockburn'
p792
sS'P643579'
p793
S'Fergus J. Merritt'
p794
sS'P142064'
p795
S'Joe Mattis'
p796
sS'P221003'
p797
S'Paul Burchard'
p798
sS'P142060'
p799
S'Joe Marks'
p800
sS'P37070'
p801
S'C. Peter Keller'
p802
sS'P71230'
p803
S'E. Bannai'
p804
sS'P254852'
p805
S'S. Lawande'
p806
sS'P203769'
p807
S'Myron Flickner'
p808
sS'P333992'
p809
S'Teresa Bleser'
p810
sS'P262884'
p811
S'Sharon R. Garber'
p812
sS'P14342'
p813
S'Alexander Willett'
p814
sS'P63826'
p815
S'David Sinclair'
p816
sS'P528641'
p817
S'R. Kazman'
p818
sS'P109611'
p819
S'Henry C. Lucas, Jr.'
p820
sS'P371396'
p821
S'Karl Avedal'
p822
sS'P173985'
p823
S'Luca Vismara'
p824
sS'P196751'
p825
S'Michael Davis'
p826
sS'P477708'
p827
S'Marc Hansen'
p828
sS'P305767'
p829
S'Ying Feng'
p830
sS'P21445'
p831
S'Aris Floratos'
p832
sS'P238722'
p833
S'Ramana Rao'
p834
sS'P21449'
p835
S'Aristid Lindenmayer'
p836
sS'P280273'
p837
S'Thomas Baudel'
p838
sS'P260611'
p839
S'Saul A. Teukolsky'
p840
sS'P247234'
p841
S'Roberto Tamassia'
p842
sS'P142351'
p843
S'Joemon M. Jose'
p844
sS'P160797'
p845
S'Kevin W. Arthur'
p846
sS'P207886'
p847
S'Neff Walker'
p848
sS'P164294'
p849
S'Kyuseok Shim'
p850
sS'P172581'
p851
S'Lisa Tweedie'
p852
sS'P155822'
p853
S'K. Wong'
p854
sS'P144264'
p855
S'John Hertz'
p856
sS'P414344'
p857
S'Chang-Sung Jeong'
p858
sS'P85248'
p859
S'Francesmary Modugno'
p860
sS'P338272'
p861
S'Barry Becker'
p862
sS'P42092'
p863
S'Catherine C. Marshall'
p864
sS'P50519'
p865
S'Craig M. Wittenbrink'
p866
sS'P547014'
p867
S'A. Teyseyre'
p868
sS'P224571'
p869
S'Peter Krogh'
p870
sS'P190105'
p871
S'Mark Derthick'
p872
sS'P198482'
p873
S'Michael Potmesil'
p874
sS'P470653'
p875
S'Julio Bermudez'
p876
sS'P75581'
p877
S'Edward Tufte'
p878
sS'P150480'
p879
S'Judy Kay'
p880
sS'P96398'
p881
S'Gerald M. Karam'
p882
sS'P248681'
p883
S'Ron R. Hightower'
p884
sS'P78576'
p885
S'Eric A. Wernert'
p886
sS'P367997'
p887
S'George Edward Pelham Box'
p888
sS'P145434'
p889
S'John K. Ousterhout'
p890
sS'P206639'
p891
S'Nahum Gershon'
p892
sS'P298694'
p893
S'William Buxton'
p894
sS'P109538'
p895
S'Henry Fuchs'
p896
sS'P375644'
p897
S'Ray Haynes'
p898
sS'P43568'
p899
S'Charles E. Jacobs'
p900
sS'P200466'
p901
S'Mike Fraser'
p902
sS'P268702'
p903
S'Stephen Pizer'
p904
sS'P474753'
p905
S'Leonid Ulitsky'
p906
sS'P306682'
p907
S'Yoshinori Hara'
p908
sS'P21240'
p909
S'Aran Lunzer'
p910
sS'P75202'
p911
S'Edward A. Fox'
p912
sS'P79076'
p913
S'Ernest Retzel'
p914
sS'P221678'
p915
S'Paul Kruszewski'
p916
sS'P244867'
p917
S'Robert K. France'
p918
sS'P173601'
p919
S'Louis C. Vroomen'
p920
sS'P290421'
p921
S'Venky Harinarayan'
p922
sS'P278221'
p923
S'Tamara Munzner'
p924
sS'P573453'
p925
S'Steven R. Corman'
p926
sS'P135155'
p927
S'Janusz Wnek'
p928
sS'P573455'
p929
S'Stuart J. Rose'
p930
sS'P69536'
p931
S'Doug Schaffer'
p932
sS'P294966'
p933
S'W. B. Rouse'
p934
sS'P572919'
p935
S'A. Schur'
p936
sS'P643537'
p937
S'John Michalak'
p938
sS'P643532'
p939
S'J. Schwegler'
p940
sS'P98679'
p941
S'Gonzalo Navarro'
p942
sS'P174793'
p943
S'Lynette Hirschman'
p944
sS'P573332'
p945
S'P. Cotture'
p946
sS'P572910'
p947
S'A. Pernicks'
p948
sS'P252998'
p949
S'S. Dar'
p950
sS'P280281'
p951
S'Thomas Bemmerl'
p952
sS'P237355'
p953
S'Rachna Dhamija'
p954
sS'P202708'
p955
S'Monika B\xc3\xbcscher'
p956
sS'P398954'
p957
S'Isaac Brewer'
p958
sS'P58874'
p959
S'Daniel Haug'
p960
sS'P196780'
p961
S'Michael L. Dertouzos'
p962
sS'P169789'
p963
S'Lawrence J. Rosenblum'
p964
sS'P120437'
p965
S'J. Bertin'
p966
sS'P286936'
p967
S'Usama M. Fayyad'
p968
sS'P549550'
p969
S'A. Varshney'
p970
sS'P209431'
p971
S'Nina Amenta'
p972
sS'P156277'
p973
S'Kaj Gr\xc3\xb8nb\xc3\xa6k'
p974
sS'P128972'
p975
S'J. Q. Walker, II'
p976
sS'P29231'
p977
S'Bernard Dimsdale'
p978
sS'P40574'
p979
S'Can Keskin'
p980
sS'P117166'
p981
S'Isidore Rigoutsos'
p982
sS'P373292'
p983
S'Mary M. Keller'
p984
sS'P573204'
p985
S'Julie Yang-Pel\xc3\xa1ez'
p986
sS'P63144'
p987
S'David Notkin'
p988
sS'P573206'
p989
S'J\xc3\xb6rn Schneidewind'
p990
sS'P149483'
p991
S'Joseph L. Steffen'
p992
sS'P61269'
p993
S'David Dobkin'
p994
sS'P573202'
p995
S'Julain Ladisch'
p996
sS'P999998'
p997
S'D. A. Carr'
p998
sS'P171045'
p999
S'Leslie Lamport'
p1000
sS'P573149'
p1001
S'J. Finger'
p1002
sS'P573027'
p1003
S'D. Lantrip'
p1004
sS'P573021'
p1005
S'D. Hackborn'
p1006
sS'P573143'
p1007
S'J. Croall'
p1008
sS'P573142'
p1009
S'J. Carriere'
p1010
sS'P54778'
p1011
S'D. Loisel'
p1012
sS'P195684'
p1013
S'Meichun Hsu'
p1014
sS'P160215'
p1015
S'Kenneth M. Martin'
p1016
sS'P284947'
p1017
S'Tova Avidan'
p1018
sS'P62419'
p1019
S'David S. Kosbie'
p1020
sS'P192966'
p1021
S'Mary L. Bailey'
p1022
sS'P457399'
p1023
S'Franz-Josef Brandenburg'
p1024
sS'P194288'
p1025
S'Mats Lind'
p1026
sS'P11952'
p1027
S'Al Globus'
p1028
sS'P447167'
p1029
S'Bruce Leban'
p1030
sS'P66646'
p1031
S'Diane Tang'
p1032
sS'P147077'
p1033
S'Jon Zou'
p1034
sS'P365119'
p1035
S'Childrens Press'
p1036
sS'P475072'
p1037
S'Liran Carmel'
p1038
sS'P62495'
p1039
S'David Laidlaw'
p1040
sS'P280182'
p1041
S'Thom Grace'
p1042
sS'P194778'
p1043
S'Matthias Hemmje'
p1044
sS'P120983'
p1045
S'J. Callahan'
p1046
sS'P49314'
p1047
S'Clemens Kunkel'
p1048
sS'P76836'
p1049
S'Elizabeth Shoop'
p1050
sS'P78888'
p1051
S'Erik Thomsen'
p1052
sS'P29735'
p1053
S'Bernice E. Rogowitz'
p1054
sS'P56512'
p1055
S'D. J. Spiegelhalter'
p1056
sS'P307553'
p1057
S'Yuan Gao'
p1058
sS'P32208'
p1059
S'Brenda Laurel'
p1060
sS'P250746'
p1061
S'Ryan Baxter'
p1062
sS'P250745'
p1063
S'Ryan S. Baker'
p1064
sS'P339321'
p1065
S'Ka-Ping Yee'
p1066
sS'P207303'
p1067
S'Naphtali Rishe'
p1068
sS'P177411'
p1069
S'M. D. Brown'
p1070
sS'P109656'
p1071
S'Henry H. Rueter'
p1072
sS'P29946'
p1073
S'Beth Hetzler'
p1074
sS'P388072'
p1075
S'Anders S. Krogh'
p1076
sS'P226873'
p1077
S'Phillip Barry'
p1078
sS'P77049'
p1079
S'Elliot J. Chikofsky'
p1080
sS'P141918'
p1081
S'Jock Mackinlay'
p1082
sS'P300312'
p1083
S'William York'
p1084
sS'P2394'
p1085
S'A. Bookstein'
p1086
sS'P190979'
p1087
S'Mark Roseman'
p1088
sS'P260891'
p1089
S'Scott Henninger'
p1090
sS'P187155'
p1091
S'Mao Lin Huang'
p1092
sS'P262246'
p1093
S'Seth Widoff'
p1094
sS'P49409'
p1095
S'Clifford Beshers'
p1096
sS'P269352'
p1097
S'Steve Lawrence'
p1098
sS'P208934'
p1099
S'Nicole Yankelovich'
p1100
sS'P95484'
p1101
S'George W. Furnas'
p1102
sS'P132223'
p1103
S'James D. Foley'
p1104
sS'P86676'
p1105
S'Fred Petry'
p1106
sS'P254127'
p1107
S'S. Huang'
p1108
sS'P308348'
p1109
S'Yuriko Takeshima'
p1110
sS'P225001'
p1111
S'Peter Pirolli'
p1112
sS'P146109'
p1113
S'John Stasko'
p1114
sS'P39001'
p1115
S'C. C. Taylor'
p1116
sS'P245284'
p1117
S'Robert J. K. Jacob'
p1118
sS'P168847'
p1119
S'Lars Erik Holmquist'
p1120
sS'P643781'
p1121
S'Bao Gia Nguyen'
p1122
sS'P306536'
p1123
S'Yoshihiko Ichikawa'
p1124
sS'P515109'
p1125
S'Helmut Doleisch'
p1126
sS'P282032'
p1127
S'Tian Zhang'
p1128
sS'P87379'
p1129
S'Fusako Hirabayashi'
p1130
sS'P177594'
p1131
S'M. Sheelagh T. Carpendale'
p1132
sS'P19124'
p1133
S'Anil Nair'
p1134
sS'P43353'
p1135
S'Charles R. Dyer'
p1136
sS'P48043'
p1137
S'Christos Faloutsos'
p1138
sS'P161036'
p1139
S'Kevin Larson'
p1140
sS'P358220'
p1141
S'Robert L. Harris'
p1142
sS'P196601'
p1143
S'Michael Chen'
p1144
sS'P117016'
p1145
S'Isabel F. Cruz'
p1146
sS'P302504'
p1147
S'Xuemin Lin'
p1148
sS'P248405'
p1149
S'Rolf Koch'
p1150
sS'P643590'
p1151
S'Jeff Beddow'
p1152
sS'P327405'
p1153
S'J\xc3\xbcrgen Branke'
p1154
sS'P547430'
p1155
S'Dwayne Westenskow'
p1156
sS'P398046'
p1157
S'Ming Hao'
p1158
sS'P20682'
p1159
S'Anton Leuski'
p1160
sS'P138064'
p1161
S'Jeffrey D. Ullman'
p1162
sS'P75487'
p1163
S'Edward L. Robertson'
p1164
sS'P183788'
p1165
S'M. Sheelagh'
p1166
sS'P243325'
p1167
S'Richard M. Wilson'
p1168
sS'P76526'
p1169
S'Eliot Solomon'
p1170
sS'P46510'
p1171
S'Christian Beilken'
p1172
sS'P279080'
p1173
S'Teresa Mah'
p1174
sS'P96173'
p1175
S'Georges Grinstein'
p1176
sS'P68610'
p1177
S'Donald Michie'
p1178
sS'P550814'
p1179
S'J. M. Hellerstein'
p1180
sS'P299898'
p1181
S'William Ruh'
p1182
sS'P317210'
p1183
S'Jos\xc3\xa9 L. Marroqu\xc3\xadn'
p1184
sS'P133367'
p1185
S'James Roberg\xc3\xa9'
p1186
sS'P281425'
p1187
S'Thomas Porter'
p1188
sS'P241617'
p1189
S'Richard Chimera'
p1190
sS'P131909'
p1191
S'James H. Clark'
p1192
sS'P48629'
p1193
S'Cimarron Taylor'
p1194
sS'P170419'
p1195
S'Lennart E. Fahl\xc3\xa9n'
p1196
sS'P131535'
p1197
S'James Abello'
p1198
sS'P193037'
p1199
S'Mary Czerwinski'
p1200
sS'P60509'
p1201
S'David Banks'
p1202
sS'P17277'
p1203
S'Andreas Buja'
p1204
sS'P248713'
p1205
S'Ron Kohavi'
p1206
sS'P267773'
p1207
S'Stephan Kerpedjiev'
p1208
sS'P552775'
p1209
S'Theo Van Walsum'
p1210
sS'P261265'
p1211
S'Scott N. Woodfield'
p1212
sS'P60506'
p1213
S'David C. Banks'
p1214
sS'P453201'
p1215
S'Doanna Meads'
p1216
sS'P277957'
p1217
S'Takeo Igarashi'
p1218
sS'P299801'
p1219
S'William H. Press'
p1220
sS'P279588'
p1221
S'Teuvo Kohonen'
p1222
sS'P243148'
p1223
S'Richard C. Thomas'
p1224
sS'P181416'
p1225
S'M. Manyin'
p1226
sS'P573488'
p1227
S'Ted Tanasse'
p1228
sS'P425218'
p1229
S'James H. Cross II'
p1230
sS'P573062'
p1231
S'Edward R. Van Selow'
p1232
sS'P371337'
p1233
S'Kan Pimentel'
p1234
sS'P573068'
p1235
S'Ernst Kleiberg'
p1236
sS'P573340'
p1237
S'P. Luders'
p1238
sS'P144637'
p1239
S'John Kolojejchick'
p1240
sS'P89146'
p1241
S'G. Chen'
p1242
sS'P572942'
p1243
S'Andr\xc3\xa9 Skupin'
p1244
sS'P573346'
p1245
S'P. J. Stroffolino'
p1246
sS'P44212'
p1247
S'Charlie McDowell'
p1248
sS'P42125'
p1249
S'Catherine Plaisant'
p1250
sS'P196981'
p1251
S'Michael J. Flynn'
p1252
sS'P74902'
p1253
S'Eduard Hovy'
p1254
sS'P162366'
p1255
S'Klaus Reichenberger'
p1256
sS'P65707'
p1257
S'Dennis Gannon'
p1258
sS'P34285'
p1259
S'Byron Dom'
p1260
sS'P173344'
p1261
S'Lothar Rostek'
p1262
sS'P270747'
p1263
S'Stuart Pook'
p1264
sS'P246434'
p1265
S'Robert E. Sheehan'
p1266
sS'P343763'
p1267
S'Raimund Dachselt'
p1268
sS'P316942'
p1269
S'Andrej Cedilnik'
p1270
sS'P267504'
p1271
S'Stefan Zeiger'
p1272
sS'P271174'
p1273
S'Suguru Ishizaki'
p1274
sS'P572890'
p1275
S'A. H. Crabb'
p1276
sS'P191919'
p1277
S'Marti Hearst'
p1278
sS'P143674'
p1279
S'John D. M. Edwards'
p1280
sS'P390003'
p1281
S'Gwilym Jenkins'
p1282
sS'P144936'
p1283
S'John H. Maloney'
p1284
sS'P395282'
p1285
S'E. Hoffman'
p1286
sS'P309831'
p1287
S'Zhengping Zuo'
p1288
sS'P77285'
p1289
S'Emden R. Gansner'
p1290
sS'P250840'
p1291
S'Ryszard S. Michalski'
p1292
sS'P141428'
p1293
S'Joachim M. Buhmann'
p1294
sS'P203609'
p1295
S'Murugappan Palaniappan'
p1296
sS'P16174'
p1297
S'Amjad Daoud'
p1298
sS'P194797'
p1299
S'Matthias Kreuseler'
p1300
sS'P140403'
p1301
S'Jim Hollan'
p1302
sS'P198765'
p1303
S'Michael F. Schwartz'
p1304
sS'P143200'
p1305
S'John V. Carlis'
p1306
sS'P573119'
p1307
S'H. A. Sowizral'
p1308
sS'P225590'
p1309
S'Peter Wisnovsky'
p1310
sS'P213763'
p1311
S'P. Balasubramanian'
p1312
sS'P208157'
p1313
S'Nelson Max'
p1314
sS'P64168'
p1315
S'David Turo'
p1316
sS'P268092'
p1317
S'Stephen M. Casner'
p1318
sS'P77081'
p1319
S'Elliot Soloway'
p1320
sS'P425537'
p1321
S'Sven Moen'
p1322
sS'P135241'
p1323
S'Jarke J. van Wijk'
p1324
sS'P276857'
p1325
S'T. B. Walters'
p1326
sS'P291541'
p1327
S'Vinit Jain'
p1328
sS'P132751'
p1329
S'James M. Kukla'
p1330
sS'P14716'
p1331
S'Alfred Inselberg'
p1332
sS'P246447'
p1333
S'Robert A. Shillner'
p1334
sS'P192201'
p1335
S'Martin Graham'
p1336
sS'P272369'
p1337
S'Susanne Jul'
p1338
sS'P197441'
p1339
S'Michael E. Houle'
p1340
sS'P160714'
p1341
S'Kerry Rodden'
p1342
sS'P138882'
p1343
S'Jerome H. Friedman'
p1344
sS'P178140'
p1345
S'M. Delest'
p1346
sS'P60727'
p1347
S'David Brailsford'
p1348
sS'P527299'
p1349
S'Wolfgang M\xc3\xbcller'
p1350
sS'P361128'
p1351
S'Tova Roth'
p1352
sS'P204628'
p1353
S'N. S. Drew'
p1354
sS'P573188'
p1355
S'Jeffrey Senn'
p1356
sS'P573187'
p1357
S'Jeff Klingner'
p1358
sS'P270779'
p1359
S'Stuart Shieber'
p1360
sS'P394247'
p1361
S'William C. Cleveland'
p1362
sS'P151647'
p1363
S'Justin Zobel'
p1364
sS'P80040'
p1365
S'Ewa Callahan'
p1366
sS'P573181'
p1367
S'James K. Rayson'
p1368
sS'P573180'
p1369
S'James Harrison'
p1370
sS'P125936'
p1371
S'J. Myllymaki'
p1372
sS'P267385'
p1373
S'Stefan N\xc3\xa4her'
p1374
sS'P146794'
p1375
S'Jolly Chen'
p1376
sS'P302036'
p1377
S'Xiaolong Zhang'
p1378
sS'P28355'
p1379
S'Bastiaan Sch\xc3\xb6nhage'
p1380
sS'P141720'
p1381
S'Joanna Vasilakis'
p1382
sS'P137780'
p1383
S'Jeffrey Joyce'
p1384
sS'P41698'
p1385
S'Caroline Paxson'
p1386
sS'P223212'
p1387
S'Penny Rheingans'
p1388
sS'P31332'
p1389
S'Bob Spence'
p1390
sS'P244239'
p1391
S'Robert Bosch'
p1392
sS'P297313'
p1393
S'Wei-Ying Ma'
p1394
sS'P66171'
p1395
S'Derick Wood'
p1396
sS'P299195'
p1397
S'William C. Hill'
p1398
sS'P222852'
p1399
S'Pearl Pu'
p1400
sS'P299190'
p1401
S'William L. Hibbard'
p1402
sS'P191151'
p1403
S'Mark J. Stefik'
p1404
sS'P221082'
p1405
S'Paul Chitson'
p1406
sS'P132154'
p1407
S'James T. Enns'
p1408
sS'P163821'
p1409
S'Kurt Mehlhorn'
p1410
sS'P422121'
p1411
S'Bruce E. Brown'
p1412
sS'P54023'
p1413
S'D. Hopkins'
p1414
sS'P30329'
p1415
S'Bill Appelbe'
p1416
sS'P190884'
p1417
S'Mark Phillips'
p1418
sS'P48006'
p1419
S'Christopher Williamson'
p1420
sS'P13806'
p1421
S'Alex Pang'
p1422
sS'P529470'
p1423
S'J\xc3\xbcrgen Ebert'
p1424
sS'P421159'
p1425
S'Frank J. Post'
p1426
sS'P161205'
p1427
S'Kevin Smith'
p1428
sS'P33048'
p1429
S'Brian Unger'
p1430
sS'P231954'
p1431
S'R. Ernst'
p1432
sS'P160814'
p1433
S'Kevin Biolsi'
p1434
sS'P485738'
p1435
S'Patrick Madden'
p1436
sS'P197164'
p1437
S'Michael T. Goodrich'
p1438
sS'P643616'
p1439
S'Todd C. Plessel'
p1440
sS'P197160'
p1441
S'Michael Good'
p1442
sS'P68493'
p1443
S'Donald H. House'
p1444
sS'P69495'
p1445
S'Doug Kimelman'
p1446
sS'P187249'
p1447
S'Marc Abrams'
p1448
sS'P86287'
p1449
S'Frank,G. Halasz'
p1450
sS'P10635'
p1451
S'Adam Finkelstein'
p1452
sS'P378107'
p1453
S'T. Shiota'
p1454
sS'P372655'
p1455
S'M. Nitzberg'
p1456
sS'P206996'
p1457
S'Nancy Miller'
p1458
sS'P475248'
p1459
S'Lou Martucci'
p1460
sS'P199512'
p1461
S'Michel Beaudouin-Lafon'
p1462
sS'P65079'
p1463
S'Deborah Silver'
p1464
sS'P18196'
p1465
S'Andrew Moore'
p1466
sS'P47461'
p1467
S'Christopher Ahlberg'
p1468
sS'P328169'
p1469
S'Mark Handy'
p1470
sS'P170457'
p1471
S'Lenwood S. Heath'
p1472
sS'P20012'
p1473
S'Annemarie Herrmann'
p1474
sS'P303426'
p1475
S'Y. K. Leung'
p1476
sS'P573528'
p1477
S'Wendy Cowley'
p1478
sS'P284281'
p1479
S'Tony D. DeRose'
p1480
sS'P223328'
p1481
S'Per-Kristian Halvorsen'
p1482
sS'P573524'
p1483
S'W. Wright'
p1484
sS'P342898'
p1485
S'Denis Lalanne'
p1486
sS'P61896'
p1487
S'David J. Harper'
p1488
sS'P136466'
p1489
S'Jean-Daniel Fekete'
p1490
sS'P17980'
p1491
S'Andrew J. Hanson'
p1492
sS'P159548'
p1493
S'Ken Perlin'
p1494
sS'P62163'
p1495
S'David Jablonowski'
p1496
sS'P236907'
p1497
S'R. L. Winslow'
p1498
sS'P345085'
p1499
S'Sandeep Prabhakar'
p1500
sS'P327358'
p1501
S'Guillermo A. Averboch'
p1502
sS'P107778'
p1503
S'Harpreet Sawhney'
p1504
sS'P42765'
p1505
S'Chandu Karadi'
p1506
sS'P137799'
p1507
S'Jeffrey Korn'
p1508
sS'P218545'
p1509
S'P. Wolf'
p1510
sS'P63937'
p1511
S'David Steele'
p1512
sS'P572900'
p1513
S'A. J. Kolojechick'
p1514
sS'P121955'
p1515
S'J. Dodge'
p1516
sS'P25750'
p1517
S'B. S. Manjunath'
p1518
sS'P159422'
p1519
S'Ken Fishkin'
p1520
sS'P238744'
p1521
S'Ramasamy Uthurusamy'
p1522
sS'P67578'
p1523
S'Divesh Srivastava'
p1524
sS'P79621'
p1525
S'Eugene Stanley'
p1526
sS'P32711'
p1527
S'Brian Johnson'
p1528
sS'P260595'
p1529
S'Saul Greenberg'
p1530
sS'P572992'
p1531
S'C. Russo dos Santos'
p1532
sS'P155762'
p1533
S'K. Wenger'
p1534
sS'P487877'
p1535
S'Qing-Wen Feng'
p1536
sS'P572997'
p1537
S'Camilla Forsell'
p1538
sS'P508337'
p1539
S'K.-P. Vo'
p1540
sS'P75893'
p1541
S'Ehud Rivlin'
p1542
sS'P227961'
p1543
S'Pourang Irani'
p1544
sS'P422541'
p1545
S'Robert Gurwitz'
p1546
sS'P268230'
p1547
S'Stephen G. Eick'
p1548
sS'P115664'
p1549
S'Ian Taylor'
p1550
sS'P247317'
p1551
S'Robin L. Kullberg'
p1552
sS'P573233'
p1553
S'Kreimir Matkovic'
p1554
sS'P2329'
p1555
S'A. Blake'
p1556
sS'P271764'
p1557
S'Suresh K. Lodha'
p1558
sS'P573237'
p1559
S'L. J. Johnston'
p1560
sS'P140361'
p1561
S'Jim Gray'
p1562
sS'P299459'
p1563
S'William E. Lorensen'
p1564
sS'P643561'
p1565
S'T. Lasinski'
p1566
sS'P230591'
p1567
S'R. Beale'
p1568
sS'P144705'
p1569
S'John Lamping'
p1570
sS'P285684'
p1571
S'Tyson R. Henry'
p1572
sS'P181080'
p1573
S'M. Li'
p1574
sS'P237998'
p1575
S'Rajeev Motwani'
p1576
sS'P505041'
p1577
S'Zvi Polunsky'
p1578
sS'P188133'
p1579
S'Marcus Haupt'
p1580
sS'P298174'
p1581
S'Wiebke M\xc3\xb6hr'
p1582
sS'P569393'
p1583
S'D. F. Jerding'
p1584
sS'P246404'
p1585
S'Robert Sedgewick'
p1586
sS'P164152'
p1587
S'Kyoko Nakamura'
p1588
sS'P65458'
p1589
S'Denis Lee'
p1590
sS'P577440'
p1591
S'James Wen'
p1592
sS'P128597'
p1593
S'J. Tromp'
p1594
sS'P131687'
p1595
S'James E. Bennett'
p1596
sS'P339922'
p1597
S'Dee Jay Randall'
p1598
sS'P222728'
p1599
S'Pavel Berkhin'
p1600
sS'P573113'
p1601
S'Greg Ross'
p1602
sS'P281620'
p1603
S'Thomas Seidl'
p1604
sS'P298076'
p1605
S'Werner Stuetzle'
p1606
sS'P300239'
p1607
S'William J. Weiland'
p1608
sS'P482738'
p1609
S'N. Trichaud'
p1610
sS'P573301'
p1611
S'Monika B\xc3\xbcscher'
p1612
sS'P573300'
p1613
S'Monica Tavanti'
p1614
sS'P573303'
p1615
S'N. Alper'
p1616
sS'P270635'
p1617
S'Stuart Card'
p1618
sS'P192713'
p1619
S'Martin Wattenberg'
p1620
sS'P192305'
p1621
S'Martin Juvan'
p1622
sS'P43749'
p1623
S'Charles E. Meyers'
p1624
sS'P263260'
p1625
S'Shelli Dubs'
p1626
sS'P528656'
p1627
S'R. Orosco'
p1628
sS'P302830'
p1629
S'Y. Alp Aslandogan'
p1630
sS'P319187'
p1631
S'D. Day'
p1632
sS'P108350'
p1633
S'Hausi A. M\xc3\xbcller'
p1634
sS'P305826'
p1635
S'Ying-Huey Fua'
p1636
sS'P266847'
p1637
S'Stan Letovsky'
p1638
sS'P386218'
p1639
S'Kevin W. Boyack'
p1640
sS'P422257'
p1641
S'Hans-Peter Krigel'
p1642
sS'P12980'
p1643
S'Albert Badro'
p1644
sS'P99888'
p1645
S'Gregory Piatetsky-Shapiro'
p1646
sS'P298389'
p1647
S'Will Schroeder'
p1648
sS'P31473'
p1649
S'Bojan Mohar'
p1650
sS'P201858'
p1651
S'Mitch B. Grunes'
p1652
sS'P283451'
p1653
S'Tom Dietterich'
p1654
sS'P226688'
p1655
S'Philippe Flajolet'
p1656
sS'P203471'
p1657
S'Murali Venkatrao'
p1658
sS'P64087'
p1659
S'David Thiel'
p1660
sS'P59778'
p1661
S'Danyel Fisher'
p1662
sS'P605971'
p1663
S'Dachywan Wu'
p1664
sS'P225799'
p1665
S'Petros Faloutsos'
p1666
sS'P63248'
p1667
S'David A. Patterson'
p1668
sS'P596408'
p1669
S'Charles Spirakis'
p1670
sS'P421191'
p1671
S'M. Eduard Gr\xc3\xb6ller'
p1672
sS'P47038'
p1673
S'Christine Diehl'
p1674
sS'P421193'
p1675
S'M. Scott Marshall'
p1676
sS'P134270'
p1677
S'Jan Puzicha'
p1678
sS'P269119'
p1679
S'Steve Benford'
p1680
sS'P200182'
p1681
S'Miguel Santana'
p1682
sS'P199957'
p1683
S'Michelle Q. Wang Baldonado'
p1684
sS'P354952'
p1685
S'John A. Hartigan'
p1686
sS'P121439'
p1687
S'J. H. Conway'
p1688
sS'P173828'
p1689
S'Luc Beaudoin'
p1690
sS'P106482'
p1691
S'Hamid Pirahesh'
p1692
sS'P14721'
p1693
S'Alfred Kobsa'
p1694
sS'P147188'
p1695
S'Jonathan D. Cohen'
p1696
sS'P77468'
p1697
S'Emmanuel Fr\xc3\xa9con'
p1698
sS'P422617'
p1699
S'Thomas Faulhaber, Jr.'
p1700
sS'P224682'
p1701
S'Peter Lucas'
p1702
sS'P187586'
p1703
S'Marc P. Stevens'
p1704
sS'P349300'
p1705
S'Randy L. Ribler'
p1706
sS'P75845'
p1707
S'Egemen Tanin'
p1708
sS'P28611'
p1709
S'Ben G. H. Gorte'
p1710
sS'P536695'
p1711
S'Jamie D. Weber'
p1712
sS'P218969'
p1713
S'Pak Chung Wong'
p1714
sS'P148747'
p1715
S'Joseph M. Ballay'
p1716
sS'P143555'
p1717
S'John Dill'
p1718
sS'P298777'
p1719
S'William S. Cleveland'
p1720
sS'P55261'
p1721
S'D. Mumford'
p1722
sS'P196614'
p1723
S'Michael Christensen'
p1724
sS'P272623'
p1725
S'Sven Fuhrmann'
p1726
sS'P174743'
p1727
S'Lyn Bartram'
p1728
sS'P144244'
p1729
S'John L. Hennessy'
p1730
sS'P172684'
p1731
S'Liujian Qian'
p1732
sS'P270242'
p1733
S'Steven P. Reiss'
p1734
sS'P327994'
p1735
S'Galina Shubina'
p1736
sS'P274142'
p1737
S'T. A. DeFanti'
p1738
sS'P200206'
p1739
S'Mihael Ankerst'
p1740
sS'P246990'
p1741
S'Robert Zeleznik'
p1742
sS'P306020'
p1743
S'Yogesh Gaur'
p1744
sS'P32602'
p1745
S'Brian P. Flannery'
p1746
sS'P197332'
p1747
S'Michael T. Heath'
p1748
sS'P346684'
p1749
S'Robert Kosara'
p1750
sS'P28685'
p1751
S'Ben Shneiderman'
p1752
sS'P237644'
p1753
S'Raghu Ramakrishnan'
p1754
sS'P464499'
p1755
S'Ira Smotroff'
p1756
sS'P314776'
p1757
S'Chiemi Watanabe'
p1758
sS'P201630'
p1759
S'Mira Vossers'
p1760
sS'P74380'
p1761
S'Earl Rennison'
p1762
sS'P553648'
p1763
S'Frank Drews'
p1764
sS'P82211'
p1765
S'F. J. Newbery'
p1766
sS'P337868'
p1767
S'Chris Stolte'
p1768
sS'P77911'
p1769
S'Eric A. Bier'
p1770
sS'P131144'
p1771
S'Jade Goldstein'
p1772
sS'P28374'
p1773
S'Bay-Wei Chang'
p1774
sS'P99458'
p1775
S'Greg Lomow'
p1776
sS'P107222'
p1777
S'Hans-Peter Kriegel'
p1778
sS'P247318'
p1779
S'Robin Lampert'
p1780
sS'P206001'
p1781
S'N. J. A. Sloane'
p1782
sS'P138075'
p1783
S'Jeffrey Scott Vitter'
p1784
sS'P223968'
p1785
S'Peter Eades'
p1786
sS'P65623'
p1787
S'Dennis J. Brueni'
p1788
sS'P137011'
p1789
S'Jean-Yves Vion-Dury'
p1790
sS'P596396'
p1791
S'Allan Tuan'
p1792
sS'P285251'
p1793
S'Trung A. Diep'
p1794
sS'P364260'
p1795
S'Blaine A. Price'
p1796
sS'P62645'
p1797
S'David Littman'
p1798
sS'P63622'
p1799
S'David H. Salesin'
p1800
sS'P422060'
p1801
S'Alan Keahey'
p1802
sS'P98198'
p1803
S'Giuseppe Liotta'
p1804
sS'P61568'
p1805
S'David Fox'
p1806
sS'P290988'
p1807
S'Victoria Interrante'
p1808
sS'P127072'
p1809
S'J. S. Risch'
p1810
sS'P265269'
p1811
S'Silvia Miksch'
p1812
sS'P422089'
p1813
S'Arne Frick'
p1814
sS'P220392'
p1815
S'Patrick Hoffman'
p1816
sS'P74502'
p1817
S'Ed H. Chi'
p1818
sS'P13809'
p1819
S'Alex P. Pentland'
p1820
sS'P573275'
p1821
S'M. Pichler'
p1822
sS'P172196'
p1823
S'Linda C. van der Gaag'
p1824
sS'P94710'
p1825
S'Gene Golovchinsky'
p1826
sS'P53095'
p1827
S'D. Christopher Dryer'
p1828
sS'P25923'
p1829
S'B. D. Moon'
p1830
sS'P168280'
p1831
S'Lance Good'
p1832
sS'P106862'
p1833
S'Hans Hinterberger'
p1834
sS'P345055'
p1835
S'Nathan Conklin'
p1836
sS'P573476'
p1837
S'T. Teraoka'
p1838
sS'P573475'
p1839
S'T. Tenev'
p1840
sS'P573474'
p1841
S'T. M. Rhyne'
p1842
sS'P317481'
p1843
S'T. C. Sprenger'
p1844
sS'P572970'
p1845
S'Bob Deletto'
p1846
sS'P273948'
p1847
S'T. Carpendale'
p1848
sS'P572975'
p1849
S'C. L. Bentley'
p1850
sS'P32896'
p1851
S'Brian E. Paul'
p1852
sS'P572977'
p1853
S'C. A. Burton'
p1854
sS'P573359'
p1855
S'Peter \xc3\x98rb\xc3\xa6k'
p1856
sS'P292334'
p1857
S'Vuk Ercegovac'
p1858
sS'P10598'
p1859
S'Adam Bosworth'
p1860
sS'P596416'
p1861
S'Eli Messinger'
p1862
sS'P250177'
p1863
S'Rudy P. Darken'
p1864
sS'P573350'
p1865
S'Padraic Neville'
p1866
sS'P200312'
p1867
S'Mikael Jern'
p1868
sS'P421226'
p1869
S'Susan Havre'
p1870
sS'P146843'
p1871
S'Jon Christensen'
p1872
sS'P335034'
p1873
S'Paul E. Haeberli'
p1874
sS'P16509'
p1875
S'Anand Rajaraman'
p1876
sS'P12515'
p1877
S'Alan Humm'
p1878
sS'P179444'
p1879
S'M. Guzdial'
p1880
sS'P46258'
p1881
S'Chris North'
p1882
sS'P142466'
p1883
S'Johan Redstr\xc3\xb6m'
p1884
sS'P131722'
p1885
S'James F. Blinn'
p1886
sS'P39545'
p1887
S'C. S. Yang'
p1888
sS'P164140'
p1889
S'Kyoji Hirata'
p1890
sS'P466953'
p1891
S'Janet M. Six'
p1892
sS'P46471'
p1893
S'Christer Carlsson'
p1894
sS'P48938'
p1895
S'Claude Frasson'
p1896
sS'P335030'
p1897
S'Paolo Sabella'
p1898
sS'P140370'
p1899
S'Jim Hafner'
p1900
sS'P412760'
p1901
S'Eugene Zhang'
p1902
sS'P239833'
p1903
S'Raymond E. Barber'
p1904
sS'P145715'
p1905
S'John Riedl'
p1906
sS'P31652'
p1907
S'Boriana Koleva'
p1908
sS'P468897'
p1909
S'Joel Winstead'
p1910
sS'P143434'
p1911
S'John V. Cugini'
p1912
sS'P573123'
p1913
S'Hadi Abdo'
p1914
sS'P94945'
p1915
S'Geoffrey P. Bingham'
p1916
sS'P297012'
p1917
S'Wayne Niblack'
p1918
sS'P470250'
p1919
S'Joshua Levasseur'
p1920
sS'P219573'
p1921
S'Parris K. Egbert'
p1922
sS'P152820'
p1923
S'K. Mani Chandy'
p1924
sS'P225212'
p1925
S'Peter G. Selfridge'
p1926
sS'P63880'
p1927
S'David Socha'
p1928
sS'P190251'
p1929
S'Mark Gahegan'
p1930
sS'P85915'
p1931
S'Frank Henigman'
p1932
sS'P143183'
p1933
S'John Campbell'
p1934
sS'P70234'
p1935
S'Dror Zernik'
p1936
sS'P241424'
p1937
S'Richard Beigel'
p1938
sS'P91025'
p1939
S'G. Nigel Martin'
p1940
sS'P305340'
p1941
S'Yen-Ping Shan'
p1942
sS'P315316'
p1943
S'Noriko Ukai'
p1944
sS'P160466'
p1945
S'Kenneth C. Yeager'
p1946
sS'P195900'
p1947
S'Mendel Rosenblum'
p1948
sS'P207534'
p1949
S'Natasha Gelfand'
p1950
sS'P76910'
p1951
S'Elke A. Rundensteiner'
p1952
sS'P244730'
p1953
S'Robert Edsall'
p1954
sS'P117589'
p1955
S'Ivo Grosse'
p1956
sS'P194710'
p1957
S'Matthew O. Ward'
p1958
sS'P573196'
p1959
S'Johan Redstr\xc3\xb6m'
p1960
sS'P573190'
p1961
S'Jesse Grosjean'
p1962
sS'P573192'
p1963
S'Jim Baker'
p1964
sS'P267223'
p1965
S'Stefan Berchtold'
p1966
sS'P146953'
p1967
S'Jon Meyer'
p1968
sS'P485726'
p1969
S'Patrick Kenis'
p1970
sS'P387576'
p1971
S'Michael Higgins'
p1972
sS'P301406'
p1973
S'X. He'
p1974
sS'P643602'
p1975
S'Paul G. Kelaita'
p1976
sS'P95917'
p1977
S'George G. Robertson'
p1978
sS'P81304'
p1979
S'F. David Fracchia'
p1980
sS'P199459'
p1981
S'Michalis Faloutsos'
p1982
sS'P139748'
p1983
S'Jianbo Shi'
p1984
sS'P440936'
p1985
S'Aaron Quigley'
p1986
sS'P47747'
p1987
S'Christopher J. Kocmoud'
p1988
sS'P305620'
p1989
S'Yigal Arens'
p1990
sS'P489574'
p1991
S'Reinhard Sablowski'
p1992
sS'P52432'
p1993
S'D. Brodbeck'
p1994
sS'P135425'
p1995
S'Jason I. Hong'
p1996
sS'P134688'
p1997
S'Jane Wilhelms'
p1998
sS'P151583'
p1999
S'Jussi Karlgren'
p2000
sS'P187488'
p2001
S'Marc A. Najork'
p2002
sS'P421167'
p2003
S'Guy Melan\xc3\xa7on'
p2004
sS'P163836'
p2005
S'Kurt W. Piersol'
p2006
sS'P421160'
p2007
S'Frank van Ham'
p2008
sS'P198118'
p2009
S'Michael S. Miller'
p2010
sS'P18594'
p2011
S'Andries van Dam'
p2012
sS'P73755'
p2013
S'E. A. Sonenberg'
p2014
sS'P228270'
p2015
S'Preben Mogensen'
p2016
sS'P119616'
p2017
S'J\xc3\xbcrgen Koenemann'
p2018
sS'P548253'
p2019
S'M. Campo'
p2020
sS'P300194'
p2021
S'William T. Vetterling'
p2022
sS'P327501'
p2023
S'Kaushai Dalal'
p2024
sS'P36478'
p2025
S'C. Lee Giles'
p2026
sS'P196619'
p2027
S'Michael Chu'
p2028
sS'P98829'
p2029
S'Gordon Kurtenbach'
p2030
sS'P244499'
p2031
S'Robert L. Cook'
p2032
sS'P172393'
p2033
S'Liqun Jin'
p2034
sS'P46410'
p2035
S'Chris Walshaw'
p2036
sS'P188881'
p2037
S'Maria Shneerson'
p2038
sS'P177668'
p2039
S'M. Chalmers'
p2040
sS'P32386'
p2041
S'Brett Milash'
p2042
sS'P245269'
p2043
S'Robert Ingram'
p2044
sS'P187254'
p2045
S'Marc Alexa'
p2046
sS'P253185'
p2047
S'S. T. Dowson'
p2048
sS'P43789'
p2049
S'Charles K. Nicholas'
p2050
sS'P254574'
p2051
S'S. T. Klein'
p2052
sS'P190624'
p2053
S'Mark Lin'
p2054
sS'P261024'
p2055
S'Scott Meyers'
p2056
sS'P286769'
p2057
S'Umesh Dayal'
p2058
sS'P595681'
p2059
S'Stephen A Herrod'
p2060
sS'P15525'
p2061
S'Allison Druin'
p2062
sS'P174888'
p2063
S'Lynn O. Wilson'
p2064
sS'P274888'
p2065
S'T. Jiang'
p2066
sS'P234137'
p2067
S'R. A. May'
p2068
sS'P144378'
p2069
S'John F. Hughes'
p2070
sS'P362395'
p2071
S'Irene Finocchi'
p2072
sS'P61111'
p2073
S'David J. Cowperthwaite'
p2074
sS'P131548'
p2075
S'James Allan'
p2076
sS'P61889'
p2077
S'David Harel'
p2078
sS'P228400'
p2079
S'Przemyslaw Prusinkiewicz'
p2080
sS'P126795'
p2081
S'J. Ross Quinlan'
p2082
sS'P572183'
p2083
S'Staffan Bj\xc3\xb6rk'
p2084
sS'P15351'
p2085
S'Allan R. Wilks'
p2086
sS'P161427'
p2087
S'Khoa Doan'
p2088
sS'P113687'
p2089
S'I. G. Angus'
p2090
sS'P280253'
p2091
S'Thomas Ball'
p2092
sS'P73302'
p2093
S'E. Petajan'
p2094
sS'P37359'
p2095
S'C. Levit'
p2096
sS'P276060'
p2097
S'T. Raita'
p2098
sS'P46076'
p2099
S'Chris Greenhalgh'
p2100
sS'P297809'
p2101
S'Wendy E. Mackay'
p2102
sS'P100128'
p2103
S'Guang R. Gao'
p2104
sS'P159551'
p2105
S'Ken Pier'
p2106
s.