(dp0
I0
(dp1
S'dataID'
p2
S'P140618'
p3
sS'nodetrixID'
p4
I0
sS'name'
p5
S'Jim Thomas'
p6
ssI1
(dp7
g2
S'P76267'
p8
sg4
I1
sg5
S'Eleftherios Koutsofios'
p9
ssI2
(dp10
g2
S'P169793'
p11
sg4
I2
sg5
S'Lawrence A. Rowe'
p12
ssI3
(dp13
g2
S'P147271'
p14
sg4
I3
sg5
S'Jonathan I. Helfman'
p15
ssI4
(dp16
g2
S'P192995'
p17
sg4
I4
sg5
S'Mary Brewster'
p18
ssI5
(dp19
g2
S'P201116'
p20
sg4
I5
sg5
S'Min Chen'
p21
ssI6
(dp22
g2
S'P47668'
p23
sg4
I6
sg5
S'Christopher G. Healey'
p24
ssI7
(dp25
g2
S'P372726'
p26
sg4
I7
sg5
S'Mac Holden'
p27
ssI8
(dp28
g2
S'P179328'
p29
sg4
I8
sg5
S'M. Gray'
p30
ssI9
(dp31
g2
S'P135514'
p32
sg4
I9
sg5
S'Jason Stewart'
p33
ssI10
(dp34
g2
S'P292276'
p35
sg4
I10
sg5
S'Volker Vogelmann'
p36
ssI11
(dp37
g2
S'P28811'
p38
sg4
I11
sg5
S'Benjamin B. Bederson'
p39
ssI12
(dp40
g2
S'P422437'
p41
sg4
I12
sg5
S'Maureen Tingley'
p42
ssI13
(dp43
g2
S'P317004'
p44
sg4
I13
sg5
S'C. K. Yung'
p45
ssI14
(dp46
g2
S'P255551'
p47
sg4
I14
sg5
S'S. Joy Mountford'
p48
ssI15
(dp49
g2
S'P551247'
p50
sg4
I15
sg5
S'L. D. Bergman'
p51
ssI16
(dp52
g2
S'P241262'
p53
sg4
I16
sg5
S'Rich Gossweiler'
p54
ssI17
(dp55
g2
S'P181485'
p56
sg4
I17
sg5
S'M. Maruyama'
p57
ssI18
(dp58
g2
S'P375094'
p59
sg4
I18
sg5
S'Peter R. Keller'
p60
ssI19
(dp61
g2
S'P61973'
p62
sg4
I19
sg5
S'David P. Helmbold'
p63
ssI20
(dp64
g2
S'P572981'
p65
sg4
I20
sg5
S'C. Dunmire'
p66
ssI21
(dp67
g2
S'P572982'
p68
sg4
I21
sg5
S'C. C. Gomberg'
p69
ssI22
(dp70
g2
S'P15550'
p71
sg4
I22
sg5
S'Allison Woodruff'
p72
ssI23
(dp73
g2
S'P157384'
p74
sg4
I23
sg5
S'Karlis Kaugars'
p75
ssI24
(dp76
g2
S'P312796'
p77
sg4
I24
sg5
S'Jeffrey Brainerd'
p78
ssI25
(dp79
g2
S'P49085'
p80
sg4
I25
sg5
S'Claudia Schmid'
p81
ssI26
(dp82
g2
S'P573229'
p83
sg4
I26
sg5
S'Ken Perrine'
p84
ssI27
(dp85
g2
S'P117142'
p86
sg4
I27
sg5
S'Ishantha Lokuge'
p87
ssI28
(dp88
g2
S'P185050'
p89
sg4
I28
sg5
S'M. Weiser'
p90
ssI29
(dp91
g2
S'P161221'
p92
sg4
I29
sg5
S'Kevin Teixeira'
p93
ssI30
(dp94
g2
S'P84959'
p95
sg4
I30
sg5
S'Fran\xc3\xa7ois Robillard'
p96
ssI31
(dp97
g2
S'P643582'
p98
sg4
I31
sg5
S'Gordon V. Bancroft'
p99
ssI32
(dp100
g2
S'P38699'
p101
sg4
I32
sg5
S'C. Shaw'
p102
ssI33
(dp103
g2
S'P117266'
p104
sg4
I33
sg5
S'Issei Fujishiro'
p105
ssI34
(dp106
g2
S'P248651'
p107
sg4
I34
sg5
S'Ron Davidson'
p108
ssI35
(dp109
g2
S'P66621'
p110
sg4
I35
sg5
S'Diane T. Rover'
p111
ssI36
(dp112
g2
S'P573363'
p113
sg4
I36
sg5
S'Quang Vinh Nguyen'
p114
ssI37
(dp115
g2
S'P573362'
p116
sg4
I37
sg5
S'Praveen R. Thiagarajan'
p117
ssI38
(dp118
g2
S'P268478'
p119
sg4
I38
sg5
S'Stephen G. Kobourov'
p120
ssI39
(dp121
g2
S'P573006'
p122
sg4
I39
sg5
S'Christian Panse'
p123
ssI40
(dp124
g2
S'P573004'
p125
sg4
I40
sg5
S'Chris Hendrickson Octavia Juarez Espinosa'
p126
ssI41
(dp127
g2
S'P204767'
p128
sg4
I41
sg5
S'N. D. Geddes'
p129
ssI42
(dp130
g2
S'P162343'
p131
sg4
I42
sg5
S'Klaus Mueller'
p132
ssI43
(dp133
g2
S'P106862'
p134
sg4
I43
sg5
S'Hans Hinterberger'
p135
ssI44
(dp136
g2
S'P573368'
p137
sg4
I44
sg5
S'R. Brath'
p138
ssI45
(dp139
g2
S'P161838'
p140
sg4
I45
sg5
S'King-Ip Lin'
p141
ssI46
(dp142
g2
S'P46852'
p143
sg4
I46
sg5
S'Christian Uhrig'
p144
ssI47
(dp145
g2
S'P106192'
p146
sg4
I47
sg5
S'Haim Levkowitz'
p147
ssI48
(dp148
g2
S'P203702'
p149
sg4
I48
sg5
S'Mybrid Spalding'
p150
ssI49
(dp151
g2
S'P132781'
p152
sg4
I49
sg5
S'James Landay'
p153
ssI50
(dp154
g2
S'P215317'
p155
sg4
I50
sg5
S'P. Gros'
p156
ssI51
(dp157
g2
S'P596405'
p158
sg4
I51
sg5
S'Carl Meyer'
p159
ssI52
(dp160
g2
S'P328241'
p161
sg4
I52
sg5
S'Robert Cohen'
p162
ssI53
(dp163
g2
S'P172868'
p164
sg4
I53
sg5
S'Lloyd A. Treinish'
p165
ssI54
(dp166
g2
S'P327893'
p167
sg4
I54
sg5
S'Beno\xc3\xaet Hudson'
p168
ssI55
(dp169
g2
S'P327722'
p170
sg4
I55
sg5
S'Scott A. Guyer'
p171
ssI56
(dp172
g2
S'P643616'
p173
sg4
I56
sg5
S'Todd C. Plessel'
p174
ssI57
(dp175
g2
S'P317072'
p176
sg4
I57
sg5
S'Elizabeth Jurrus'
p177
ssI58
(dp178
g2
S'P53673'
p179
sg4
I58
sg5
S'D. L. Gresh'
p180
ssI59
(dp181
g2
S'P361128'
p182
sg4
I59
sg5
S'Tova Roth'
p183
ssI60
(dp184
g2
S'P32007'
p185
sg4
I60
sg5
S'Bradley W. Halversen'
p186
ssI61
(dp187
g2
S'P302504'
p188
sg4
I61
sg5
S'Xuemin Lin'
p189
ssI62
(dp190
g2
S'P380981'
p191
sg4
I62
sg5
S'Jing Yang'
p192
ssI63
(dp193
g2
S'P282347'
p194
sg4
I63
sg5
S'Tim McCandless'
p195
ssI64
(dp196
g2
S'P343060'
p197
sg4
I64
sg5
S'Edgar Ch\xc3\xa1vez'
p198
ssI65
(dp199
g2
S'P193125'
p200
sg4
I65
sg5
S'Mary Jean Harrold'
p201
ssI66
(dp202
g2
S'P261164'
p203
sg4
I66
sg5
S'Scott S. Snibbe'
p204
ssI67
(dp205
g2
S'P572930'
p206
sg4
I67
sg5
S'A. Zwa'
p207
ssI68
(dp208
g2
S'P49781'
p209
sg4
I68
sg5
S'Colin Ware'
p210
ssI69
(dp211
g2
S'P573090'
p212
sg4
I69
sg5
S'Frank Van Ham'
p213
ssI70
(dp214
g2
S'P573318'
p215
sg4
I70
sg5
S'Norma Lopez'
p216
ssI71
(dp217
g2
S'P643612'
p218
sg4
I71
sg5
S'Stephen Wehrend'
p219
ssI72
(dp220
g2
S'P227903'
p221
sg4
I72
sg5
S'Polle T. Zellweger'
p222
ssI73
(dp223
g2
S'P572938'
p224
sg4
I73
sg5
S'Alistair Morrison'
p225
ssI74
(dp226
g2
S'P212246'
p227
sg4
I74
sg5
S'Oren J. Tversky'
p228
ssI75
(dp229
g2
S'P141155'
p230
sg4
I75
sg5
S'Jitendra Malik'
p231
ssI76
(dp232
g2
S'P228635'
p233
sg4
I76
sg5
S'Qian Huang'
p234
ssI77
(dp235
g2
S'P198980'
p236
sg4
I77
sg5
S'Michael Stonebraker'
p237
ssI78
(dp238
g2
S'P262823'
p239
sg4
I78
sg5
S'Shari Lawrence Pfleeger'
p240
ssI79
(dp241
g2
S'P95381'
p242
sg4
I79
sg5
S'George S. Davidson'
p243
ssI80
(dp244
g2
S'P27937'
p245
sg4
I80
sg5
S'Barry G. Becker'
p246
ssI81
(dp247
g2
S'P186929'
p248
sg4
I81
sg5
S'Manojit Sarkar'
p249
ssI82
(dp250
g2
S'P113085'
p251
sg4
I82
sg5
S'Huub van de Wetering'
p252
ssI83
(dp253
g2
S'P113087'
p254
sg4
I83
sg5
S'Huw Dawkes'
p255
ssI84
(dp256
g2
S'P315441'
p257
sg4
I84
sg5
S'Rika Furuhata'
p258
ssI85
(dp259
g2
S'P290125'
p260
sg4
I85
sg5
S'Vannevar Bush'
p261
ssI86
(dp262
g2
S'P58912'
p263
sg4
I86
sg5
S'Daniel P. Huttenlocher'
p264
ssI87
(dp265
g2
S'P149126'
p266
sg4
I87
sg5
S'Joseph Konstan'
p267
ssI88
(dp268
g2
S'P192970'
p269
sg4
I88
sg5
S'Mary Baker'
p270
ssI89
(dp271
g2
S'P550593'
p272
sg4
I89
sg5
S'H. A. Mueller'
p273
ssI90
(dp274
g2
S'P116662'
p275
sg4
I90
sg5
S'Ioannis G. Tollis'
p276
ssI91
(dp277
g2
S'P12617'
p278
sg4
I91
sg5
S'Alan M. MacEachren'
p279
ssI92
(dp280
g2
S'P75554'
p281
sg4
I92
sg5
S'Edward A. Stohr'
p282
ssI93
(dp283
g2
S'P59283'
p284
sg4
I93
sg5
S'Daniel C. Robbins'
p285
ssI94
(dp286
g2
S'P137466'
p287
sg4
I94
sg5
S'Jeff Zacks'
p288
ssI95
(dp289
g2
S'P49349'
p290
sg4
I95
sg5
S'Clement T. Yu'
p291
ssI96
(dp292
g2
S'P152906'
p293
sg4
I96
sg5
S'K. Claffy'
p294
ssI97
(dp295
g2
S'P199962'
p296
sg4
I97
sg5
S'Michelle X. Zhou'
p297
ssI98
(dp298
g2
S'P134249'
p299
sg4
I98
sg5
S'Jan O. Pedersen'
p300
ssI99
(dp301
g2
S'P45945'
p302
sg4
I99
sg5
S'Chris Buckley'
p303
ssI100
(dp304
g2
S'P339941'
p305
sg4
I100
sg5
S'Jonathan D. Beche'
p306
ssI101
(dp307
g2
S'P227759'
p308
sg4
I101
sg5
S'Piotr Indyk'
p309
ssI102
(dp310
g2
S'P150698'
p311
sg4
I102
sg5
S'Jules Bloomenthal'
p312
ssI103
(dp313
g2
S'P218971'
p314
sg4
I103
sg5
S'Pak Chung Wong'
p315
ssI104
(dp316
g2
S'P4486'
p317
sg4
I104
sg5
S'A. F. Hasler'
p318
ssI105
(dp319
g2
S'P270271'
p320
sg4
I105
sg5
S'Steven F. Roth'
p321
ssI106
(dp322
g2
S'P152643'
p323
sg4
I106
sg5
S'K. Beyer'
p324
ssI107
(dp325
g2
S'P280448'
p326
sg4
I107
sg5
S'Thomas H. Cormen'
p327
ssI108
(dp328
g2
S'P225624'
p329
sg4
I108
sg5
S'Peter Yanker'
p330
ssI109
(dp331
g2
S'P22325'
p332
sg4
I109
sg5
S'Arun N. Swami'
p333
ssI110
(dp334
g2
S'P355753'
p335
sg4
I110
sg5
S'Larry Dane Brimner'
p336
ssI111
(dp337
g2
S'P145991'
p338
sg4
I111
sg5
S'John L. Sibert'
p339
ssI112
(dp340
g2
S'P61019'
p341
sg4
I112
sg5
S'David Cline'
p342
ssI113
(dp343
g2
S'P60334'
p344
sg4
I113
sg5
S'Dave Wroblewski'
p345
ssI114
(dp346
g2
S'P234373'
p347
sg4
I114
sg5
S'R. Mitchell'
p348
ssI115
(dp349
g2
S'P159689'
p350
sg4
I115
sg5
S'Ken-ichi Okada'
p351
ssI116
(dp352
g2
S'P33462'
p353
sg4
I116
sg5
S'Bruce Hendrickson'
p354
ssI117
(dp355
g2
S'P200408'
p356
sg4
I117
sg5
S'Mike Craven'
p357
ssI118
(dp358
g2
S'P239102'
p359
sg4
I118
sg5
S'Randall B. Smith'
p360
ssI119
(dp361
g2
S'P21454'
p362
sg4
I119
sg5
S'Aristides Gionis'
p363
ssI120
(dp364
g2
S'P15444'
p365
sg4
I120
sg5
S'Allen D. Malony'
p366
ssI121
(dp367
g2
S'P306422'
p368
sg4
I121
sg5
S'Yoram Moses'
p369
ssI122
(dp370
g2
S'P191151'
p371
sg4
I122
sg5
S'Mark J. Stefik'
p372
ssI123
(dp373
g2
S'P17682'
p374
sg4
I123
sg5
S'Andrew W. Appel'
p375
ssI124
(dp376
g2
S'P109606'
p377
sg4
I124
sg5
S'Henry Lieberman'
p378
ssI125
(dp379
g2
S'P159920'
p380
sg4
I125
sg5
S'Kenneth P. Birman'
p381
ssI126
(dp382
g2
S'P187458'
p383
sg4
I126
sg5
S'Marc Levoy'
p384
ssI127
(dp385
g2
S'P58060'
p386
sg4
I127
sg5
S'Dan Gusfield'
p387
ssI128
(dp388
g2
S'P93733'
p389
sg4
I128
sg5
S'Gareth Smith'
p390
ssI129
(dp391
g2
S'P643609'
p392
sg4
I129
sg5
S'R. Kevin McCabe'
p393
ssI130
(dp394
g2
S'P416800'
p395
sg4
I130
sg5
S'Masahiro Takatsuka'
p396
ssI131
(dp397
g2
S'P31915'
p398
sg4
I131
sg5
S'Brad A. Myers'
p399
ssI132
(dp400
g2
S'P63394'
p401
sg4
I132
sg5
S'David Proft'
p402
ssI133
(dp403
g2
S'P643602'
p404
sg4
I133
sg5
S'Paul G. Kelaita'
p405
ssI134
(dp406
g2
S'P160425'
p407
sg4
I134
sg5
S'Kenneth Utting'
p408
ssI135
(dp409
g2
S'P278835'
p410
sg4
I135
sg5
S'Ted Selker'
p411
ssI136
(dp412
g2
S'P121439'
p413
sg4
I136
sg5
S'J. H. Conway'
p414
ssI137
(dp415
g2
S'P64373'
p416
sg4
I137
sg5
S'David Williams'
p417
ssI138
(dp418
g2
S'P93284'
p419
sg4
I138
sg5
S'Gabor T. Herman'
p420
ssI139
(dp421
g2
S'P169891'
p422
sg4
I139
sg5
S'Laxmi Parida'
p423
ssI140
(dp424
g2
S'P137128'
p425
sg4
I140
sg5
S'Jeannine Pinto'
p426
ssI141
(dp427
g2
S'P147232'
p428
sg4
I141
sg5
S'Jonathan Furner'
p429
ssI142
(dp430
g2
S'P49282'
p431
sg4
I142
sg5
S'Clayton Lewis'
p432
ssI143
(dp433
g2
S'P456941'
p434
sg4
I143
sg5
S'Francis P. Boscoe'
p435
ssI144
(dp436
g2
S'P115641'
p437
sg4
I144
sg5
S'Ian M. Soboroff'
p438
ssI145
(dp439
g2
S'P308426'
p440
sg4
I145
sg5
S'Yutaka Matsushita'
p441
ssI146
(dp442
g2
S'P328311'
p443
sg4
I146
sg5
S'Ulrick Barandes'
p444
ssI147
(dp445
g2
S'P203471'
p446
sg4
I147
sg5
S'Murali Venkatrao'
p447
ssI148
(dp448
g2
S'P167944'
p449
sg4
I148
sg5
S'L. Zhang'
p450
ssI149
(dp451
g2
S'P30991'
p452
sg4
I149
sg5
S'Blair MacIntyre'
p453
ssI150
(dp454
g2
S'P222451'
p455
sg4
I150
sg5
S'Paul Whitney'
p456
ssI151
(dp457
g2
S'P46090'
p458
sg4
I151
sg5
S'Chris Hand'
p459
ssI152
(dp460
g2
S'P274142'
p461
sg4
I152
sg5
S'T. A. DeFanti'
p462
ssI153
(dp463
g2
S'P21254'
p464
sg4
I153
sg5
S'Aravindan Veerasamy'
p465
ssI154
(dp466
g2
S'P259151'
p467
sg4
I154
sg5
S'Samuel Bayer'
p468
ssI155
(dp469
g2
S'P100785'
p470
sg4
I155
sg5
S'Gustova Stolovitzky'
p471
ssI156
(dp472
g2
S'P218932'
p473
sg4
I156
sg5
S'Padhraic Smyth'
p474
ssI157
(dp475
g2
S'P248369'
p476
sg4
I157
sg5
S'Rolf Danielsson'
p477
ssI158
(dp478
g2
S'P75982'
p479
sg4
I158
sg5
S'Eileen Kraemer'
p480
ssI159
(dp481
g2
S'P573264'
p482
sg4
I159
sg5
S'M. R. Ilgen'
p483
ssI160
(dp484
g2
S'P112532'
p485
sg4
I160
sg5
S'Hua Su'
p486
ssI161
(dp487
g2
S'P176636'
p488
sg4
I161
sg5
S'M. D. Apperley'
p489
ssI162
(dp490
g2
S'P198916'
p491
sg4
I162
sg5
S'Michael Spenke'
p492
ssI163
(dp493
g2
S'P187423'
p494
sg4
I163
sg5
S'Marc Kaltenbach'
p495
ssI164
(dp496
g2
S'P468897'
p497
sg4
I164
sg5
S'Joel Winstead'
p498
ssI165
(dp499
g2
S'P181534'
p500
sg4
I165
sg5
S'M. L. Matthews'
p501
ssI166
(dp502
g2
S'P317210'
p503
sg4
I166
sg5
S'Jos\xc3\xa9 L. Marroqu\xc3\xadn'
p504
ssI167
(dp505
g2
S'P58197'
p506
sg4
I167
sg5
S'Dan Platt'
p507
ssI168
(dp508
g2
S'P281620'
p509
sg4
I168
sg5
S'Thomas Seidl'
p510
ssI169
(dp511
g2
S'P573287'
p512
sg4
I169
sg5
S'Marc Weber'
p513
ssI170
(dp514
g2
S'P425010'
p515
sg4
I170
sg5
S'Allen D. Maloney'
p516
ssI171
(dp517
g2
S'P260900'
p518
sg4
I171
sg5
S'Scott Hudson'
p519
ssI172
(dp520
g2
S'P55986'
p521
sg4
I172
sg5
S'D. A. Roberts'
p522
ssI173
(dp523
g2
S'P106482'
p524
sg4
I173
sg5
S'Hamid Pirahesh'
p525
ssI174
(dp526
g2
S'P48241'
p527
sg4
I174
sg5
S'Chuck Thier'
p528
ssI175
(dp529
g2
S'P372655'
p530
sg4
I175
sg5
S'M. Nitzberg'
p531
ssI176
(dp532
g2
S'P46262'
p533
sg4
I176
sg5
S'Chris Olston'
p534
ssI177
(dp535
g2
S'P116372'
p536
sg4
I177
sg5
S'Indranil Chakravarty'
p537
ssI178
(dp538
g2
S'P300695'
p539
sg4
I178
sg5
S'Wojciech Basalaj'
p540
ssI179
(dp541
g2
S'P305301'
p542
sg4
I179
sg5
S'Yehuda Koren'
p543
ssI180
(dp544
g2
S'P10526'
p545
sg4
I180
sg5
S'Achilleas Papakostas'
p546
ssI181
(dp547
g2
S'P133254'
p548
sg4
I181
sg5
S'James Pitkow'
p549
ssI182
(dp550
g2
S'P117166'
p551
sg4
I182
sg5
S'Isidore Rigoutsos'
p552
ssI183
(dp553
g2
S'P133851'
p554
sg4
I183
sg5
S'James A. Wise'
p555
ssI184
(dp556
g2
S'P18101'
p557
sg4
I184
sg5
S'Andrew Layman'
p558
ssI185
(dp559
g2
S'P139408'
p560
sg4
I185
sg5
S'Jessie B. Kennedy'
p561
ssI186
(dp562
g2
S'P100960'
p563
sg4
I186
sg5
S'Guy Vaysseix'
p564
ssI187
(dp565
g2
S'P223691'
p566
sg4
I187
sg5
S'Peter Braun'
p567
ssI188
(dp568
g2
S'P317034'
p569
sg4
I188
sg5
S'D. F. Scollan'
p570
ssI189
(dp571
g2
S'P13806'
p572
sg4
I189
sg5
S'Alex Pang'
p573
ssI190
(dp574
g2
S'P142351'
p575
sg4
I190
sg5
S'Joemon M. Jose'
p576
ssI191
(dp577
g2
S'P196535'
p578
sg4
I191
sg5
S'Michael D. Byrne'
p579
ssI192
(dp580
g2
S'P271709'
p581
sg4
I192
sg5
S'Surajit Chaudhuri'
p582
ssI193
(dp583
g2
S'P573217'
p584
sg4
I193
sg5
S'K. Pennock'
p585
ssI194
(dp586
g2
S'P49467'
p587
sg4
I194
sg5
S'Clifford Stein'
p588
ssI195
(dp589
g2
S'P285087'
p590
sg4
I195
sg5
S'Trevor J. Davis'
p591
ssI196
(dp592
g2
S'P368727'
p593
sg4
I196
sg5
S'Hen'
p594
ssI197
(dp595
g2
S'P499638'
p596
sg4
I197
sg5
S'Ugur Dogrus\xc3\xb6z'
p597
ssI198
(dp598
g2
S'P301406'
p599
sg4
I198
sg5
S'X. He'
p600
ssI199
(dp601
g2
S'P280294'
p602
sg4
I199
sg5
S'Thomas Berlage'
p603
ssI200
(dp604
g2
S'P62732'
p605
sg4
I200
sg5
S'David Maier'
p606
ssI201
(dp607
g2
S'P573031'
p608
sg4
I201
sg5
S'D. A. Rushall'
p609
ssI202
(dp610
g2
S'P18516'
p611
sg4
I202
sg5
S'Andrew Witkin'
p612
ssI203
(dp613
g2
S'P14289'
p614
sg4
I203
sg5
S'Alexander S. Szalay'
p615
ssI204
(dp616
g2
S'P18921'
p617
sg4
I204
sg5
S'Angela Boltman'
p618
ssI205
(dp619
g2
S'P65079'
p620
sg4
I205
sg5
S'Deborah Silver'
p621
ssI206
(dp622
g2
S'P113040'
p623
sg4
I206
sg5
S'Hus Su'
p624
ssI207
(dp625
g2
S'P301689'
p626
sg4
I207
sg5
S'Xia Lin'
p627
ssI208
(dp628
g2
S'P25792'
p629
sg4
I208
sg5
S'B. H. McCormick'
p630
ssI209
(dp631
g2
S'P70180'
p632
sg4
I209
sg5
S'Dragutin Petkovic'
p633
ssI210
(dp634
g2
S'P55930'
p635
sg4
I210
sg5
S'D. B. Rex'
p636
ssI211
(dp637
g2
S'P242695'
p638
sg4
I211
sg5
S'Richard G. Palmer'
p639
ssI212
(dp640
g2
S'P131935'
p641
sg4
I212
sg5
S'James S. Collofello'
p642
ssI213
(dp643
g2
S'P304694'
p644
sg4
I213
sg5
S'Yannis E. Ioannidis'
p645
ssI214
(dp646
g2
S'P448313'
p647
sg4
I214
sg5
S'Carsten Friedrich'
p648
ssI215
(dp649
g2
S'P422317'
p650
sg4
I215
sg5
S'Jefrey Vroom'
p651
ssI216
(dp652
g2
S'P10438'
p653
sg4
I216
sg5
S'Abigail Sellen'
p654
ssI217
(dp655
g2
S'P187565'
p656
sg4
I217
sg5
S'Marc M. Sebrechts'
p657
ssI218
(dp658
g2
S'P146822'
p659
sg4
I218
sg5
S'Jon Louis Bentley'
p660
ssI219
(dp661
g2
S'P266323'
p662
sg4
I219
sg5
S'Sougata Mukherjea'
p663
ssI220
(dp664
g2
S'P394977'
p665
sg4
I220
sg5
S'B. Fenner'
p666
ssI221
(dp667
g2
S'P466509'
p668
sg4
I221
sg5
S'James Agutter'
p669
ssI222
(dp670
g2
S'P58248'
p671
sg4
I222
sg5
S'Dan Shapiro'
p672
ssI223
(dp673
g2
S'P573040'
p674
sg4
I223
sg5
S'David Strayer'
p675
ssI224
(dp676
g2
S'P191495'
p677
sg4
I224
sg5
S'Markus H. Gross'
p678
ssI225
(dp679
g2
S'P86082'
p680
sg4
I225
sg5
S'Frank Pellow'
p681
ssI226
(dp682
g2
S'P87141'
p683
sg4
I226
sg5
S'Frits H. Post'
p684
ssI227
(dp685
g2
S'P64995'
p686
sg4
I227
sg5
S'Deborah R. Fowler'
p687
ssI228
(dp688
g2
S'P39480'
p689
sg4
I228
sg5
S'C. K. Wong'
p690
ssI229
(dp691
g2
S'P300211'
p692
sg4
I229
sg5
S'William C. Wake'
p693
ssI230
(dp694
g2
S'P504109'
p695
sg4
I230
sg5
S'Young-Min Song'
p696
ssI231
(dp697
g2
S'P98829'
p698
sg4
I231
sg5
S'Gordon Kurtenbach'
p699
ssI232
(dp700
g2
S'P188513'
p701
sg4
I232
sg5
S'Margaret-Anne D. Storey'
p702
ssI233
(dp703
g2
S'P61351'
p704
sg4
I233
sg5
S'David S. Ebert'
p705
ssI234
(dp706
g2
S'P194963'
p707
sg4
I234
sg5
S'Maureen C. Stone'
p708
ssI235
(dp709
g2
S'P247806'
p710
sg4
I235
sg5
S'Roger Crawfis'
p711
ssI236
(dp712
g2
S'P15294'
p713
sg4
I236
sg5
S'Allan Kuchinsky'
p714
ssI237
(dp715
g2
S'P64423'
p716
sg4
I237
sg5
S'David C. M. Wood'
p717
ssI238
(dp718
g2
S'P422175'
p719
sg4
I238
sg5
S'David Schlegel'
p720
ssI239
(dp721
g2
S'P58183'
p722
sg4
I239
sg5
S'Dan R. Olsen'
p723
ssI240
(dp724
g2
S'P108629'
p725
sg4
I240
sg5
S'Heidrun Schumann'
p726
ssI241
(dp727
g2
S'P152936'
p728
sg4
I241
sg5
S'K. C. Cox'
p729
ssI242
(dp730
g2
S'P160462'
p731
sg4
I242
sg5
S'Kenneth Wood'
p732
ssI243
(dp733
g2
S'P392018'
p734
sg4
I243
sg5
S'Marylyn E. McGill'
p735
ssI244
(dp736
g2
S'P123644'
p737
sg4
I244
sg5
S'J. G. Hollands'
p738
ssI245
(dp739
g2
S'P20660'
p740
sg4
I245
sg5
S'Anton Eli\xc3\xabns'
p741
ssI246
(dp742
g2
S'P170179'
p743
sg4
I246
sg5
S'Lee Westover'
p744
ssI247
(dp745
g2
S'P291365'
p746
sg4
I247
sg5
S'Vincent A. Guarna, Jr.'
p747
ssI248
(dp748
g2
S'P364772'
p749
sg4
I248
sg5
S'Carl Burnham'
p750
ssI249
(dp751
g2
S'P145960'
p752
sg4
I249
sg5
S'John Paul Shen'
p753
ssI250
(dp754
g2
S'P241419'
p755
sg4
I250
sg5
S'Richard A. Becker'
p756
ssI251
(dp757
g2
S'P59313'
p758
sg4
I251
sg5
S'Daniel M. Russell'
p759
ssI252
(dp760
g2
S'P29533'
p761
sg4
I252
sg5
S'Bernd Lintermann'
p762
ssI253
(dp763
g2
S'P33104'
p764
sg4
I253
sg5
S'Brian N. Wylie'
p765
ssI254
(dp766
g2
S'P187648'
p767
sg4
I254
sg5
S'Marc-Antoine Parent'
p768
ssI255
(dp769
g2
S'P281357'
p770
sg4
I255
sg5
S'Thomas J. Overbye'
p771
ssI256
(dp772
g2
S'P207209'
p773
sg4
I256
sg5
S'Naoki Shibata'
p774
ssI257
(dp775
g2
S'P86145'
p776
sg4
I257
sg5
S'Frank M. Shipman, III'
p777
ssI258
(dp778
g2
S'P173848'
p779
sg4
I258
sg5
S'Luc Devroye'
p780
ssI259
(dp781
g2
S'P496745'
p782
sg4
I259
sg5
S'T. Strasser'
p783
ssI260
(dp784
g2
S'P346684'
p785
sg4
I260
sg5
S'Robert Kosara'
p786
ssI261
(dp787
g2
S'P572970'
p788
sg4
I261
sg5
S'Bob Deletto'
p789
ssI262
(dp790
g2
S'P46471'
p791
sg4
I262
sg5
S'Christer Carlsson'
p792
ssI263
(dp793
g2
S'P213559'
p794
sg4
I263
sg5
S'P. Abel'
p795
ssI264
(dp796
g2
S'P15498'
p797
sg4
I264
sg5
S'Allen Van Gelder'
p798
ssI265
(dp799
g2
S'P95839'
p800
sg4
I265
sg5
S'George Otto'
p801
ssI266
(dp802
g2
S'P368178'
p803
sg4
I266
sg5
S'Giuseppe Di Battista'
p804
ssI267
(dp805
g2
S'P245454'
p806
sg4
I267
sg5
S'Robert R. Korfhage'
p807
ssI268
(dp808
g2
S'P53060'
p809
sg4
I268
sg5
S'D. Donjerkovic'
p810
ssI269
(dp811
g2
S'P501877'
p812
sg4
I269
sg5
S'Wendy S. Ark'
p813
ssI270
(dp814
g2
S'P60561'
p815
sg4
I270
sg5
S'David Beard'
p816
ssI271
(dp817
g2
S'P266789'
p818
sg4
I271
sg5
S'Staffan Bj\xc3\xb6rk'
p819
ssI272
(dp820
g2
S'P549630'
p821
sg4
I272
sg5
S'Allen R. Martin'
p822
ssI273
(dp823
g2
S'P550814'
p824
sg4
I273
sg5
S'J. M. Hellerstein'
p825
ssI274
(dp826
g2
S'P159248'
p827
sg4
I274
sg5
S'Kellogg S. Booth'
p828
ssI275
(dp829
g2
S'P13911'
p830
sg4
I275
sg5
S'Alexander Aiken'
p831
ssI276
(dp832
g2
S'P201750'
p833
sg4
I276
sg5
S'Miron Livny'
p834
ssI277
(dp835
g2
S'P147125'
p836
sg4
I277
sg5
S'Jonathan Ashley'
p837
ssI278
(dp838
g2
S'P507625'
p839
sg4
I278
sg5
S'Varun Saini'
p840
ssI279
(dp841
g2
S'P465902'
p842
sg4
I279
sg5
S'J. P. Paris'
p843
ssI280
(dp844
g2
S'P283627'
p845
sg4
I280
sg5
S'Tom Meyer'
p846
ssI281
(dp847
g2
S'P173072'
p848
sg4
I281
sg5
S'Loren Carpenter'
p849
ssI282
(dp850
g2
S'P163321'
p851
sg4
I282
sg5
S'Kristofer Franz\xc3\xa9n'
p852
ssI283
(dp853
g2
S'P194513'
p854
sg4
I283
sg5
S'Matthew A. Goldberg'
p855
ssI284
(dp856
g2
S'P206576'
p857
sg4
I284
sg5
S'Naeem Shareef'
p858
ssI285
(dp859
g2
S'P269137'
p860
sg4
I285
sg5
S'Steve Bryson'
p861
ssI286
(dp862
g2
S'P30422'
p863
sg4
I286
sg5
S'Bill Gates'
p864
ssI287
(dp865
g2
S'P62221'
p866
sg4
I287
sg5
S'David K. Johnson'
p867
ssI288
(dp868
g2
S'P273940'
p869
sg4
I288
sg5
S'T. T. Carey'
p870
ssI289
(dp871
g2
S'P220113'
p872
sg4
I289
sg5
S'Patricia Schank'
p873
ssI290
(dp874
g2
S'P413048'
p875
sg4
I290
sg5
S'Linda Pickle'
p876
ssI291
(dp877
g2
S'P24614'
p878
sg4
I291
sg5
S'B. DasGupta'
p879
ssI292
(dp880
g2
S'P223495'
p881
sg4
I292
sg5
S'Peter \xc3\x98rb\xc3\xa6k'
p882
ssI293
(dp883
g2
S'P269823'
p884
sg4
I293
sg5
S'Steven K. Feiner'
p885
ssI294
(dp886
g2
S'P95917'
p887
sg4
I294
sg5
S'George G. Robertson'
p888
ssI295
(dp889
g2
S'P37652'
p890
sg4
I295
sg5
S'C. A. McCann'
p891
ssI296
(dp892
g2
S'P643562'
p893
sg4
I296
sg5
S'T. Mihalisin'
p894
ssI297
(dp895
g2
S'P596917'
p896
sg4
I297
sg5
S'Anne Brueggemann-Klein'
p897
ssI298
(dp898
g2
S'P93543'
p899
sg4
I298
sg5
S'Gail Reynard'
p900
ssI299
(dp901
g2
S'P342859'
p902
sg4
I299
sg5
S'Woodie C. Flowers'
p903
ssI300
(dp904
g2
S'P562400'
p905
sg4
I300
sg5
S'James H. Garrett Jr.'
p906
ssI301
(dp907
g2
S'P5110'
p908
sg4
I301
sg5
S'A. Kaufman'
p909
ssI302
(dp910
g2
S'P511630'
p911
sg4
I302
sg5
S'Reinhard Sainitzer'
p912
ssI303
(dp913
g2
S'P58480'
p914
sg4
I303
sg5
S'Daniel G. Aliaga'
p915
ssI304
(dp916
g2
S'P50498'
p917
sg4
I304
sg5
S'Craig Upson'
p918
ssI305
(dp919
g2
S'P192201'
p920
sg4
I305
sg5
S'Martin Graham'
p921
ssI306
(dp922
g2
S'P208397'
p923
sg4
I306
sg5
S'Nicholas J. Belkin'
p924
ssI307
(dp925
g2
S'P117429'
p926
sg4
I307
sg5
S'Ivan Herman'
p927
ssI308
(dp928
g2
S'P60891'
p929
sg4
I308
sg5
S'David Carr'
p930
ssI309
(dp931
g2
S'P72983'
p932
sg4
I309
sg5
S'E. L. Miller'
p933
ssI310
(dp934
g2
S'P158895'
p935
sg4
I310
sg5
S'Keith Andrews'
p936
ssI311
(dp937
g2
S'P339934'
p938
sg4
I311
sg5
S'Hank Hoek'
p939
ssI312
(dp940
g2
S'P573255'
p941
sg4
I312
sg5
S'M. B. Burks'
p942
ssI313
(dp943
g2
S'P286704'
p944
sg4
I313
sg5
S'Ulrik Brandes'
p945
ssI314
(dp946
g2
S'P422521'
p947
sg4
I314
sg5
S'Randall M. Rohrer'
p948
ssI315
(dp949
g2
S'P60514'
p950
sg4
I315
sg5
S'David Baraff'
p951
ssI316
(dp952
g2
S'P77263'
p953
sg4
I316
sg5
S'Emanuel G. Noik'
p954
ssI317
(dp955
g2
S'P23315'
p956
sg4
I317
sg5
S'Ayellet Tal'
p957
ssI318
(dp958
g2
S'P211796'
p959
sg4
I318
sg5
S'Oliver Deussen'
p960
ssI319
(dp961
g2
S'P117392'
p962
sg4
I319
sg5
S'Ivan Bretan'
p963
ssI320
(dp964
g2
S'P247663'
p965
sg4
I320
sg5
S'Rodrigo A. Botafogo'
p966
ssI321
(dp967
g2
S'P573494'
p968
sg4
I321
sg5
S'V. Anupam'
p969
ssI322
(dp970
g2
S'P361665'
p971
sg4
I322
sg5
S'Ari Halberstadt'
p972
ssI323
(dp973
g2
S'P573496'
p974
sg4
I323
sg5
S'V. Crow'
p975
ssI324
(dp976
g2
S'P43667'
p977
sg4
I324
sg5
S'Charles E. Leiserson'
p978
ssI325
(dp979
g2
S'P96421'
p980
sg4
I325
sg5
S'Gerald L. Lohse'
p981
ssI326
(dp982
g2
S'P573492'
p983
sg4
I326
sg5
S'Todd Barlow'
p984
ssI327
(dp985
g2
S'P257593'
p986
sg4
I327
sg5
S'S. Utter'
p987
ssI328
(dp988
g2
S'P185741'
p989
sg4
I328
sg5
S'Maarten van Dantzich'
p990
ssI329
(dp991
g2
S'P12515'
p992
sg4
I329
sg5
S'Alan Humm'
p993
ssI330
(dp994
g2
S'P79285'
p995
sg4
I330
sg5
S'Eskinder Sahle'
p996
ssI331
(dp997
g2
S'P378471'
p998
sg4
I331
sg5
S'Timothy Briggs'
p999
ssI332
(dp1000
g2
S'P200330'
p1001
sg4
I332
sg5
S'Mikako Harada'
p1002
ssI333
(dp1003
g2
S'P142560'
p1004
sg4
I333
sg5
S'Johannes Battjes'
p1005
ssI334
(dp1006
g2
S'P264765'
p1007
sg4
I334
sg5
S'Shumin Zhai'
p1008
ssI335
(dp1009
g2
S'P305782'
p1010
sg4
I335
sg5
S'Ying Li'
p1011
ssI336
(dp1012
g2
S'P78259'
p1013
sg4
I336
sg5
S'Eric Lecolinet'
p1014
ssI337
(dp1015
g2
S'P416667'
p1016
sg4
I337
sg5
S'Robert Schulman'
p1017
ssI338
(dp1018
g2
S'P507545'
p1019
sg4
I338
sg5
S'Mei Chuah'
p1020
ssI339
(dp1021
g2
S'P275012'
p1022
sg4
I339
sg5
S'T. Alan Keahey'
p1023
ssI340
(dp1024
g2
S'P99212'
p1025
sg4
I340
sg5
S'Graham J. Wills'
p1026
ssI341
(dp1027
g2
S'P78910'
p1028
sg4
I341
sg5
S'Erik Wistrand'
p1029
ssI342
(dp1030
g2
S'P249221'
p1031
sg4
I342
sg5
S'Ronald L. Rivest'
p1032
ssI343
(dp1033
g2
S'P47308'
p1034
sg4
I343
sg5
S'Christoph Pfranger'
p1035
ssI344
(dp1036
g2
S'P73755'
p1037
sg4
I344
sg5
S'E. A. Sonenberg'
p1038
ssI345
(dp1039
g2
S'P168592'
p1040
sg4
I345
sg5
S'Larry Masinter'
p1041
ssI346
(dp1042
g2
S'P109930'
p1043
sg4
I346
sg5
S'Herbert A. Simon'
p1044
ssI347
(dp1045
g2
S'P573084'
p1046
sg4
I347
sg5
S'Florian Ledermann'
p1047
ssI348
(dp1048
g2
S'P12812'
p1049
sg4
I348
sg5
S'Alan Su'
p1050
ssI349
(dp1051
g2
S'P86368'
p1052
sg4
I349
sg5
S'Frans J. M. van der Wel'
p1053
ssI350
(dp1054
g2
S'P162803'
p1055
sg4
I350
sg5
S'Konrad Slind'
p1056
ssI351
(dp1057
g2
S'P573088'
p1058
sg4
I351
sg5
S'Francois Guimbretiere'
p1059
ssI352
(dp1060
g2
S'P110338'
p1061
sg4
I352
sg5
S'Hidekazu Shiozawa'
p1062
ssI353
(dp1063
g2
S'P59688'
p1064
sg4
I353
sg5
S'Danny Ayers'
p1065
ssI354
(dp1066
g2
S'P128443'
p1067
sg4
I354
sg5
S'J. J. Thomas'
p1068
ssI355
(dp1069
g2
S'P200182'
p1070
sg4
I355
sg5
S'Miguel Santana'
p1071
ssI356
(dp1072
g2
S'P254852'
p1073
sg4
I356
sg5
S'S. Lawande'
p1074
ssI357
(dp1075
g2
S'P572885'
p1076
sg4
I357
sg5
S'A. Badre'
p1077
ssI358
(dp1078
g2
S'P573317'
p1079
sg4
I358
sg5
S'Noah Syroid'
p1080
ssI359
(dp1081
g2
S'P28588'
p1082
sg4
I359
sg5
S'Ben E. Cline'
p1083
ssI360
(dp1084
g2
S'P139655'
p1085
sg4
I360
sg5
S'Jian Huang'
p1086
ssI361
(dp1087
g2
S'P162173'
p1088
sg4
I361
sg5
S'Klara Kedem'
p1089
ssI362
(dp1090
g2
S'P239621'
p1091
sg4
I362
sg5
S'Ravinder Bhogal'
p1092
ssI363
(dp1093
g2
S'P283825'
p1094
sg4
I363
sg5
S'Tom\xc3\xa1s Isakowitz'
p1095
ssI364
(dp1096
g2
S'P387576'
p1097
sg4
I364
sg5
S'Michael Higgins'
p1098
ssI365
(dp1099
g2
S'P160097'
p1100
sg4
I365
sg5
S'Kenneth P. Herndon'
p1101
ssI366
(dp1102
g2
S'P238204'
p1103
sg4
I366
sg5
S'Rakesh Agrawal'
p1104
ssI367
(dp1105
g2
S'P49354'
p1106
sg4
I367
sg5
S'Cleotilde Gonzalez'
p1107
ssI368
(dp1108
g2
S'P43203'
p1109
sg4
I368
sg5
S'Charles Grant Brown'
p1110
ssI369
(dp1111
g2
S'P109156'
p1112
sg4
I369
sg5
S'Helwig Hauser'
p1113
ssI370
(dp1114
g2
S'P335624'
p1115
sg4
I370
sg5
S'Lucy Nowell'
p1116
ssI371
(dp1117
g2
S'P344298'
p1118
sg4
I371
sg5
S'James A. Jones'
p1119
ssI372
(dp1120
g2
S'P9491'
p1121
sg4
I372
sg5
S'A. Wong'
p1122
ssI373
(dp1123
g2
S'P232840'
p1124
sg4
I373
sg5
S'R. J. Hendley'
p1125
ssI374
(dp1126
g2
S'P280938'
p1127
sg4
I374
sg5
S'Thomas Kamps'
p1128
ssI375
(dp1129
g2
S'P219805'
p1130
sg4
I375
sg5
S'Pat Hanrahan'
p1131
ssI376
(dp1132
g2
S'P9496'
p1133
sg4
I376
sg5
S'A. M. Wood'
p1134
ssI377
(dp1135
g2
S'P13073'
p1136
sg4
I377
sg5
S'Albert Ho'
p1137
ssI378
(dp1138
g2
S'P608295'
p1139
sg4
I378
sg5
S'Douglas J. Cork'
p1140
ssI379
(dp1141
g2
S'P262903'
p1142
sg4
I379
sg5
S'Sharon J. Laskowski'
p1143
ssI380
(dp1144
g2
S'P239824'
p1145
sg4
I380
sg5
S'Raymon Masters'
p1146
ssI381
(dp1147
g2
S'P77449'
p1148
sg4
I381
sg5
S'Emmanuel Barillot'
p1149
ssI382
(dp1150
g2
S'P573178'
p1151
sg4
I382
sg5
S'Jack Gundrum'
p1152
ssI383
(dp1153
g2
S'P573179'
p1154
sg4
I383
sg5
S'James Eagan'
p1155
ssI384
(dp1156
g2
S'P33622'
p1157
sg4
I384
sg5
S'Bruce McKenzie'
p1158
ssI385
(dp1159
g2
S'P244619'
p1160
sg4
I385
sg5
S'Robert DeLine'
p1161
ssI386
(dp1162
g2
S'P20144'
p1163
sg4
I386
sg5
S'Anselm Spoerri'
p1164
ssI387
(dp1165
g2
S'P19895'
p1166
sg4
I387
sg5
S'Anne Rose'
p1167
ssI388
(dp1168
g2
S'P65018'
p1169
sg4
I388
sg5
S'Deborah Hix'
p1170
ssI389
(dp1171
g2
S'P18742'
p1172
sg4
I389
sg5
S'Andy Cockburn'
p1173
ssI390
(dp1174
g2
S'P142064'
p1175
sg4
I390
sg5
S'Joe Mattis'
p1176
ssI391
(dp1177
g2
S'P573276'
p1178
sg4
I391
sg5
S'M. Pottier'
p1179
ssI392
(dp1180
g2
S'P221003'
p1181
sg4
I392
sg5
S'Paul Burchard'
p1182
ssI393
(dp1183
g2
S'P142060'
p1184
sg4
I393
sg5
S'Joe Marks'
p1185
ssI394
(dp1186
g2
S'P37070'
p1187
sg4
I394
sg5
S'C. Peter Keller'
p1188
ssI395
(dp1189
g2
S'P442689'
p1190
sg4
I395
sg5
S'Alvis Brazma'
p1191
ssI396
(dp1192
g2
S'P151571'
p1193
sg4
I396
sg5
S'Juris Reinfelds'
p1194
ssI397
(dp1195
g2
S'P203769'
p1196
sg4
I397
sg5
S'Myron Flickner'
p1197
ssI398
(dp1198
g2
S'P250840'
p1199
sg4
I398
sg5
S'Ryszard S. Michalski'
p1200
ssI399
(dp1201
g2
S'P262884'
p1202
sg4
I399
sg5
S'Sharon R. Garber'
p1203
ssI400
(dp1204
g2
S'P14342'
p1205
sg4
I400
sg5
S'Alexander Willett'
p1206
ssI401
(dp1207
g2
S'P63826'
p1208
sg4
I401
sg5
S'David Sinclair'
p1209
ssI402
(dp1210
g2
S'P528641'
p1211
sg4
I402
sg5
S'R. Kazman'
p1212
ssI403
(dp1213
g2
S'P109611'
p1214
sg4
I403
sg5
S'Henry C. Lucas, Jr.'
p1215
ssI404
(dp1216
g2
S'P371396'
p1217
sg4
I404
sg5
S'Karl Avedal'
p1218
ssI405
(dp1219
g2
S'P173985'
p1220
sg4
I405
sg5
S'Luca Vismara'
p1221
ssI406
(dp1222
g2
S'P196751'
p1223
sg4
I406
sg5
S'Michael Davis'
p1224
ssI407
(dp1225
g2
S'P477708'
p1226
sg4
I407
sg5
S'Marc Hansen'
p1227
ssI408
(dp1228
g2
S'P305767'
p1229
sg4
I408
sg5
S'Ying Feng'
p1230
ssI409
(dp1231
g2
S'P21445'
p1232
sg4
I409
sg5
S'Aris Floratos'
p1233
ssI410
(dp1234
g2
S'P238722'
p1235
sg4
I410
sg5
S'Ramana Rao'
p1236
ssI411
(dp1237
g2
S'P21449'
p1238
sg4
I411
sg5
S'Aristid Lindenmayer'
p1239
ssI412
(dp1240
g2
S'P68131'
p1241
sg4
I412
sg5
S'Don Reichart'
p1242
ssI413
(dp1243
g2
S'P260611'
p1244
sg4
I413
sg5
S'Saul A. Teukolsky'
p1245
ssI414
(dp1246
g2
S'P247234'
p1247
sg4
I414
sg5
S'Roberto Tamassia'
p1248
ssI415
(dp1249
g2
S'P160797'
p1250
sg4
I415
sg5
S'Kevin W. Arthur'
p1251
ssI416
(dp1252
g2
S'P207886'
p1253
sg4
I416
sg5
S'Neff Walker'
p1254
ssI417
(dp1255
g2
S'P164294'
p1256
sg4
I417
sg5
S'Kyuseok Shim'
p1257
ssI418
(dp1258
g2
S'P172581'
p1259
sg4
I418
sg5
S'Lisa Tweedie'
p1260
ssI419
(dp1261
g2
S'P155822'
p1262
sg4
I419
sg5
S'K. Wong'
p1263
ssI420
(dp1264
g2
S'P414344'
p1265
sg4
I420
sg5
S'Chang-Sung Jeong'
p1266
ssI421
(dp1267
g2
S'P85248'
p1268
sg4
I421
sg5
S'Francesmary Modugno'
p1269
ssI422
(dp1270
g2
S'P338272'
p1271
sg4
I422
sg5
S'Barry Becker'
p1272
ssI423
(dp1273
g2
S'P98679'
p1274
sg4
I423
sg5
S'Gonzalo Navarro'
p1275
ssI424
(dp1276
g2
S'P50519'
p1277
sg4
I424
sg5
S'Craig M. Wittenbrink'
p1278
ssI425
(dp1279
g2
S'P547014'
p1280
sg4
I425
sg5
S'A. Teyseyre'
p1281
ssI426
(dp1282
g2
S'P224571'
p1283
sg4
I426
sg5
S'Peter Krogh'
p1284
ssI427
(dp1285
g2
S'P190105'
p1286
sg4
I427
sg5
S'Mark Derthick'
p1287
ssI428
(dp1288
g2
S'P198482'
p1289
sg4
I428
sg5
S'Michael Potmesil'
p1290
ssI429
(dp1291
g2
S'P470653'
p1292
sg4
I429
sg5
S'Julio Bermudez'
p1293
ssI430
(dp1294
g2
S'P75581'
p1295
sg4
I430
sg5
S'Edward Tufte'
p1296
ssI431
(dp1297
g2
S'P283968'
p1298
sg4
I431
sg5
S'Tomihisa Kamada'
p1299
ssI432
(dp1300
g2
S'P96398'
p1301
sg4
I432
sg5
S'Gerald M. Karam'
p1302
ssI433
(dp1303
g2
S'P248681'
p1304
sg4
I433
sg5
S'Ron R. Hightower'
p1305
ssI434
(dp1306
g2
S'P78576'
p1307
sg4
I434
sg5
S'Eric A. Wernert'
p1308
ssI435
(dp1309
g2
S'P367997'
p1310
sg4
I435
sg5
S'George Edward Pelham Box'
p1311
ssI436
(dp1312
g2
S'P145434'
p1313
sg4
I436
sg5
S'John K. Ousterhout'
p1314
ssI437
(dp1315
g2
S'P206639'
p1316
sg4
I437
sg5
S'Nahum Gershon'
p1317
ssI438
(dp1318
g2
S'P298694'
p1319
sg4
I438
sg5
S'William Buxton'
p1320
ssI439
(dp1321
g2
S'P109538'
p1322
sg4
I439
sg5
S'Henry Fuchs'
p1323
ssI440
(dp1324
g2
S'P375644'
p1325
sg4
I440
sg5
S'Ray Haynes'
p1326
ssI441
(dp1327
g2
S'P132223'
p1328
sg4
I441
sg5
S'James D. Foley'
p1329
ssI442
(dp1330
g2
S'P200466'
p1331
sg4
I442
sg5
S'Mike Fraser'
p1332
ssI443
(dp1333
g2
S'P268702'
p1334
sg4
I443
sg5
S'Stephen Pizer'
p1335
ssI444
(dp1336
g2
S'P474753'
p1337
sg4
I444
sg5
S'Leonid Ulitsky'
p1338
ssI445
(dp1339
g2
S'P306682'
p1340
sg4
I445
sg5
S'Yoshinori Hara'
p1341
ssI446
(dp1342
g2
S'P21240'
p1343
sg4
I446
sg5
S'Aran Lunzer'
p1344
ssI447
(dp1345
g2
S'P75202'
p1346
sg4
I447
sg5
S'Edward A. Fox'
p1347
ssI448
(dp1348
g2
S'P79076'
p1349
sg4
I448
sg5
S'Ernest Retzel'
p1350
ssI449
(dp1351
g2
S'P244867'
p1352
sg4
I449
sg5
S'Robert K. France'
p1353
ssI450
(dp1354
g2
S'P173601'
p1355
sg4
I450
sg5
S'Louis C. Vroomen'
p1356
ssI451
(dp1357
g2
S'P89146'
p1358
sg4
I451
sg5
S'G. Chen'
p1359
ssI452
(dp1360
g2
S'P278221'
p1361
sg4
I452
sg5
S'Tamara Munzner'
p1362
ssI453
(dp1363
g2
S'P577440'
p1364
sg4
I453
sg5
S'James Wen'
p1365
ssI454
(dp1366
g2
S'P573453'
p1367
sg4
I454
sg5
S'Steven R. Corman'
p1368
ssI455
(dp1369
g2
S'P174743'
p1370
sg4
I455
sg5
S'Lyn Bartram'
p1371
ssI456
(dp1372
g2
S'P573455'
p1373
sg4
I456
sg5
S'Stuart J. Rose'
p1374
ssI457
(dp1375
g2
S'P69536'
p1376
sg4
I457
sg5
S'Doug Schaffer'
p1377
ssI458
(dp1378
g2
S'P572919'
p1379
sg4
I458
sg5
S'A. Schur'
p1380
ssI459
(dp1381
g2
S'P643537'
p1382
sg4
I459
sg5
S'John Michalak'
p1383
ssI460
(dp1384
g2
S'P643532'
p1385
sg4
I460
sg5
S'J. Schwegler'
p1386
ssI461
(dp1387
g2
S'P42092'
p1388
sg4
I461
sg5
S'Catherine C. Marshall'
p1389
ssI462
(dp1390
g2
S'P174793'
p1391
sg4
I462
sg5
S'Lynette Hirschman'
p1392
ssI463
(dp1393
g2
S'P573332'
p1394
sg4
I463
sg5
S'P. Cotture'
p1395
ssI464
(dp1396
g2
S'P572910'
p1397
sg4
I464
sg5
S'A. Pernicks'
p1398
ssI465
(dp1399
g2
S'P46578'
p1400
sg4
I465
sg5
S'Christian A. Duncan'
p1401
ssI466
(dp1402
g2
S'P137780'
p1403
sg4
I466
sg5
S'Jeffrey Joyce'
p1404
ssI467
(dp1405
g2
S'P237355'
p1406
sg4
I467
sg5
S'Rachna Dhamija'
p1407
ssI468
(dp1408
g2
S'P202708'
p1409
sg4
I468
sg5
S'Monika B\xc3\xbcscher'
p1410
ssI469
(dp1411
g2
S'P398954'
p1412
sg4
I469
sg5
S'Isaac Brewer'
p1413
ssI470
(dp1414
g2
S'P58874'
p1415
sg4
I470
sg5
S'Daniel Haug'
p1416
ssI471
(dp1417
g2
S'P196780'
p1418
sg4
I471
sg5
S'Michael L. Dertouzos'
p1419
ssI472
(dp1420
g2
S'P169789'
p1421
sg4
I472
sg5
S'Lawrence J. Rosenblum'
p1422
ssI473
(dp1423
g2
S'P120437'
p1424
sg4
I473
sg5
S'J. Bertin'
p1425
ssI474
(dp1426
g2
S'P286936'
p1427
sg4
I474
sg5
S'Usama M. Fayyad'
p1428
ssI475
(dp1429
g2
S'P96173'
p1430
sg4
I475
sg5
S'Georges Grinstein'
p1431
ssI476
(dp1432
g2
S'P549550'
p1433
sg4
I476
sg5
S'A. Varshney'
p1434
ssI477
(dp1435
g2
S'P209431'
p1436
sg4
I477
sg5
S'Nina Amenta'
p1437
ssI478
(dp1438
g2
S'P156277'
p1439
sg4
I478
sg5
S'Kaj Gr\xc3\xb8nb\xc3\xa6k'
p1440
ssI479
(dp1441
g2
S'P128972'
p1442
sg4
I479
sg5
S'J. Q. Walker, II'
p1443
ssI480
(dp1444
g2
S'P243325'
p1445
sg4
I480
sg5
S'Richard M. Wilson'
p1446
ssI481
(dp1447
g2
S'P29231'
p1448
sg4
I481
sg5
S'Bernard Dimsdale'
p1449
ssI482
(dp1450
g2
S'P40574'
p1451
sg4
I482
sg5
S'Can Keskin'
p1452
ssI483
(dp1453
g2
S'P38039'
p1454
sg4
I483
sg5
S'C. M. Pancake'
p1455
ssI484
(dp1456
g2
S'P373292'
p1457
sg4
I484
sg5
S'Mary M. Keller'
p1458
ssI485
(dp1459
g2
S'P573204'
p1460
sg4
I485
sg5
S'Julie Yang-Pel\xc3\xa1ez'
p1461
ssI486
(dp1462
g2
S'P63144'
p1463
sg4
I486
sg5
S'David Notkin'
p1464
ssI487
(dp1465
g2
S'P573206'
p1466
sg4
I487
sg5
S'J\xc3\xb6rn Schneidewind'
p1467
ssI488
(dp1468
g2
S'P149483'
p1469
sg4
I488
sg5
S'Joseph L. Steffen'
p1470
ssI489
(dp1471
g2
S'P61269'
p1472
sg4
I489
sg5
S'David Dobkin'
p1473
ssI490
(dp1474
g2
S'P573202'
p1475
sg4
I490
sg5
S'Julain Ladisch'
p1476
ssI491
(dp1477
g2
S'P999998'
p1478
sg4
I491
sg5
S'D. A. Carr'
p1479
ssI492
(dp1480
g2
S'P171045'
p1481
sg4
I492
sg5
S'Leslie Lamport'
p1482
ssI493
(dp1483
g2
S'P573149'
p1484
sg4
I493
sg5
S'J. Finger'
p1485
ssI494
(dp1486
g2
S'P573027'
p1487
sg4
I494
sg5
S'D. Lantrip'
p1488
ssI495
(dp1489
g2
S'P573021'
p1490
sg4
I495
sg5
S'D. Hackborn'
p1491
ssI496
(dp1492
g2
S'P573143'
p1493
sg4
I496
sg5
S'J. Croall'
p1494
ssI497
(dp1495
g2
S'P573142'
p1496
sg4
I497
sg5
S'J. Carriere'
p1497
ssI498
(dp1498
g2
S'P54778'
p1499
sg4
I498
sg5
S'D. Loisel'
p1500
ssI499
(dp1501
g2
S'P451420'
p1502
sg4
I499
sg5
S'Daniel Bielser'
p1503
ssI500
(dp1504
g2
S'P195684'
p1505
sg4
I500
sg5
S'Meichun Hsu'
p1506
ssI501
(dp1507
g2
S'P160215'
p1508
sg4
I501
sg5
S'Kenneth M. Martin'
p1509
ssI502
(dp1510
g2
S'P69361'
p1511
sg4
I502
sg5
S'Dorothea Wagner'
p1512
ssI503
(dp1513
g2
S'P62419'
p1514
sg4
I503
sg5
S'David S. Kosbie'
p1515
ssI504
(dp1516
g2
S'P192966'
p1517
sg4
I504
sg5
S'Mary L. Bailey'
p1518
ssI505
(dp1519
g2
S'P457399'
p1520
sg4
I505
sg5
S'Franz-Josef Brandenburg'
p1521
ssI506
(dp1522
g2
S'P164140'
p1523
sg4
I506
sg5
S'Kyoji Hirata'
p1524
ssI507
(dp1525
g2
S'P11952'
p1526
sg4
I507
sg5
S'Al Globus'
p1527
ssI508
(dp1528
g2
S'P66646'
p1529
sg4
I508
sg5
S'Diane Tang'
p1530
ssI509
(dp1531
g2
S'P147077'
p1532
sg4
I509
sg5
S'Jon Zou'
p1533
ssI510
(dp1534
g2
S'P365119'
p1535
sg4
I510
sg5
S'Childrens Press'
p1536
ssI511
(dp1537
g2
S'P62495'
p1538
sg4
I511
sg5
S'David Laidlaw'
p1539
ssI512
(dp1540
g2
S'P280182'
p1541
sg4
I512
sg5
S'Thom Grace'
p1542
ssI513
(dp1543
g2
S'P146953'
p1544
sg4
I513
sg5
S'Jon Meyer'
p1545
ssI514
(dp1546
g2
S'P120983'
p1547
sg4
I514
sg5
S'J. Callahan'
p1548
ssI515
(dp1549
g2
S'P49314'
p1550
sg4
I515
sg5
S'Clemens Kunkel'
p1551
ssI516
(dp1552
g2
S'P76836'
p1553
sg4
I516
sg5
S'Elizabeth Shoop'
p1554
ssI517
(dp1555
g2
S'P43353'
p1556
sg4
I517
sg5
S'Charles R. Dyer'
p1557
ssI518
(dp1558
g2
S'P29735'
p1559
sg4
I518
sg5
S'Bernice E. Rogowitz'
p1560
ssI519
(dp1561
g2
S'P56512'
p1562
sg4
I519
sg5
S'D. J. Spiegelhalter'
p1563
ssI520
(dp1564
g2
S'P307553'
p1565
sg4
I520
sg5
S'Yuan Gao'
p1566
ssI521
(dp1567
g2
S'P136466'
p1568
sg4
I521
sg5
S'Jean-Daniel Fekete'
p1569
ssI522
(dp1570
g2
S'P32208'
p1571
sg4
I522
sg5
S'Brenda Laurel'
p1572
ssI523
(dp1573
g2
S'P250746'
p1574
sg4
I523
sg5
S'Ryan Baxter'
p1575
ssI524
(dp1576
g2
S'P250745'
p1577
sg4
I524
sg5
S'Ryan S. Baker'
p1578
ssI525
(dp1579
g2
S'P339321'
p1580
sg4
I525
sg5
S'Ka-Ping Yee'
p1581
ssI526
(dp1582
g2
S'P207303'
p1583
sg4
I526
sg5
S'Naphtali Rishe'
p1584
ssI527
(dp1585
g2
S'P422089'
p1586
sg4
I527
sg5
S'Arne Frick'
p1587
ssI528
(dp1588
g2
S'P230677'
p1589
sg4
I528
sg5
S'R. Daniel Bergeron'
p1590
ssI529
(dp1591
g2
S'P109656'
p1592
sg4
I529
sg5
S'Henry H. Rueter'
p1593
ssI530
(dp1594
g2
S'P29946'
p1595
sg4
I530
sg5
S'Beth Hetzler'
p1596
ssI531
(dp1597
g2
S'P388072'
p1598
sg4
I531
sg5
S'Anders S. Krogh'
p1599
ssI532
(dp1600
g2
S'P226873'
p1601
sg4
I532
sg5
S'Phillip Barry'
p1602
ssI533
(dp1603
g2
S'P77049'
p1604
sg4
I533
sg5
S'Elliot J. Chikofsky'
p1605
ssI534
(dp1606
g2
S'P294966'
p1607
sg4
I534
sg5
S'W. B. Rouse'
p1608
ssI535
(dp1609
g2
S'P300312'
p1610
sg4
I535
sg5
S'William York'
p1611
ssI536
(dp1612
g2
S'P236907'
p1613
sg4
I536
sg5
S'R. L. Winslow'
p1614
ssI537
(dp1615
g2
S'P190979'
p1616
sg4
I537
sg5
S'Mark Roseman'
p1617
ssI538
(dp1618
g2
S'P260891'
p1619
sg4
I538
sg5
S'Scott Henninger'
p1620
ssI539
(dp1621
g2
S'P64183'
p1622
sg4
I539
sg5
S'David Ungar'
p1623
ssI540
(dp1624
g2
S'P262246'
p1625
sg4
I540
sg5
S'Seth Widoff'
p1626
ssI541
(dp1627
g2
S'P49409'
p1628
sg4
I541
sg5
S'Clifford Beshers'
p1629
ssI542
(dp1630
g2
S'P98198'
p1631
sg4
I542
sg5
S'Giuseppe Liotta'
p1632
ssI543
(dp1633
g2
S'P208934'
p1634
sg4
I543
sg5
S'Nicole Yankelovich'
p1635
ssI544
(dp1636
g2
S'P95484'
p1637
sg4
I544
sg5
S'George W. Furnas'
p1638
ssI545
(dp1639
g2
S'P86676'
p1640
sg4
I545
sg5
S'Fred Petry'
p1641
ssI546
(dp1642
g2
S'P254127'
p1643
sg4
I546
sg5
S'S. Huang'
p1644
ssI547
(dp1645
g2
S'P308348'
p1646
sg4
I547
sg5
S'Yuriko Takeshima'
p1647
ssI548
(dp1648
g2
S'P225001'
p1649
sg4
I548
sg5
S'Peter Pirolli'
p1650
ssI549
(dp1651
g2
S'P146109'
p1652
sg4
I549
sg5
S'John Stasko'
p1653
ssI550
(dp1654
g2
S'P39001'
p1655
sg4
I550
sg5
S'C. C. Taylor'
p1656
ssI551
(dp1657
g2
S'P245284'
p1658
sg4
I551
sg5
S'Robert J. K. Jacob'
p1659
ssI552
(dp1660
g2
S'P168847'
p1661
sg4
I552
sg5
S'Lars Erik Holmquist'
p1662
ssI553
(dp1663
g2
S'P306536'
p1664
sg4
I553
sg5
S'Yoshihiko Ichikawa'
p1665
ssI554
(dp1666
g2
S'P515109'
p1667
sg4
I554
sg5
S'Helmut Doleisch'
p1668
ssI555
(dp1669
g2
S'P77911'
p1670
sg4
I555
sg5
S'Eric A. Bier'
p1671
ssI556
(dp1672
g2
S'P282032'
p1673
sg4
I556
sg5
S'Tian Zhang'
p1674
ssI557
(dp1675
g2
S'P87379'
p1676
sg4
I557
sg5
S'Fusako Hirabayashi'
p1677
ssI558
(dp1678
g2
S'P333992'
p1679
sg4
I558
sg5
S'Teresa Bleser'
p1680
ssI559
(dp1681
g2
S'P177594'
p1682
sg4
I559
sg5
S'M. Sheelagh T. Carpendale'
p1683
ssI560
(dp1684
g2
S'P48043'
p1685
sg4
I560
sg5
S'Christos Faloutsos'
p1686
ssI561
(dp1687
g2
S'P447167'
p1688
sg4
I561
sg5
S'Bruce Leban'
p1689
ssI562
(dp1690
g2
S'P358220'
p1691
sg4
I562
sg5
S'Robert L. Harris'
p1692
ssI563
(dp1693
g2
S'P196601'
p1694
sg4
I563
sg5
S'Michael Chen'
p1695
ssI564
(dp1696
g2
S'P117016'
p1697
sg4
I564
sg5
S'Isabel F. Cruz'
p1698
ssI565
(dp1699
g2
S'P248405'
p1700
sg4
I565
sg5
S'Rolf Koch'
p1701
ssI566
(dp1702
g2
S'P547430'
p1703
sg4
I566
sg5
S'Dwayne Westenskow'
p1704
ssI567
(dp1705
g2
S'P210210'
p1706
sg4
I567
sg5
S'Norman E. Fenton'
p1707
ssI568
(dp1708
g2
S'P20682'
p1709
sg4
I568
sg5
S'Anton Leuski'
p1710
ssI569
(dp1711
g2
S'P138064'
p1712
sg4
I569
sg5
S'Jeffrey D. Ullman'
p1713
ssI570
(dp1714
g2
S'P75487'
p1715
sg4
I570
sg5
S'Edward L. Robertson'
p1716
ssI571
(dp1717
g2
S'P183788'
p1718
sg4
I571
sg5
S'M. Sheelagh'
p1719
ssI572
(dp1720
g2
S'P643579'
p1721
sg4
I572
sg5
S'Fergus J. Merritt'
p1722
ssI573
(dp1723
g2
S'P76526'
p1724
sg4
I573
sg5
S'Eliot Solomon'
p1725
ssI574
(dp1726
g2
S'P46510'
p1727
sg4
I574
sg5
S'Christian Beilken'
p1728
ssI575
(dp1729
g2
S'P279080'
p1730
sg4
I575
sg5
S'Teresa Mah'
p1731
ssI576
(dp1732
g2
S'P465743'
p1733
sg4
I576
sg5
S'J. P. Lee'
p1734
ssI577
(dp1735
g2
S'P68610'
p1736
sg4
I577
sg5
S'Donald Michie'
p1737
ssI578
(dp1738
g2
S'P643577'
p1739
sg4
I578
sg5
S'E. Gawlinski'
p1740
ssI579
(dp1741
g2
S'P299898'
p1742
sg4
I579
sg5
S'William Ruh'
p1743
ssI580
(dp1744
g2
S'P221678'
p1745
sg4
I580
sg5
S'Paul Kruszewski'
p1746
ssI581
(dp1747
g2
S'P133367'
p1748
sg4
I581
sg5
S'James Roberg\xc3\xa9'
p1749
ssI582
(dp1750
g2
S'P281425'
p1751
sg4
I582
sg5
S'Thomas Porter'
p1752
ssI583
(dp1753
g2
S'P241617'
p1754
sg4
I583
sg5
S'Richard Chimera'
p1755
ssI584
(dp1756
g2
S'P131909'
p1757
sg4
I584
sg5
S'James H. Clark'
p1758
ssI585
(dp1759
g2
S'P48629'
p1760
sg4
I585
sg5
S'Cimarron Taylor'
p1761
ssI586
(dp1762
g2
S'P170419'
p1763
sg4
I586
sg5
S'Lennart E. Fahl\xc3\xa9n'
p1764
ssI587
(dp1765
g2
S'P150480'
p1766
sg4
I587
sg5
S'Judy Kay'
p1767
ssI588
(dp1768
g2
S'P131535'
p1769
sg4
I588
sg5
S'James Abello'
p1770
ssI589
(dp1771
g2
S'P193037'
p1772
sg4
I589
sg5
S'Mary Czerwinski'
p1773
ssI590
(dp1774
g2
S'P60509'
p1775
sg4
I590
sg5
S'David Banks'
p1776
ssI591
(dp1777
g2
S'P17277'
p1778
sg4
I591
sg5
S'Andreas Buja'
p1779
ssI592
(dp1780
g2
S'P248713'
p1781
sg4
I592
sg5
S'Ron Kohavi'
p1782
ssI593
(dp1783
g2
S'P267773'
p1784
sg4
I593
sg5
S'Stephan Kerpedjiev'
p1785
ssI594
(dp1786
g2
S'P552775'
p1787
sg4
I594
sg5
S'Theo Van Walsum'
p1788
ssI595
(dp1789
g2
S'P60506'
p1790
sg4
I595
sg5
S'David C. Banks'
p1791
ssI596
(dp1792
g2
S'P453201'
p1793
sg4
I596
sg5
S'Doanna Meads'
p1794
ssI597
(dp1795
g2
S'P277957'
p1796
sg4
I597
sg5
S'Takeo Igarashi'
p1797
ssI598
(dp1798
g2
S'P269352'
p1799
sg4
I598
sg5
S'Steve Lawrence'
p1800
ssI599
(dp1801
g2
S'P279588'
p1802
sg4
I599
sg5
S'Teuvo Kohonen'
p1803
ssI600
(dp1804
g2
S'P243148'
p1805
sg4
I600
sg5
S'Richard C. Thomas'
p1806
ssI601
(dp1807
g2
S'P181416'
p1808
sg4
I601
sg5
S'M. Manyin'
p1809
ssI602
(dp1810
g2
S'P573488'
p1811
sg4
I602
sg5
S'Ted Tanasse'
p1812
ssI603
(dp1813
g2
S'P425218'
p1814
sg4
I603
sg5
S'James H. Cross II'
p1815
ssI604
(dp1816
g2
S'P573062'
p1817
sg4
I604
sg5
S'Edward R. Van Selow'
p1818
ssI605
(dp1819
g2
S'P371337'
p1820
sg4
I605
sg5
S'Kan Pimentel'
p1821
ssI606
(dp1822
g2
S'P573068'
p1823
sg4
I606
sg5
S'Ernst Kleiberg'
p1824
ssI607
(dp1825
g2
S'P573340'
p1826
sg4
I607
sg5
S'P. Luders'
p1827
ssI608
(dp1828
g2
S'P144637'
p1829
sg4
I608
sg5
S'John Kolojejchick'
p1830
ssI609
(dp1831
g2
S'P12980'
p1832
sg4
I609
sg5
S'Albert Badro'
p1833
ssI610
(dp1834
g2
S'P572942'
p1835
sg4
I610
sg5
S'Andr\xc3\xa9 Skupin'
p1836
ssI611
(dp1837
g2
S'P573346'
p1838
sg4
I611
sg5
S'P. J. Stroffolino'
p1839
ssI612
(dp1840
g2
S'P44212'
p1841
sg4
I612
sg5
S'Charlie McDowell'
p1842
ssI613
(dp1843
g2
S'P42125'
p1844
sg4
I613
sg5
S'Catherine Plaisant'
p1845
ssI614
(dp1846
g2
S'P196981'
p1847
sg4
I614
sg5
S'Michael J. Flynn'
p1848
ssI615
(dp1849
g2
S'P74902'
p1850
sg4
I615
sg5
S'Eduard Hovy'
p1851
ssI616
(dp1852
g2
S'P162366'
p1853
sg4
I616
sg5
S'Klaus Reichenberger'
p1854
ssI617
(dp1855
g2
S'P65707'
p1856
sg4
I617
sg5
S'Dennis Gannon'
p1857
ssI618
(dp1858
g2
S'P34285'
p1859
sg4
I618
sg5
S'Byron Dom'
p1860
ssI619
(dp1861
g2
S'P173344'
p1862
sg4
I619
sg5
S'Lothar Rostek'
p1863
ssI620
(dp1864
g2
S'P138882'
p1865
sg4
I620
sg5
S'Jerome H. Friedman'
p1866
ssI621
(dp1867
g2
S'P246434'
p1868
sg4
I621
sg5
S'Robert E. Sheehan'
p1869
ssI622
(dp1870
g2
S'P343763'
p1871
sg4
I622
sg5
S'Raimund Dachselt'
p1872
ssI623
(dp1873
g2
S'P316942'
p1874
sg4
I623
sg5
S'Andrej Cedilnik'
p1875
ssI624
(dp1876
g2
S'P267504'
p1877
sg4
I624
sg5
S'Stefan Zeiger'
p1878
ssI625
(dp1879
g2
S'P212078'
p1880
sg4
I625
sg5
S'Olov St\xc3\xa5hl'
p1881
ssI626
(dp1882
g2
S'P280273'
p1883
sg4
I626
sg5
S'Thomas Baudel'
p1884
ssI627
(dp1885
g2
S'P572890'
p1886
sg4
I627
sg5
S'A. H. Crabb'
p1887
ssI628
(dp1888
g2
S'P191919'
p1889
sg4
I628
sg5
S'Marti Hearst'
p1890
ssI629
(dp1891
g2
S'P202714'
p1892
sg4
I629
sg5
S'Monika Gorkani'
p1893
ssI630
(dp1894
g2
S'P390003'
p1895
sg4
I630
sg5
S'Gwilym Jenkins'
p1896
ssI631
(dp1897
g2
S'P144936'
p1898
sg4
I631
sg5
S'John H. Maloney'
p1899
ssI632
(dp1900
g2
S'P395282'
p1901
sg4
I632
sg5
S'E. Hoffman'
p1902
ssI633
(dp1903
g2
S'P261265'
p1904
sg4
I633
sg5
S'Scott N. Woodfield'
p1905
ssI634
(dp1906
g2
S'P19124'
p1907
sg4
I634
sg5
S'Anil Nair'
p1908
ssI635
(dp1909
g2
S'P579053'
p1910
sg4
I635
sg5
S'Guy Melancon'
p1911
ssI636
(dp1912
g2
S'P141428'
p1913
sg4
I636
sg5
S'Joachim M. Buhmann'
p1914
ssI637
(dp1915
g2
S'P203609'
p1916
sg4
I637
sg5
S'Murugappan Palaniappan'
p1917
ssI638
(dp1918
g2
S'P16174'
p1919
sg4
I638
sg5
S'Amjad Daoud'
p1920
ssI639
(dp1921
g2
S'P194797'
p1922
sg4
I639
sg5
S'Matthias Kreuseler'
p1923
ssI640
(dp1924
g2
S'P140403'
p1925
sg4
I640
sg5
S'Jim Hollan'
p1926
ssI641
(dp1927
g2
S'P144264'
p1928
sg4
I641
sg5
S'John Hertz'
p1929
ssI642
(dp1930
g2
S'P143200'
p1931
sg4
I642
sg5
S'John V. Carlis'
p1932
ssI643
(dp1933
g2
S'P386218'
p1934
sg4
I643
sg5
S'Kevin W. Boyack'
p1935
ssI644
(dp1936
g2
S'P225590'
p1937
sg4
I644
sg5
S'Peter Wisnovsky'
p1938
ssI645
(dp1939
g2
S'P213763'
p1940
sg4
I645
sg5
S'P. Balasubramanian'
p1941
ssI646
(dp1942
g2
S'P64168'
p1943
sg4
I646
sg5
S'David Turo'
p1944
ssI647
(dp1945
g2
S'P268092'
p1946
sg4
I647
sg5
S'Stephen M. Casner'
p1947
ssI648
(dp1948
g2
S'P77081'
p1949
sg4
I648
sg5
S'Elliot Soloway'
p1950
ssI649
(dp1951
g2
S'P187155'
p1952
sg4
I649
sg5
S'Mao Lin Huang'
p1953
ssI650
(dp1954
g2
S'P270779'
p1955
sg4
I650
sg5
S'Stuart Shieber'
p1956
ssI651
(dp1957
g2
S'P135241'
p1958
sg4
I651
sg5
S'Jarke J. van Wijk'
p1959
ssI652
(dp1960
g2
S'P276857'
p1961
sg4
I652
sg5
S'T. B. Walters'
p1962
ssI653
(dp1963
g2
S'P291541'
p1964
sg4
I653
sg5
S'Vinit Jain'
p1965
ssI654
(dp1966
g2
S'P132751'
p1967
sg4
I654
sg5
S'James M. Kukla'
p1968
ssI655
(dp1969
g2
S'P14716'
p1970
sg4
I655
sg5
S'Alfred Inselberg'
p1971
ssI656
(dp1972
g2
S'P246447'
p1973
sg4
I656
sg5
S'Robert A. Shillner'
p1974
ssI657
(dp1975
g2
S'P643533'
p1976
sg4
I657
sg5
S'J. Timlin'
p1977
ssI658
(dp1978
g2
S'P272369'
p1979
sg4
I658
sg5
S'Susanne Jul'
p1980
ssI659
(dp1981
g2
S'P197441'
p1982
sg4
I659
sg5
S'Michael E. Houle'
p1983
ssI660
(dp1984
g2
S'P160714'
p1985
sg4
I660
sg5
S'Kerry Rodden'
p1986
ssI661
(dp1987
g2
S'P528656'
p1988
sg4
I661
sg5
S'R. Orosco'
p1989
ssI662
(dp1990
g2
S'P60727'
p1991
sg4
I662
sg5
S'David Brailsford'
p1992
ssI663
(dp1993
g2
S'P527299'
p1994
sg4
I663
sg5
S'Wolfgang M\xc3\xbcller'
p1995
ssI664
(dp1996
g2
S'P573119'
p1997
sg4
I664
sg5
S'H. A. Sowizral'
p1998
ssI665
(dp1999
g2
S'P204628'
p2000
sg4
I665
sg5
S'N. S. Drew'
p2001
ssI666
(dp2002
g2
S'P573188'
p2003
sg4
I666
sg5
S'Jeffrey Senn'
p2004
ssI667
(dp2005
g2
S'P573187'
p2006
sg4
I667
sg5
S'Jeff Klingner'
p2007
ssI668
(dp2008
g2
S'P327405'
p2009
sg4
I668
sg5
S'J\xc3\xbcrgen Branke'
p2010
ssI669
(dp2011
g2
S'P394247'
p2012
sg4
I669
sg5
S'William C. Cleveland'
p2013
ssI670
(dp2014
g2
S'P151647'
p2015
sg4
I670
sg5
S'Justin Zobel'
p2016
ssI671
(dp2017
g2
S'P80040'
p2018
sg4
I671
sg5
S'Ewa Callahan'
p2019
ssI672
(dp2020
g2
S'P573181'
p2021
sg4
I672
sg5
S'James K. Rayson'
p2022
ssI673
(dp2023
g2
S'P573180'
p2024
sg4
I673
sg5
S'James Harrison'
p2025
ssI674
(dp2026
g2
S'P573524'
p2027
sg4
I674
sg5
S'W. Wright'
p2028
ssI675
(dp2029
g2
S'P299801'
p2030
sg4
I675
sg5
S'William H. Press'
p2031
ssI676
(dp2032
g2
S'P252998'
p2033
sg4
I676
sg5
S'S. Dar'
p2034
ssI677
(dp2035
g2
S'P146794'
p2036
sg4
I677
sg5
S'Jolly Chen'
p2037
ssI678
(dp2038
g2
S'P302036'
p2039
sg4
I678
sg5
S'Xiaolong Zhang'
p2040
ssI679
(dp2041
g2
S'P28355'
p2042
sg4
I679
sg5
S'Bastiaan Sch\xc3\xb6nhage'
p2043
ssI680
(dp2044
g2
S'P141720'
p2045
sg4
I680
sg5
S'Joanna Vasilakis'
p2046
ssI681
(dp2047
g2
S'P41698'
p2048
sg4
I681
sg5
S'Caroline Paxson'
p2049
ssI682
(dp2050
g2
S'P223212'
p2051
sg4
I682
sg5
S'Penny Rheingans'
p2052
ssI683
(dp2053
g2
S'P31332'
p2054
sg4
I683
sg5
S'Bob Spence'
p2055
ssI684
(dp2056
g2
S'P244239'
p2057
sg4
I684
sg5
S'Robert Bosch'
p2058
ssI685
(dp2059
g2
S'P297313'
p2060
sg4
I685
sg5
S'Wei-Ying Ma'
p2061
ssI686
(dp2062
g2
S'P66171'
p2063
sg4
I686
sg5
S'Derick Wood'
p2064
ssI687
(dp2065
g2
S'P299195'
p2066
sg4
I687
sg5
S'William C. Hill'
p2067
ssI688
(dp2068
g2
S'P139748'
p2069
sg4
I688
sg5
S'Jianbo Shi'
p2070
ssI689
(dp2071
g2
S'P222852'
p2072
sg4
I689
sg5
S'Pearl Pu'
p2073
ssI690
(dp2074
g2
S'P299190'
p2075
sg4
I690
sg5
S'William L. Hibbard'
p2076
ssI691
(dp2077
g2
S'P271174'
p2078
sg4
I691
sg5
S'Suguru Ishizaki'
p2079
ssI692
(dp2080
g2
S'P221082'
p2081
sg4
I692
sg5
S'Paul Chitson'
p2082
ssI693
(dp2083
g2
S'P132154'
p2084
sg4
I693
sg5
S'James T. Enns'
p2085
ssI694
(dp2086
g2
S'P163821'
p2087
sg4
I694
sg5
S'Kurt Mehlhorn'
p2088
ssI695
(dp2089
g2
S'P422121'
p2090
sg4
I695
sg5
S'Bruce E. Brown'
p2091
ssI696
(dp2092
g2
S'P54023'
p2093
sg4
I696
sg5
S'D. Hopkins'
p2094
ssI697
(dp2095
g2
S'P30329'
p2096
sg4
I697
sg5
S'Bill Appelbe'
p2097
ssI698
(dp2098
g2
S'P190884'
p2099
sg4
I698
sg5
S'Mark Phillips'
p2100
ssI699
(dp2101
g2
S'P48006'
p2102
sg4
I699
sg5
S'Christopher Williamson'
p2103
ssI700
(dp2104
g2
S'P422114'
p2105
sg4
I700
sg5
S'Brendan Madden'
p2106
ssI701
(dp2107
g2
S'P529470'
p2108
sg4
I701
sg5
S'J\xc3\xbcrgen Ebert'
p2109
ssI702
(dp2110
g2
S'P421159'
p2111
sg4
I702
sg5
S'Frank J. Post'
p2112
ssI703
(dp2113
g2
S'P161205'
p2114
sg4
I703
sg5
S'Kevin Smith'
p2115
ssI704
(dp2116
g2
S'P33048'
p2117
sg4
I704
sg5
S'Brian Unger'
p2118
ssI705
(dp2119
g2
S'P231954'
p2120
sg4
I705
sg5
S'R. Ernst'
p2121
ssI706
(dp2122
g2
S'P160814'
p2123
sg4
I706
sg5
S'Kevin Biolsi'
p2124
ssI707
(dp2125
g2
S'P485738'
p2126
sg4
I707
sg5
S'Patrick Madden'
p2127
ssI708
(dp2128
g2
S'P197164'
p2129
sg4
I708
sg5
S'Michael T. Goodrich'
p2130
ssI709
(dp2131
g2
S'P197160'
p2132
sg4
I709
sg5
S'Michael Good'
p2133
ssI710
(dp2134
g2
S'P68493'
p2135
sg4
I710
sg5
S'Donald H. House'
p2136
ssI711
(dp2137
g2
S'P69495'
p2138
sg4
I711
sg5
S'Doug Kimelman'
p2139
ssI712
(dp2140
g2
S'P187249'
p2141
sg4
I712
sg5
S'Marc Abrams'
p2142
ssI713
(dp2143
g2
S'P86287'
p2144
sg4
I713
sg5
S'Frank,G. Halasz'
p2145
ssI714
(dp2146
g2
S'P10635'
p2147
sg4
I714
sg5
S'Adam Finkelstein'
p2148
ssI715
(dp2149
g2
S'P75845'
p2150
sg4
I715
sg5
S'Egemen Tanin'
p2151
ssI716
(dp2152
g2
S'P378107'
p2153
sg4
I716
sg5
S'T. Shiota'
p2154
ssI717
(dp2155
g2
S'P206996'
p2156
sg4
I717
sg5
S'Nancy Miller'
p2157
ssI718
(dp2158
g2
S'P475248'
p2159
sg4
I718
sg5
S'Lou Martucci'
p2160
ssI719
(dp2161
g2
S'P199512'
p2162
sg4
I719
sg5
S'Michel Beaudouin-Lafon'
p2163
ssI720
(dp2164
g2
S'P161036'
p2165
sg4
I720
sg5
S'Kevin Larson'
p2166
ssI721
(dp2167
g2
S'P18196'
p2168
sg4
I721
sg5
S'Andrew Moore'
p2169
ssI722
(dp2170
g2
S'P47461'
p2171
sg4
I722
sg5
S'Christopher Ahlberg'
p2172
ssI723
(dp2173
g2
S'P328169'
p2174
sg4
I723
sg5
S'Mark Handy'
p2175
ssI724
(dp2176
g2
S'P170457'
p2177
sg4
I724
sg5
S'Lenwood S. Heath'
p2178
ssI725
(dp2179
g2
S'P20012'
p2180
sg4
I725
sg5
S'Annemarie Herrmann'
p2181
ssI726
(dp2182
g2
S'P303426'
p2183
sg4
I726
sg5
S'Y. K. Leung'
p2184
ssI727
(dp2185
g2
S'P573528'
p2186
sg4
I727
sg5
S'Wendy Cowley'
p2187
ssI728
(dp2188
g2
S'P284281'
p2189
sg4
I728
sg5
S'Tony D. DeRose'
p2190
ssI729
(dp2191
g2
S'P223328'
p2192
sg4
I729
sg5
S'Per-Kristian Halvorsen'
p2193
ssI730
(dp2194
g2
S'P123305'
p2195
sg4
I730
sg5
S'J. M. Hammer'
p2196
ssI731
(dp2197
g2
S'P342898'
p2198
sg4
I731
sg5
S'Denis Lalanne'
p2199
ssI732
(dp2200
g2
S'P143674'
p2201
sg4
I732
sg5
S'John D. M. Edwards'
p2202
ssI733
(dp2203
g2
S'P61896'
p2204
sg4
I733
sg5
S'David J. Harper'
p2205
ssI734
(dp2206
g2
S'P354952'
p2207
sg4
I734
sg5
S'John A. Hartigan'
p2208
ssI735
(dp2209
g2
S'P17980'
p2210
sg4
I735
sg5
S'Andrew J. Hanson'
p2211
ssI736
(dp2212
g2
S'P159548'
p2213
sg4
I736
sg5
S'Ken Perlin'
p2214
ssI737
(dp2215
g2
S'P62163'
p2216
sg4
I737
sg5
S'David Jablonowski'
p2217
ssI738
(dp2218
g2
S'P345085'
p2219
sg4
I738
sg5
S'Sandeep Prabhakar'
p2220
ssI739
(dp2221
g2
S'P327358'
p2222
sg4
I739
sg5
S'Guillermo A. Averboch'
p2223
ssI740
(dp2224
g2
S'P107778'
p2225
sg4
I740
sg5
S'Harpreet Sawhney'
p2226
ssI741
(dp2227
g2
S'P42765'
p2228
sg4
I741
sg5
S'Chandu Karadi'
p2229
ssI742
(dp2230
g2
S'P137799'
p2231
sg4
I742
sg5
S'Jeffrey Korn'
p2232
ssI743
(dp2233
g2
S'P218545'
p2234
sg4
I743
sg5
S'P. Wolf'
p2235
ssI744
(dp2236
g2
S'P63937'
p2237
sg4
I744
sg5
S'David Steele'
p2238
ssI745
(dp2239
g2
S'P572900'
p2240
sg4
I745
sg5
S'A. J. Kolojechick'
p2241
ssI746
(dp2242
g2
S'P121955'
p2243
sg4
I746
sg5
S'J. Dodge'
p2244
ssI747
(dp2245
g2
S'P25750'
p2246
sg4
I747
sg5
S'B. S. Manjunath'
p2247
ssI748
(dp2248
g2
S'P159422'
p2249
sg4
I748
sg5
S'Ken Fishkin'
p2250
ssI749
(dp2251
g2
S'P194288'
p2252
sg4
I749
sg5
S'Mats Lind'
p2253
ssI750
(dp2254
g2
S'P438303'
p2255
sg4
I750
sg5
S'Daniel Keim'
p2256
ssI751
(dp2257
g2
S'P67578'
p2258
sg4
I751
sg5
S'Divesh Srivastava'
p2259
ssI752
(dp2260
g2
S'P79621'
p2261
sg4
I752
sg5
S'Eugene Stanley'
p2262
ssI753
(dp2263
g2
S'P32711'
p2264
sg4
I753
sg5
S'Brian Johnson'
p2265
ssI754
(dp2266
g2
S'P260595'
p2267
sg4
I754
sg5
S'Saul Greenberg'
p2268
ssI755
(dp2269
g2
S'P572992'
p2270
sg4
I755
sg5
S'C. Russo dos Santos'
p2271
ssI756
(dp2272
g2
S'P155762'
p2273
sg4
I756
sg5
S'K. Wenger'
p2274
ssI757
(dp2275
g2
S'P487877'
p2276
sg4
I757
sg5
S'Qing-Wen Feng'
p2277
ssI758
(dp2278
g2
S'P572997'
p2279
sg4
I758
sg5
S'Camilla Forsell'
p2280
ssI759
(dp2281
g2
S'P508337'
p2282
sg4
I759
sg5
S'K.-P. Vo'
p2283
ssI760
(dp2284
g2
S'P75893'
p2285
sg4
I760
sg5
S'Ehud Rivlin'
p2286
ssI761
(dp2287
g2
S'P227961'
p2288
sg4
I761
sg5
S'Pourang Irani'
p2289
ssI762
(dp2290
g2
S'P309831'
p2291
sg4
I762
sg5
S'Zhengping Zuo'
p2292
ssI763
(dp2293
g2
S'P268230'
p2294
sg4
I763
sg5
S'Stephen G. Eick'
p2295
ssI764
(dp2296
g2
S'P115664'
p2297
sg4
I764
sg5
S'Ian Taylor'
p2298
ssI765
(dp2299
g2
S'P247317'
p2300
sg4
I765
sg5
S'Robin L. Kullberg'
p2301
ssI766
(dp2302
g2
S'P573233'
p2303
sg4
I766
sg5
S'Kreimir Matkovic'
p2304
ssI767
(dp2305
g2
S'P2329'
p2306
sg4
I767
sg5
S'A. Blake'
p2307
ssI768
(dp2308
g2
S'P271764'
p2309
sg4
I768
sg5
S'Suresh K. Lodha'
p2310
ssI769
(dp2311
g2
S'P573237'
p2312
sg4
I769
sg5
S'L. J. Johnston'
p2313
ssI770
(dp2314
g2
S'P140361'
p2315
sg4
I770
sg5
S'Jim Gray'
p2316
ssI771
(dp2317
g2
S'P299459'
p2318
sg4
I771
sg5
S'William E. Lorensen'
p2319
ssI772
(dp2320
g2
S'P125936'
p2321
sg4
I772
sg5
S'J. Myllymaki'
p2322
ssI773
(dp2323
g2
S'P643561'
p2324
sg4
I773
sg5
S'T. Lasinski'
p2325
ssI774
(dp2326
g2
S'P230591'
p2327
sg4
I774
sg5
S'R. Beale'
p2328
ssI775
(dp2329
g2
S'P144705'
p2330
sg4
I775
sg5
S'John Lamping'
p2331
ssI776
(dp2332
g2
S'P285684'
p2333
sg4
I776
sg5
S'Tyson R. Henry'
p2334
ssI777
(dp2335
g2
S'P284947'
p2336
sg4
I777
sg5
S'Tova Avidan'
p2337
ssI778
(dp2338
g2
S'P181080'
p2339
sg4
I778
sg5
S'M. Li'
p2340
ssI779
(dp2341
g2
S'P237998'
p2342
sg4
I779
sg5
S'Rajeev Motwani'
p2343
ssI780
(dp2344
g2
S'P505041'
p2345
sg4
I780
sg5
S'Zvi Polunsky'
p2346
ssI781
(dp2347
g2
S'P188133'
p2348
sg4
I781
sg5
S'Marcus Haupt'
p2349
ssI782
(dp2350
g2
S'P283259'
p2351
sg4
I782
sg5
S'Todd Veldhuizen'
p2352
ssI783
(dp2353
g2
S'P569393'
p2354
sg4
I783
sg5
S'D. F. Jerding'
p2355
ssI784
(dp2356
g2
S'P246404'
p2357
sg4
I784
sg5
S'Robert Sedgewick'
p2358
ssI785
(dp2359
g2
S'P164152'
p2360
sg4
I785
sg5
S'Kyoko Nakamura'
p2361
ssI786
(dp2362
g2
S'P65458'
p2363
sg4
I786
sg5
S'Denis Lee'
p2364
ssI787
(dp2365
g2
S'P305340'
p2366
sg4
I787
sg5
S'Yen-Ping Shan'
p2367
ssI788
(dp2368
g2
S'P128597'
p2369
sg4
I788
sg5
S'J. Tromp'
p2370
ssI789
(dp2371
g2
S'P135155'
p2372
sg4
I789
sg5
S'Janusz Wnek'
p2373
ssI790
(dp2374
g2
S'P131687'
p2375
sg4
I790
sg5
S'James E. Bennett'
p2376
ssI791
(dp2377
g2
S'P339922'
p2378
sg4
I791
sg5
S'Dee Jay Randall'
p2379
ssI792
(dp2380
g2
S'P222728'
p2381
sg4
I792
sg5
S'Pavel Berkhin'
p2382
ssI793
(dp2383
g2
S'P573113'
p2384
sg4
I793
sg5
S'Greg Ross'
p2385
ssI794
(dp2386
g2
S'P290421'
p2387
sg4
I794
sg5
S'Venky Harinarayan'
p2388
ssI795
(dp2389
g2
S'P298076'
p2390
sg4
I795
sg5
S'Werner Stuetzle'
p2391
ssI796
(dp2392
g2
S'P300239'
p2393
sg4
I796
sg5
S'William J. Weiland'
p2394
ssI797
(dp2395
g2
S'P482738'
p2396
sg4
I797
sg5
S'N. Trichaud'
p2397
ssI798
(dp2398
g2
S'P573301'
p2399
sg4
I798
sg5
S'Monika B\xc3\xbcscher'
p2400
ssI799
(dp2401
g2
S'P573300'
p2402
sg4
I799
sg5
S'Monica Tavanti'
p2403
ssI800
(dp2404
g2
S'P573303'
p2405
sg4
I800
sg5
S'N. Alper'
p2406
ssI801
(dp2407
g2
S'P198765'
p2408
sg4
I801
sg5
S'Michael F. Schwartz'
p2409
ssI802
(dp2410
g2
S'P270635'
p2411
sg4
I802
sg5
S'Stuart Card'
p2412
ssI803
(dp2413
g2
S'P192713'
p2414
sg4
I803
sg5
S'Martin Wattenberg'
p2415
ssI804
(dp2416
g2
S'P192305'
p2417
sg4
I804
sg5
S'Martin Juvan'
p2418
ssI805
(dp2419
g2
S'P43749'
p2420
sg4
I805
sg5
S'Charles E. Meyers'
p2421
ssI806
(dp2422
g2
S'P263260'
p2423
sg4
I806
sg5
S'Shelli Dubs'
p2424
ssI807
(dp2425
g2
S'P302830'
p2426
sg4
I807
sg5
S'Y. Alp Aslandogan'
p2427
ssI808
(dp2428
g2
S'P319187'
p2429
sg4
I808
sg5
S'D. Day'
p2430
ssI809
(dp2431
g2
S'P305826'
p2432
sg4
I809
sg5
S'Ying-Huey Fua'
p2433
ssI810
(dp2434
g2
S'P266847'
p2435
sg4
I810
sg5
S'Stan Letovsky'
p2436
ssI811
(dp2437
g2
S'P71230'
p2438
sg4
I811
sg5
S'E. Bannai'
p2439
ssI812
(dp2440
g2
S'P422257'
p2441
sg4
I812
sg5
S'Hans-Peter Krigel'
p2442
ssI813
(dp2443
g2
S'P99888'
p2444
sg4
I813
sg5
S'Gregory Piatetsky-Shapiro'
p2445
ssI814
(dp2446
g2
S'P298389'
p2447
sg4
I814
sg5
S'Will Schroeder'
p2448
ssI815
(dp2449
g2
S'P31473'
p2450
sg4
I815
sg5
S'Bojan Mohar'
p2451
ssI816
(dp2452
g2
S'P201858'
p2453
sg4
I816
sg5
S'Mitch B. Grunes'
p2454
ssI817
(dp2455
g2
S'P283451'
p2456
sg4
I817
sg5
S'Tom Dietterich'
p2457
ssI818
(dp2458
g2
S'P226688'
p2459
sg4
I818
sg5
S'Philippe Flajolet'
p2460
ssI819
(dp2461
g2
S'P64087'
p2462
sg4
I819
sg5
S'David Thiel'
p2463
ssI820
(dp2464
g2
S'P59778'
p2465
sg4
I820
sg5
S'Danyel Fisher'
p2466
ssI821
(dp2467
g2
S'P605971'
p2468
sg4
I821
sg5
S'Dachywan Wu'
p2469
ssI822
(dp2470
g2
S'P225799'
p2471
sg4
I822
sg5
S'Petros Faloutsos'
p2472
ssI823
(dp2473
g2
S'P63248'
p2474
sg4
I823
sg5
S'David A. Patterson'
p2475
ssI824
(dp2476
g2
S'P421191'
p2477
sg4
I824
sg5
S'M. Eduard Gr\xc3\xb6ller'
p2478
ssI825
(dp2479
g2
S'P47038'
p2480
sg4
I825
sg5
S'Christine Diehl'
p2481
ssI826
(dp2482
g2
S'P421193'
p2483
sg4
I826
sg5
S'M. Scott Marshall'
p2484
ssI827
(dp2485
g2
S'P134270'
p2486
sg4
I827
sg5
S'Jan Puzicha'
p2487
ssI828
(dp2488
g2
S'P208157'
p2489
sg4
I828
sg5
S'Nelson Max'
p2490
ssI829
(dp2491
g2
S'P280919'
p2492
sg4
I829
sg5
S'Thomas A. Joseph'
p2493
ssI830
(dp2494
g2
S'P199957'
p2495
sg4
I830
sg5
S'Michelle Q. Wang Baldonado'
p2496
ssI831
(dp2497
g2
S'P422541'
p2498
sg4
I831
sg5
S'Robert Gurwitz'
p2499
ssI832
(dp2500
g2
S'P173828'
p2501
sg4
I832
sg5
S'Luc Beaudoin'
p2502
ssI833
(dp2503
g2
S'P14721'
p2504
sg4
I833
sg5
S'Alfred Kobsa'
p2505
ssI834
(dp2506
g2
S'P147188'
p2507
sg4
I834
sg5
S'Jonathan D. Cohen'
p2508
ssI835
(dp2509
g2
S'P77468'
p2510
sg4
I835
sg5
S'Emmanuel Fr\xc3\xa9con'
p2511
ssI836
(dp2512
g2
S'P422617'
p2513
sg4
I836
sg5
S'Thomas Faulhaber, Jr.'
p2514
ssI837
(dp2515
g2
S'P335034'
p2516
sg4
I837
sg5
S'Paul E. Haeberli'
p2517
ssI838
(dp2518
g2
S'P187586'
p2519
sg4
I838
sg5
S'Marc P. Stevens'
p2520
ssI839
(dp2521
g2
S'P349300'
p2522
sg4
I839
sg5
S'Randy L. Ribler'
p2523
ssI840
(dp2524
g2
S'P999999'
p2525
sg4
I840
sg5
S'U. Wiss'
p2526
ssI841
(dp2527
g2
S'P28611'
p2528
sg4
I841
sg5
S'Ben G. H. Gorte'
p2529
ssI842
(dp2530
g2
S'P536695'
p2531
sg4
I842
sg5
S'Jamie D. Weber'
p2532
ssI843
(dp2533
g2
S'P596408'
p2534
sg4
I843
sg5
S'Charles Spirakis'
p2535
ssI844
(dp2536
g2
S'P327302'
p2537
sg4
I844
sg5
S'Eric Labow'
p2538
ssI845
(dp2539
g2
S'P143555'
p2540
sg4
I845
sg5
S'John Dill'
p2541
ssI846
(dp2542
g2
S'P298777'
p2543
sg4
I846
sg5
S'William S. Cleveland'
p2544
ssI847
(dp2545
g2
S'P55261'
p2546
sg4
I847
sg5
S'D. Mumford'
p2547
ssI848
(dp2548
g2
S'P196614'
p2549
sg4
I848
sg5
S'Michael Christensen'
p2550
ssI849
(dp2551
g2
S'P272623'
p2552
sg4
I849
sg5
S'Sven Fuhrmann'
p2553
ssI850
(dp2554
g2
S'P144244'
p2555
sg4
I850
sg5
S'John L. Hennessy'
p2556
ssI851
(dp2557
g2
S'P172684'
p2558
sg4
I851
sg5
S'Liujian Qian'
p2559
ssI852
(dp2560
g2
S'P270242'
p2561
sg4
I852
sg5
S'Steven P. Reiss'
p2562
ssI853
(dp2563
g2
S'P327994'
p2564
sg4
I853
sg5
S'Galina Shubina'
p2565
ssI854
(dp2566
g2
S'P169127'
p2567
sg4
I854
sg5
S'Laura T. Ring'
p2568
ssI855
(dp2569
g2
S'P643781'
p2570
sg4
I855
sg5
S'Bao Gia Nguyen'
p2571
ssI856
(dp2572
g2
S'P280281'
p2573
sg4
I856
sg5
S'Thomas Bemmerl'
p2574
ssI857
(dp2575
g2
S'P200206'
p2576
sg4
I857
sg5
S'Mihael Ankerst'
p2577
ssI858
(dp2578
g2
S'P246990'
p2579
sg4
I858
sg5
S'Robert Zeleznik'
p2580
ssI859
(dp2581
g2
S'P306020'
p2582
sg4
I859
sg5
S'Yogesh Gaur'
p2583
ssI860
(dp2584
g2
S'P32602'
p2585
sg4
I860
sg5
S'Brian P. Flannery'
p2586
ssI861
(dp2587
g2
S'P197332'
p2588
sg4
I861
sg5
S'Michael T. Heath'
p2589
ssI862
(dp2590
g2
S'P238744'
p2591
sg4
I862
sg5
S'Ramasamy Uthurusamy'
p2592
ssI863
(dp2593
g2
S'P280253'
p2594
sg4
I863
sg5
S'Thomas Ball'
p2595
ssI864
(dp2596
g2
S'P237644'
p2597
sg4
I864
sg5
S'Raghu Ramakrishnan'
p2598
ssI865
(dp2599
g2
S'P464499'
p2600
sg4
I865
sg5
S'Ira Smotroff'
p2601
ssI866
(dp2602
g2
S'P314776'
p2603
sg4
I866
sg5
S'Chiemi Watanabe'
p2604
ssI867
(dp2605
g2
S'P201630'
p2606
sg4
I867
sg5
S'Mira Vossers'
p2607
ssI868
(dp2608
g2
S'P74380'
p2609
sg4
I868
sg5
S'Earl Rennison'
p2610
ssI869
(dp2611
g2
S'P553648'
p2612
sg4
I869
sg5
S'Frank Drews'
p2613
ssI870
(dp2614
g2
S'P82211'
p2615
sg4
I870
sg5
S'F. J. Newbery'
p2616
ssI871
(dp2617
g2
S'P337868'
p2618
sg4
I871
sg5
S'Chris Stolte'
p2619
ssI872
(dp2620
g2
S'P269119'
p2621
sg4
I872
sg5
S'Steve Benford'
p2622
ssI873
(dp2623
g2
S'P131144'
p2624
sg4
I873
sg5
S'Jade Goldstein'
p2625
ssI874
(dp2626
g2
S'P28374'
p2627
sg4
I874
sg5
S'Bay-Wei Chang'
p2628
ssI875
(dp2629
g2
S'P99458'
p2630
sg4
I875
sg5
S'Greg Lomow'
p2631
ssI876
(dp2632
g2
S'P107222'
p2633
sg4
I876
sg5
S'Hans-Peter Kriegel'
p2634
ssI877
(dp2635
g2
S'P247318'
p2636
sg4
I877
sg5
S'Robin Lampert'
p2637
ssI878
(dp2638
g2
S'P206001'
p2639
sg4
I878
sg5
S'N. J. A. Sloane'
p2640
ssI879
(dp2641
g2
S'P138075'
p2642
sg4
I879
sg5
S'Jeffrey Scott Vitter'
p2643
ssI880
(dp2644
g2
S'P223968'
p2645
sg4
I880
sg5
S'Peter Eades'
p2646
ssI881
(dp2647
g2
S'P65623'
p2648
sg4
I881
sg5
S'Dennis J. Brueni'
p2649
ssI882
(dp2650
g2
S'P187254'
p2651
sg4
I882
sg5
S'Marc Alexa'
p2652
ssI883
(dp2653
g2
S'P573196'
p2654
sg4
I883
sg5
S'Johan Redstr\xc3\xb6m'
p2655
ssI884
(dp2656
g2
S'P596396'
p2657
sg4
I884
sg5
S'Allan Tuan'
p2658
ssI885
(dp2659
g2
S'P285251'
p2660
sg4
I885
sg5
S'Trung A. Diep'
p2661
ssI886
(dp2662
g2
S'P253185'
p2663
sg4
I886
sg5
S'S. T. Dowson'
p2664
ssI887
(dp2665
g2
S'P364260'
p2666
sg4
I887
sg5
S'Blaine A. Price'
p2667
ssI888
(dp2668
g2
S'P62645'
p2669
sg4
I888
sg5
S'David Littman'
p2670
ssI889
(dp2671
g2
S'P63622'
p2672
sg4
I889
sg5
S'David H. Salesin'
p2673
ssI890
(dp2674
g2
S'P61568'
p2675
sg4
I890
sg5
S'David Fox'
p2676
ssI891
(dp2677
g2
S'P290988'
p2678
sg4
I891
sg5
S'Victoria Interrante'
p2679
ssI892
(dp2680
g2
S'P68529'
p2681
sg4
I892
sg5
S'Donald Ervin Knuth'
p2682
ssI893
(dp2683
g2
S'P127072'
p2684
sg4
I893
sg5
S'J. S. Risch'
p2685
ssI894
(dp2686
g2
S'P265269'
p2687
sg4
I894
sg5
S'Silvia Miksch'
p2688
ssI895
(dp2689
g2
S'P43568'
p2690
sg4
I895
sg5
S'Charles E. Jacobs'
p2691
ssI896
(dp2692
g2
S'P220392'
p2693
sg4
I896
sg5
S'Patrick Hoffman'
p2694
ssI897
(dp2695
g2
S'P74502'
p2696
sg4
I897
sg5
S'Ed H. Chi'
p2697
ssI898
(dp2698
g2
S'P13809'
p2699
sg4
I898
sg5
S'Alex P. Pentland'
p2700
ssI899
(dp2701
g2
S'P573275'
p2702
sg4
I899
sg5
S'M. Pichler'
p2703
ssI900
(dp2704
g2
S'P172196'
p2705
sg4
I900
sg5
S'Linda C. van der Gaag'
p2706
ssI901
(dp2707
g2
S'P94710'
p2708
sg4
I901
sg5
S'Gene Golovchinsky'
p2709
ssI902
(dp2710
g2
S'P53095'
p2711
sg4
I902
sg5
S'D. Christopher Dryer'
p2712
ssI903
(dp2713
g2
S'P25923'
p2714
sg4
I903
sg5
S'B. D. Moon'
p2715
ssI904
(dp2716
g2
S'P168280'
p2717
sg4
I904
sg5
S'Lance Good'
p2718
ssI905
(dp2719
g2
S'P398046'
p2720
sg4
I905
sg5
S'Ming Hao'
p2721
ssI906
(dp2722
g2
S'P244499'
p2723
sg4
I906
sg5
S'Robert L. Cook'
p2724
ssI907
(dp2725
g2
S'P345055'
p2726
sg4
I907
sg5
S'Nathan Conklin'
p2727
ssI908
(dp2728
g2
S'P573476'
p2729
sg4
I908
sg5
S'T. Teraoka'
p2730
ssI909
(dp2731
g2
S'P573475'
p2732
sg4
I909
sg5
S'T. Tenev'
p2733
ssI910
(dp2734
g2
S'P573474'
p2735
sg4
I910
sg5
S'T. M. Rhyne'
p2736
ssI911
(dp2737
g2
S'P317481'
p2738
sg4
I911
sg5
S'T. C. Sprenger'
p2739
ssI912
(dp2740
g2
S'P425537'
p2741
sg4
I912
sg5
S'Sven Moen'
p2742
ssI913
(dp2743
g2
S'P273948'
p2744
sg4
I913
sg5
S'T. Carpendale'
p2745
ssI914
(dp2746
g2
S'P572975'
p2747
sg4
I914
sg5
S'C. L. Bentley'
p2748
ssI915
(dp2749
g2
S'P32896'
p2750
sg4
I915
sg5
S'Brian E. Paul'
p2751
ssI916
(dp2752
g2
S'P572977'
p2753
sg4
I916
sg5
S'C. A. Burton'
p2754
ssI917
(dp2755
g2
S'P573359'
p2756
sg4
I917
sg5
S'Peter \xc3\x98rb\xc3\xa6k'
p2757
ssI918
(dp2758
g2
S'P292334'
p2759
sg4
I918
sg5
S'Vuk Ercegovac'
p2760
ssI919
(dp2761
g2
S'P10598'
p2762
sg4
I919
sg5
S'Adam Bosworth'
p2763
ssI920
(dp2764
g2
S'P596416'
p2765
sg4
I920
sg5
S'Eli Messinger'
p2766
ssI921
(dp2767
g2
S'P250177'
p2768
sg4
I921
sg5
S'Rudy P. Darken'
p2769
ssI922
(dp2770
g2
S'P141918'
p2771
sg4
I922
sg5
S'Jock Mackinlay'
p2772
ssI923
(dp2773
g2
S'P573350'
p2774
sg4
I923
sg5
S'Padraic Neville'
p2775
ssI924
(dp2776
g2
S'P200312'
p2777
sg4
I924
sg5
S'Mikael Jern'
p2778
ssI925
(dp2779
g2
S'P421226'
p2780
sg4
I925
sg5
S'Susan Havre'
p2781
ssI926
(dp2782
g2
S'P146843'
p2783
sg4
I926
sg5
S'Jon Christensen'
p2784
ssI927
(dp2785
g2
S'P224682'
p2786
sg4
I927
sg5
S'Peter Lucas'
p2787
ssI928
(dp2788
g2
S'P16509'
p2789
sg4
I928
sg5
S'Anand Rajaraman'
p2790
ssI929
(dp2791
g2
S'P179444'
p2792
sg4
I929
sg5
S'M. Guzdial'
p2793
ssI930
(dp2794
g2
S'P96664'
p2795
sg4
I930
sg5
S'Gerard Salton'
p2796
ssI931
(dp2797
g2
S'P142466'
p2798
sg4
I931
sg5
S'Johan Redstr\xc3\xb6m'
p2799
ssI932
(dp2800
g2
S'P131722'
p2801
sg4
I932
sg5
S'James F. Blinn'
p2802
ssI933
(dp2803
g2
S'P39545'
p2804
sg4
I933
sg5
S'C. S. Yang'
p2805
ssI934
(dp2806
g2
S'P160218'
p2807
sg4
I934
sg5
S'Kenneth Marx'
p2808
ssI935
(dp2809
g2
S'P280843'
p2810
sg4
I935
sg5
S'Thomas Hofmann'
p2811
ssI936
(dp2812
g2
S'P134688'
p2813
sg4
I936
sg5
S'Jane Wilhelms'
p2814
ssI937
(dp2815
g2
S'P145051'
p2816
sg4
I937
sg5
S'John Alan McDonald'
p2817
ssI938
(dp2818
g2
S'P48938'
p2819
sg4
I938
sg5
S'Claude Frasson'
p2820
ssI939
(dp2821
g2
S'P335030'
p2822
sg4
I939
sg5
S'Paolo Sabella'
p2823
ssI940
(dp2824
g2
S'P140370'
p2825
sg4
I940
sg5
S'Jim Hafner'
p2826
ssI941
(dp2827
g2
S'P412760'
p2828
sg4
I941
sg5
S'Eugene Zhang'
p2829
ssI942
(dp2830
g2
S'P239833'
p2831
sg4
I942
sg5
S'Raymond E. Barber'
p2832
ssI943
(dp2833
g2
S'P178140'
p2834
sg4
I943
sg5
S'M. Delest'
p2835
ssI944
(dp2836
g2
S'P31652'
p2837
sg4
I944
sg5
S'Boriana Koleva'
p2838
ssI945
(dp2839
g2
S'P218969'
p2840
sg4
I945
sg5
S'Pak Chung Wong'
p2841
ssI946
(dp2842
g2
S'P573469'
p2843
sg4
I946
sg5
S'T. Leibfried'
p2844
ssI947
(dp2845
g2
S'P143434'
p2846
sg4
I947
sg5
S'John V. Cugini'
p2847
ssI948
(dp2848
g2
S'P573123'
p2849
sg4
I948
sg5
S'Hadi Abdo'
p2850
ssI949
(dp2851
g2
S'P94945'
p2852
sg4
I949
sg5
S'Geoffrey P. Bingham'
p2853
ssI950
(dp2854
g2
S'P297012'
p2855
sg4
I950
sg5
S'Wayne Niblack'
p2856
ssI951
(dp2857
g2
S'P470250'
p2858
sg4
I951
sg5
S'Joshua Levasseur'
p2859
ssI952
(dp2860
g2
S'P219573'
p2861
sg4
I952
sg5
S'Parris K. Egbert'
p2862
ssI953
(dp2863
g2
S'P152820'
p2864
sg4
I953
sg5
S'K. Mani Chandy'
p2865
ssI954
(dp2866
g2
S'P225212'
p2867
sg4
I954
sg5
S'Peter G. Selfridge'
p2868
ssI955
(dp2869
g2
S'P63880'
p2870
sg4
I955
sg5
S'David Socha'
p2871
ssI956
(dp2872
g2
S'P298174'
p2873
sg4
I956
sg5
S'Wiebke M\xc3\xb6hr'
p2874
ssI957
(dp2875
g2
S'P190251'
p2876
sg4
I957
sg5
S'Mark Gahegan'
p2877
ssI958
(dp2878
g2
S'P85915'
p2879
sg4
I958
sg5
S'Frank Henigman'
p2880
ssI959
(dp2881
g2
S'P143183'
p2882
sg4
I959
sg5
S'John Campbell'
p2883
ssI960
(dp2884
g2
S'P44203'
p2885
sg4
I960
sg5
S'Charlie Gunn'
p2886
ssI961
(dp2887
g2
S'P70234'
p2888
sg4
I961
sg5
S'Dror Zernik'
p2889
ssI962
(dp2890
g2
S'P241424'
p2891
sg4
I962
sg5
S'Richard Beigel'
p2892
ssI963
(dp2893
g2
S'P148747'
p2894
sg4
I963
sg5
S'Joseph M. Ballay'
p2895
ssI964
(dp2896
g2
S'P91025'
p2897
sg4
I964
sg5
S'G. Nigel Martin'
p2898
ssI965
(dp2899
g2
S'P46258'
p2900
sg4
I965
sg5
S'Chris North'
p2901
ssI966
(dp2902
g2
S'P315316'
p2903
sg4
I966
sg5
S'Noriko Ukai'
p2904
ssI967
(dp2905
g2
S'P160466'
p2906
sg4
I967
sg5
S'Kenneth C. Yeager'
p2907
ssI968
(dp2908
g2
S'P268645'
p2909
sg4
I968
sg5
S'Stephen C. North'
p2910
ssI969
(dp2911
g2
S'P195900'
p2912
sg4
I969
sg5
S'Mendel Rosenblum'
p2913
ssI970
(dp2914
g2
S'P207534'
p2915
sg4
I970
sg5
S'Natasha Gelfand'
p2916
ssI971
(dp2917
g2
S'P76910'
p2918
sg4
I971
sg5
S'Elke A. Rundensteiner'
p2919
ssI972
(dp2920
g2
S'P244730'
p2921
sg4
I972
sg5
S'Robert Edsall'
p2922
ssI973
(dp2923
g2
S'P117589'
p2924
sg4
I973
sg5
S'Ivo Grosse'
p2925
ssI974
(dp2926
g2
S'P194710'
p2927
sg4
I974
sg5
S'Matthew O. Ward'
p2928
ssI975
(dp2929
g2
S'P270747'
p2930
sg4
I975
sg5
S'Stuart Pook'
p2931
ssI976
(dp2932
g2
S'P573190'
p2933
sg4
I976
sg5
S'Jesse Grosjean'
p2934
ssI977
(dp2935
g2
S'P573192'
p2936
sg4
I977
sg5
S'Jim Baker'
p2937
ssI978
(dp2938
g2
S'P267223'
p2939
sg4
I978
sg5
S'Stefan Berchtold'
p2940
ssI979
(dp2941
g2
S'P194778'
p2942
sg4
I979
sg5
S'Matthias Hemmje'
p2943
ssI980
(dp2944
g2
S'P485726'
p2945
sg4
I980
sg5
S'Patrick Kenis'
p2946
ssI981
(dp2947
g2
S'P62263'
p2948
sg4
I981
sg5
S'David Kamins'
p2949
ssI982
(dp2950
g2
S'P108350'
p2951
sg4
I982
sg5
S'Hausi A. M\xc3\xbcller'
p2952
ssI983
(dp2953
g2
S'P145715'
p2954
sg4
I983
sg5
S'John Riedl'
p2955
ssI984
(dp2956
g2
S'P475072'
p2957
sg4
I984
sg5
S'Liran Carmel'
p2958
ssI985
(dp2959
g2
S'P81304'
p2960
sg4
I985
sg5
S'F. David Fracchia'
p2961
ssI986
(dp2962
g2
S'P267385'
p2963
sg4
I986
sg5
S'Stefan N\xc3\xa4her'
p2964
ssI987
(dp2965
g2
S'P77285'
p2966
sg4
I987
sg5
S'Emden R. Gansner'
p2967
ssI988
(dp2968
g2
S'P440936'
p2969
sg4
I988
sg5
S'Aaron Quigley'
p2970
ssI989
(dp2971
g2
S'P47747'
p2972
sg4
I989
sg5
S'Christopher J. Kocmoud'
p2973
ssI990
(dp2974
g2
S'P305620'
p2975
sg4
I990
sg5
S'Yigal Arens'
p2976
ssI991
(dp2977
g2
S'P489574'
p2978
sg4
I991
sg5
S'Reinhard Sablowski'
p2979
ssI992
(dp2980
g2
S'P52432'
p2981
sg4
I992
sg5
S'D. Brodbeck'
p2982
ssI993
(dp2983
g2
S'P135425'
p2984
sg4
I993
sg5
S'Jason I. Hong'
p2985
ssI994
(dp2986
g2
S'P422060'
p2987
sg4
I994
sg5
S'Alan Keahey'
p2988
ssI995
(dp2989
g2
S'P151583'
p2990
sg4
I995
sg5
S'Jussi Karlgren'
p2991
ssI996
(dp2992
g2
S'P187488'
p2993
sg4
I996
sg5
S'Marc A. Najork'
p2994
ssI997
(dp2995
g2
S'P421167'
p2996
sg4
I997
sg5
S'Guy Melan\xc3\xa7on'
p2997
ssI998
(dp2998
g2
S'P163836'
p2999
sg4
I998
sg5
S'Kurt W. Piersol'
p3000
ssI999
(dp3001
g2
S'P421160'
p3002
sg4
I999
sg5
S'Frank van Ham'
p3003
ssI1000
(dp3004
g2
S'P78888'
p3005
sg4
I1000
sg5
S'Erik Thomsen'
p3006
ssI1001
(dp3007
g2
S'P199459'
p3008
sg4
I1001
sg5
S'Michalis Faloutsos'
p3009
ssI1002
(dp3010
g2
S'P198118'
p3011
sg4
I1002
sg5
S'Michael S. Miller'
p3012
ssI1003
(dp3013
g2
S'P18594'
p3014
sg4
I1003
sg5
S'Andries van Dam'
p3015
ssI1004
(dp3016
g2
S'P466953'
p3017
sg4
I1004
sg5
S'Janet M. Six'
p3018
ssI1005
(dp3019
g2
S'P107530'
p3020
sg4
I1005
sg5
S'Harlan Foote'
p3021
ssI1006
(dp3022
g2
S'P228270'
p3023
sg4
I1006
sg5
S'Preben Mogensen'
p3024
ssI1007
(dp3025
g2
S'P119616'
p3026
sg4
I1007
sg5
S'J\xc3\xbcrgen Koenemann'
p3027
ssI1008
(dp3028
g2
S'P548253'
p3029
sg4
I1008
sg5
S'M. Campo'
p3030
ssI1009
(dp3031
g2
S'P300194'
p3032
sg4
I1009
sg5
S'William T. Vetterling'
p3033
ssI1010
(dp3034
g2
S'P327501'
p3035
sg4
I1010
sg5
S'Kaushai Dalal'
p3036
ssI1011
(dp3037
g2
S'P36478'
p3038
sg4
I1011
sg5
S'C. Lee Giles'
p3039
ssI1012
(dp3040
g2
S'P196619'
p3041
sg4
I1012
sg5
S'Michael Chu'
p3042
ssI1013
(dp3043
g2
S'P177411'
p3044
sg4
I1013
sg5
S'M. D. Brown'
p3045
ssI1014
(dp3046
g2
S'P2394'
p3047
sg4
I1014
sg5
S'A. Bookstein'
p3048
ssI1015
(dp3049
g2
S'P172393'
p3050
sg4
I1015
sg5
S'Liqun Jin'
p3051
ssI1016
(dp3052
g2
S'P46410'
p3053
sg4
I1016
sg5
S'Chris Walshaw'
p3054
ssI1017
(dp3055
g2
S'P188881'
p3056
sg4
I1017
sg5
S'Maria Shneerson'
p3057
ssI1018
(dp3058
g2
S'P177668'
p3059
sg4
I1018
sg5
S'M. Chalmers'
p3060
ssI1019
(dp3061
g2
S'P32386'
p3062
sg4
I1019
sg5
S'Brett Milash'
p3063
ssI1020
(dp3064
g2
S'P245269'
p3065
sg4
I1020
sg5
S'Robert Ingram'
p3066
ssI1021
(dp3067
g2
S'P137011'
p3068
sg4
I1021
sg5
S'Jean-Yves Vion-Dury'
p3069
ssI1022
(dp3070
g2
S'P643590'
p3071
sg4
I1022
sg5
S'Jeff Beddow'
p3072
ssI1023
(dp3073
g2
S'P43789'
p3074
sg4
I1023
sg5
S'Charles K. Nicholas'
p3075
ssI1024
(dp3076
g2
S'P254574'
p3077
sg4
I1024
sg5
S'S. T. Klein'
p3078
ssI1025
(dp3079
g2
S'P190624'
p3080
sg4
I1025
sg5
S'Mark Lin'
p3081
ssI1026
(dp3082
g2
S'P261024'
p3083
sg4
I1026
sg5
S'Scott Meyers'
p3084
ssI1027
(dp3085
g2
S'P286769'
p3086
sg4
I1027
sg5
S'Umesh Dayal'
p3087
ssI1028
(dp3088
g2
S'P595681'
p3089
sg4
I1028
sg5
S'Stephen A Herrod'
p3090
ssI1029
(dp3091
g2
S'P15525'
p3092
sg4
I1029
sg5
S'Allison Druin'
p3093
ssI1030
(dp3094
g2
S'P174888'
p3095
sg4
I1030
sg5
S'Lynn O. Wilson'
p3096
ssI1031
(dp3097
g2
S'P274888'
p3098
sg4
I1031
sg5
S'T. Jiang'
p3099
ssI1032
(dp3100
g2
S'P234137'
p3101
sg4
I1032
sg5
S'R. A. May'
p3102
ssI1033
(dp3103
g2
S'P144378'
p3104
sg4
I1033
sg5
S'John F. Hughes'
p3105
ssI1034
(dp3106
g2
S'P362395'
p3107
sg4
I1034
sg5
S'Irene Finocchi'
p3108
ssI1035
(dp3109
g2
S'P61111'
p3110
sg4
I1035
sg5
S'David J. Cowperthwaite'
p3111
ssI1036
(dp3112
g2
S'P131548'
p3113
sg4
I1036
sg5
S'James Allan'
p3114
ssI1037
(dp3115
g2
S'P61889'
p3116
sg4
I1037
sg5
S'David Harel'
p3117
ssI1038
(dp3118
g2
S'P228400'
p3119
sg4
I1038
sg5
S'Przemyslaw Prusinkiewicz'
p3120
ssI1039
(dp3121
g2
S'P126795'
p3122
sg4
I1039
sg5
S'J. Ross Quinlan'
p3123
ssI1040
(dp3124
g2
S'P572183'
p3125
sg4
I1040
sg5
S'Staffan Bj\xc3\xb6rk'
p3126
ssI1041
(dp3127
g2
S'P187299'
p3128
sg4
I1041
sg5
S'Marc H. Brown'
p3129
ssI1042
(dp3130
g2
S'P15351'
p3131
sg4
I1042
sg5
S'Allan R. Wilks'
p3132
ssI1043
(dp3133
g2
S'P161427'
p3134
sg4
I1043
sg5
S'Khoa Doan'
p3135
ssI1044
(dp3136
g2
S'P113687'
p3137
sg4
I1044
sg5
S'I. G. Angus'
p3138
ssI1045
(dp3139
g2
S'P28685'
p3140
sg4
I1045
sg5
S'Ben Shneiderman'
p3141
ssI1046
(dp3142
g2
S'P73302'
p3143
sg4
I1046
sg5
S'E. Petajan'
p3144
ssI1047
(dp3145
g2
S'P37359'
p3146
sg4
I1047
sg5
S'C. Levit'
p3147
ssI1048
(dp3148
g2
S'P276060'
p3149
sg4
I1048
sg5
S'T. Raita'
p3150
ssI1049
(dp3151
g2
S'P46076'
p3152
sg4
I1049
sg5
S'Chris Greenhalgh'
p3153
ssI1050
(dp3154
g2
S'P297809'
p3155
sg4
I1050
sg5
S'Wendy E. Mackay'
p3156
ssI1051
(dp3157
g2
S'P100128'
p3158
sg4
I1051
sg5
S'Guang R. Gao'
p3159
ssI1052
(dp3160
g2
S'P159551'
p3161
sg4
I1052
sg5
S'Ken Pier'
p3162
ss.