(dp0
S'A5594'
p1
(dp2
S'keywords'
p3
(lp4
sS'name'
p5
S'V Overmars'
p6
ssS'A2787'
p7
(dp8
g3
(lp9
sg5
S'C Searle'
p10
ssS'A3957'
p11
(dp12
g3
(lp13
sg5
S'J Lee'
p14
ssS'A16290'
p15
(dp16
g3
(lp17
sg5
S'I EbertUphoff'
p18
ssS'A14147'
p19
(dp20
g3
(lp21
sg5
S'V Kantabutra'
p22
ssS'A14146'
p23
(dp24
g3
g21
sg5
S'W Plantinga'
p25
ssS'A2770'
p26
(dp27
g3
(lp28
sg5
S'C Rasmussen'
p29
ssS'A2773'
p30
(dp31
g3
(lp32
sg5
S'R Brooks'
p33
ssS'A19270'
p34
(dp35
g3
(lp36
sg5
S'J Morrow'
p37
ssS'A14149'
p38
(dp39
g3
g21
sg5
S'J Lenhart'
p40
ssS'A14148'
p41
(dp42
g3
g21
sg5
S'S Kosaraju'
p43
ssS'A4558'
p44
(dp45
g3
(lp46
sg5
S'A Cao'
p47
ssS'A4559'
p48
(dp49
g3
g46
sg5
S'F Meng'
p50
ssS'A2679'
p51
(dp52
g3
(lp53
sg5
S'P Martin'
p54
ssS'A2678'
p55
(dp56
g3
(lp57
sg5
S'M Nuttin'
p58
ssS'A4553'
p59
(dp60
g3
(lp61
sg5
S'G Kantor'
p62
ssS'A4556'
p63
(dp64
g3
g61
sg5
S'D Tsakiris'
p65
ssS'A4557'
p66
(dp67
g3
g46
sg5
S'Y Uny'
p68
ssS'A4554'
p69
(dp70
g3
g61
sg5
S'V Manikonda'
p71
ssS'A4555'
p72
(dp73
g3
g61
sg5
S'A Newman'
p74
ssS'A3257'
p75
(dp76
g3
(lp77
sg5
S'S Professor'
p78
ssS'A12749'
p79
(dp80
g3
(lp81
sg5
S'C MacKenzie'
p82
ssS'A12748'
p83
(dp84
g3
g81
sg5
S'D Christopher'
p85
ssS'A5937'
p86
(dp87
g3
(lp88
sg5
S'S Engelson'
p89
ssS'A14479'
p90
(dp91
g3
(lp92
sg5
S'J Pang'
p93
ssS'A2400'
p94
(dp95
g3
(lp96
sg5
S'D Ph'
p97
ssS'A4006'
p98
(dp99
g3
(lp100
sg5
S'A Weitzenfeld'
p101
ssS'A15249'
p102
(dp103
g3
(lp104
sg5
S'F DeNatale'
p105
ssS'A15248'
p106
(dp107
g3
g104
sg5
S'C Moneta'
p108
ssS'A3419'
p109
(dp110
g3
(lp111
sg5
S'S Baluja'
p112
ssS'A5072'
p113
(dp114
g3
(lp115
sg5
S'H Cruse'
p116
ssS'A5073'
p117
(dp118
g3
g115
sg5
S'H Ritter'
p119
ssS'A5070'
p120
(dp121
g3
(lp122
sg5
S'E Milios'
p123
ssS'A5071'
p124
(dp125
g3
g122
sg5
S'D Wilkes'
p126
ssS'A2410'
p127
(dp128
g3
(lp129
sg5
S'B Kuipers'
p130
ssS'A5078'
p131
(dp132
g3
(lp133
sg5
S'O Schwarzkopf'
p134
ssS'A5079'
p135
(dp136
g3
(lp137
sg5
S'A Rao'
p138
ssS'A1233'
p139
(dp140
g3
(lp141
sg5
S'D James'
p142
ssS'A2327'
p143
(dp144
g3
(lp145
sg5
S'P Langley'
p146
ssS'A1924'
p147
(dp148
g3
(lp149
sg5
S'A Hanson'
p150
ssS'A4174'
p151
(dp152
g3
(lp153
sg5
S'K Morik'
p154
ssS'A4175'
p155
(dp156
g3
(lp157
sg5
S'A Rieger'
p158
ssS'A4177'
p159
(dp160
g3
(lp161
sg5
S'P Cheeseman'
p162
ssS'A4679'
p163
(dp164
g3
(lp165
sg5
S'H Friedrich'
p166
ssS'A4173'
p167
(dp168
g3
(lp169
sg5
S'V Klingspor'
p170
ssS'A58'
p171
(dp172
g3
(lp173
sg5
S'A Ram'
p174
ssS'A17601'
p175
(dp176
g3
g77
sg5
S'A Weinstein'
p177
ssS'A17600'
p178
(dp179
g3
(lp180
sg5
S'P Shankar'
p181
ssS'A12139'
p182
(dp183
g3
(lp184
sg5
S'H Petroski'
p185
ssS'A3735'
p186
(dp187
g3
(lp188
sg5
S'D Williams'
p189
ssS'A5038'
p190
(dp191
g3
(lp192
sg5
S'R Irie'
p193
ssS'A5205'
p194
(dp195
g3
(lp196
sg5
S'D NavinChandra'
p197
ssS'A5204'
p198
(dp199
g3
g196
sg5
S'A DazCalderon'
p200
ssS'A5207'
p201
(dp202
g3
g149
sg5
S'C Fennema'
p203
ssS'A5206'
p204
(dp205
g3
g149
sg5
S'B Rochwerger'
p206
ssS'A5203'
p207
(dp208
g3
(lp209
sg5
S'L Joskowicz'
p210
ssS'A9099'
p211
(dp212
g3
(lp213
sg5
S'W Thompson'
p214
ssS'A3049'
p215
(dp216
g3
(lp217
sg5
S'A Wu'
p218
ssS'A2639'
p219
(dp220
g3
(lp221
sg5
S'L Kaelbling'
p222
ssS'A4828'
p223
(dp224
g3
g217
sg5
S'R Feague'
p225
ssS'A4829'
p226
(dp227
g3
(lp228
sg5
S'G Sukhatme'
p229
ssS'A4822'
p230
(dp231
g3
(lp232
sg5
S'H Schempf'
p233
ssS'A4820'
p234
(dp235
g3
g232
sg5
S'S Gatrall'
p236
ssS'A4821'
p237
(dp238
g3
g232
sg5
S'R OToole'
p239
ssS'A4827'
p240
(dp241
g3
g217
sg5
S'A Katkere'
p242
ssS'A4824'
p243
(dp244
g3
(lp245
sg5
S'K Tam'
p246
ssS'A4825'
p247
(dp248
g3
(lp249
sg5
S'W Huang'
p250
ssS'A5151'
p251
(dp252
g3
(lp253
sg5
S'A Torres'
p254
ssS'A870'
p255
(dp256
g3
(lp257
sg5
S'J Buhmann'
p258
ssS'A1215'
p259
(dp260
g3
(lp261
sg5
S'B Schiele'
p262
ssS'A18336'
p263
(dp264
g3
(lp265
sg5
S'T Flash'
p266
ssS'A20907'
p267
(dp268
g3
(lp269
sg5
S'F Aghili'
p270
ssS'A193'
p271
(dp272
g3
(lp273
sg5
S'W Chang'
p274
ssS'A4182'
p275
(dp276
g3
(lp277
sg5
S'P Chalasani'
p278
ssS'A20908'
p279
(dp280
g3
g269
sg5
S'M Buehler'
p281
ssS'A20909'
p282
(dp283
g3
(lp284
sg5
S'L Giugovaz'
p285
ssS'A5150'
p286
(dp287
g3
g253
sg5
S'J Pratt'
p288
ssS'A5466'
p289
(dp290
g3
(lp291
sg5
S'K Yip'
p292
ssS'A4956'
p293
(dp294
g3
(lp295
sg5
S'C Cohen'
p296
ssS'A4957'
p297
(dp298
g3
(lp299
sg5
S'K Sutherland'
p300
ssS'A4954'
p301
(dp302
g3
(lp303
sg5
S'G Whlke'
p304
ssS'A174'
p305
(dp306
g3
(lp307
sg5
S'R Brown'
p308
ssS'A4952'
p309
(dp310
g3
(lp311
sg5
S'J Kosecka'
p312
ssS'A4226'
p313
(dp314
g3
(lp315
sg5
S'D Angluin'
p316
ssS'A4951'
p317
(dp318
g3
(lp319
sg5
S'P Christopher'
p320
ssS'A6136'
p321
(dp322
g3
(lp323
sg5
S'J Kuffner'
p324
ssS'A11587'
p325
(dp326
g3
g21
sg5
S'W Lenhart'
p327
ssS'A6135'
p328
(dp329
g3
g323
sg5
S'K Kondo'
p330
ssS'A6020'
p331
(dp332
g3
(lp333
sg5
S'P Gmytrasiewicz'
p334
ssS'A4958'
p335
(dp336
g3
(lp337
sg5
S'Y Jia'
p338
ssS'A4959'
p339
(dp340
g3
g337
sg5
S'M Erdmann'
p341
ssS'A11578'
p342
(dp343
g3
(lp344
sg5
S'J Suh'
p345
ssS'A2635'
p346
(dp347
g3
(lp348
sg5
S'D Touretzky'
p349
ssS'A4598'
p350
(dp351
g3
g169
sg5
S'J Millan'
p352
ssS'A4596'
p353
(dp354
g3
(lp355
sg5
S'S Gutmann'
p356
ssS'A4597'
p357
(dp358
g3
g169
sg5
S'M Accame'
p359
ssS'A4594'
p360
(dp361
g3
(lp362
sg5
S'K Basye'
p363
ssS'A4592'
p364
(dp365
g3
(lp366
sg5
S'J Jennings'
p367
ssS'A4593'
p368
(dp369
g3
(lp370
sg5
S'D Rus'
p371
ssS'A4590'
p372
(dp373
g3
(lp374
sg5
S'K Bohringer'
p375
ssS'A4591'
p376
(dp377
g3
(lp378
sg5
S'B Donald'
p379
ssS'A4695'
p380
(dp381
g3
(lp382
sg5
S'A Kelly'
p383
ssS'A4697'
p384
(dp385
g3
(lp386
sg5
S'R Adobbati'
p387
ssS'A4696'
p388
(dp389
g3
g386
sg5
S'J Adibi'
p390
ssS'A4758'
p391
(dp392
g3
(lp393
sg5
S'A Stentz'
p394
ssS'A4759'
p395
(dp396
g3
(lp397
sg5
S'B Awerbuch'
p398
ssS'A4693'
p399
(dp400
g3
(lp401
sg5
S'E Huber'
p402
ssS'A4755'
p403
(dp404
g3
(lp405
sg5
S'I Lin'
p406
ssS'A19218'
p407
(dp408
g3
(lp409
sg5
S'J Zhang'
p410
ssS'A4757'
p411
(dp412
g3
(lp413
sg5
S'A Ponceau'
p414
ssS'A4750'
p415
(dp416
g3
(lp417
sg5
S'G Hayes'
p418
ssS'A4698'
p419
(dp420
g3
g386
sg5
S'B Cho'
p421
ssS'A22242'
p422
(dp423
g3
(lp424
sg5
S'F Jo'
p425
ssS'A15044'
p426
(dp427
g3
(lp428
sg5
S'J Benedetto'
p429
ssS'A16919'
p430
(dp431
g3
(lp432
sg5
S'L Wixson'
p433
ssS'A3902'
p434
(dp435
g3
(lp436
sg5
S'W Lee'
p437
ssS'A2593'
p438
(dp439
g3
g245
sg5
S'Y Lesperance'
p440
ssS'A2599'
p441
(dp442
g3
(lp443
sg5
S'M Veloso'
p444
ssS'A12140'
p445
(dp446
g3
g184
sg5
S'W Vincenti'
p447
ssS'A2028'
p448
(dp449
g3
g115
sg5
S'J Dean'
p450
ssS'A5126'
p451
(dp452
g3
(lp453
sg5
S'T Drsam'
p454
ssS'A4521'
p455
(dp456
g3
(lp457
sg5
S'S Schaal'
p458
ssS'A5039'
p459
(dp460
g3
g192
sg5
S'C Kemp'
p461
ssS'A3608'
p462
(dp463
g3
g413
sg5
S'P Gaussier'
p464
ssS'A2745'
p465
(dp466
g3
(lp467
sg5
S'M Bowling'
p468
ssS'A5117'
p469
(dp470
g3
(lp471
sg5
S'B Magnussen'
p472
ssS'A9086'
p473
(dp474
g3
(lp475
sg5
S'S Jacobsen'
p476
ssS'A1891'
p477
(dp478
g3
(lp479
sg5
S'D Manocha'
p480
ssS'A21527'
p481
(dp482
g3
(lp483
sg5
S'G Grunwald'
p484
ssS'A14114'
p485
(dp486
g3
g137
sg5
S'A Sanderson'
p487
ssS'A4036'
p488
(dp489
g3
(lp490
sg5
S'S Waldherr'
p491
ssS'A95'
p492
(dp493
g3
(lp494
sg5
S'C Papadimitriou'
p495
ssS'A97'
p496
(dp497
g3
(lp498
sg5
S'H Tamaki'
p499
ssS'A96'
p500
(dp501
g3
(lp502
sg5
S'P Raghavan'
p503
ssS'A4137'
p504
(dp505
g3
(lp506
sg5
S'A Ronald'
p507
ssS'A3343'
p508
(dp509
g3
(lp510
sg5
S'K Kanazawa'
p511
ssS'A4970'
p512
(dp513
g3
(lp514
sg5
S'K Reid'
p515
ssS'A3349'
p516
(dp517
g3
(lp518
sg5
S'W Burgard'
p519
ssS'A958'
p520
(dp521
g3
g362
sg5
S'T Dean'
p522
ssS'A4971'
p523
(dp524
g3
g514
sg5
S'G Simmons'
p525
ssS'A3588'
p526
(dp527
g3
(lp528
sg5
S'T Smithers'
p529
ssS'A3462'
p530
(dp531
g3
g57
sg5
S'R Piola'
p532
ssS'A11955'
p533
(dp534
g3
g161
sg5
S'Z Shiller'
p535
ssS'A11954'
p536
(dp537
g3
g161
sg5
S'T Levitt'
p538
ssS'A11957'
p539
(dp540
g3
g161
sg5
S'A Guez'
p541
ssS'A11956'
p542
(dp543
g3
g161
sg5
S'S Zaharakis'
p544
ssS'A1917'
p545
(dp546
g3
(lp547
sg5
S'P Khosla'
p548
ssS'A1916'
p549
(dp550
g3
(lp551
sg5
S'C Lee'
p552
ssS'A1919'
p553
(dp554
g3
(lp555
sg5
S'R Sharma'
p556
ssS'A1918'
p557
(dp558
g3
g555
sg5
S'K Shimoga'
p559
ssS'A4624'
p560
(dp561
g3
(lp562
sg5
S'H Taghirad'
p563
ssS'A4626'
p564
(dp565
g3
(lp566
sg5
S'J Hodgins'
p567
ssS'A4620'
p568
(dp569
g3
(lp570
sg5
S'S LaValle'
p571
ssS'A4621'
p572
(dp573
g3
g570
sg5
S'D Lin'
p574
ssS'A4788'
p575
(dp576
g3
(lp577
sg5
S'R Howe'
p578
ssS'A4787'
p579
(dp580
g3
g577
sg5
S'E Dunn'
p581
ssS'A4785'
p582
(dp583
g3
(lp584
sg5
S'R Froom'
p585
ssS'A4784'
p586
(dp587
g3
g9
sg5
S'M Raibert'
p588
ssS'A4783'
p589
(dp590
g3
g9
sg5
S'R Ringrose'
p591
ssS'A4782'
p592
(dp593
g3
(lp594
sg5
S'E Stopp'
p595
ssS'A4781'
p596
(dp597
g3
g594
sg5
S'G Herzog'
p598
ssS'A4864'
p599
(dp600
g3
(lp601
sg5
S'R Berretty'
p602
ssS'A1522'
p603
(dp604
g3
(lp605
sg5
S'R Miller'
p606
ssS'A3641'
p607
(dp608
g3
g409
sg5
S'M Rosenblum'
p609
ssS'A18309'
p610
(dp611
g3
(lp612
sg5
S'W Seering'
p613
ssS'A18308'
p614
(dp615
g3
g612
sg5
S'T Tuttle'
p616
ssS'A4865'
p617
(dp618
g3
g601
sg5
S'A Frank'
p619
ssS'A6172'
p620
(dp621
g3
(lp622
sg5
S'B Bohringer'
p623
ssS'A6173'
p624
(dp625
g3
g622
sg5
S'R Donald'
p626
ssS'A6171'
p627
(dp628
g3
g622
sg5
S'F KarlFriedrich'
p629
ssS'A6174'
p630
(dp631
g3
(lp632
sg5
S'N MacDonald'
p633
ssS'A4853'
p634
(dp635
g3
(lp636
sg5
S'S Abrams'
p637
ssS'A4852'
p638
(dp639
g3
(lp640
sg5
S'G Kaminka'
p641
ssS'A4857'
p642
(dp643
g3
(lp644
sg5
S'W Kaufman'
p645
ssS'A4856'
p646
(dp647
g3
g257
sg5
S'J Strikos'
p648
ssS'A4855'
p649
(dp650
g3
g257
sg5
S'F Schneider'
p651
ssS'A4854'
p652
(dp653
g3
g636
sg5
S'K Tarabanis'
p654
ssS'A1825'
p655
(dp656
g3
(lp657
sg5
S'M Pearce'
p658
ssS'A4859'
p659
(dp660
g3
g494
sg5
S'X Deng'
p661
ssS'A4858'
p662
(dp663
g3
g644
sg5
S'C Alberts'
p664
ssS'A4916'
p665
(dp666
g3
(lp667
sg5
S'H Forbes'
p668
ssS'A134'
p669
(dp670
g3
(lp671
sg5
S'J Kleinberg'
p672
ssS'A4712'
p673
(dp674
g3
(lp675
sg5
S'P Weckesser'
p676
ssS'A4713'
p677
(dp678
g3
(lp679
sg5
S'T Laengle'
p680
ssS'A4715'
p681
(dp682
g3
g679
sg5
S'U Rembold'
p683
ssS'A4717'
p684
(dp685
g3
(lp686
sg5
S'R Desai'
p687
ssS'A4718'
p688
(dp689
g3
g686
sg5
S'C Rosenberg'
p690
ssS'A4719'
p691
(dp692
g3
g686
sg5
S'J Jones'
p693
ssS'A4496'
p694
(dp695
g3
g479
sg5
S'Y Zhu'
p696
ssS'A5665'
p697
(dp698
g3
g432
sg5
S'T Huang'
p699
ssS'A10269'
p700
(dp701
g3
g428
sg5
S'J Grizzle'
p702
ssS'A4981'
p703
(dp704
g3
(lp705
sg5
S'N Zumel'
p706
ssS'A4982'
p707
(dp708
g3
g528
sg5
S'G Telex'
p709
ssS'A4987'
p710
(dp711
g3
(lp712
sg5
S'P Reignier'
p713
ssS'A9398'
p714
(dp715
g3
g409
sg5
S'B Kumar'
p716
ssS'A4989'
p717
(dp718
g3
(lp719
sg5
S'J Godhavn'
p720
ssS'A9018'
p721
(dp722
g3
g409
sg5
S'J Geisler'
p723
ssS'A2794'
p724
(dp725
g3
g100
sg5
S'R Arkin'
p726
ssS'A18840'
p727
(dp728
g3
g180
sg5
S'M Date'
p729
ssS'A2701'
p730
(dp731
g3
(lp732
sg5
S'G Boone'
p733
ssS'A14078'
p734
(dp735
g3
(lp736
sg5
S'R Volz'
p737
ssS'A4564'
p738
(dp739
g3
(lp740
sg5
S'G Kutlu'
p741
ssS'A4563'
p742
(dp743
g3
g149
sg5
S'B Draper'
p744
ssS'A4562'
p745
(dp746
g3
(lp747
sg5
S'I Dillmann'
p748
ssS'A4561'
p749
(dp750
g3
g747
sg5
S'I Rembold'
p751
ssS'A4560'
p752
(dp753
g3
(lp754
sg5
S'J Kreuziger'
p755
ssS'A14073'
p756
(dp757
g3
g736
sg5
S'V Rajan'
p758
ssS'A14072'
p759
(dp760
g3
g736
sg5
S'V Prasanna'
p761
ssS'A14075'
p762
(dp763
g3
g137
sg5
S'C VanWyk'
p764
ssS'A14074'
p765
(dp766
g3
g137
sg5
S'A Schaeffer'
p767
ssS'A14077'
p768
(dp769
g3
g736
sg5
S'J Wolter'
p770
ssS'A4568'
p771
(dp772
g3
(lp773
sg5
S'M VanWie'
p774
ssS'A4764'
p775
(dp776
g3
(lp777
sg5
S'A Jepson'
p778
ssS'A4767'
p779
(dp780
g3
(lp781
sg5
S'S Haigh'
p782
ssS'A4766'
p783
(dp784
g3
(lp785
sg5
S'K Zita'
p786
ssS'A4761'
p787
(dp788
g3
g781
sg5
S'R Goodwin'
p789
ssS'A4760'
p790
(dp791
g3
(lp792
sg5
S'M Betke'
p793
ssS'A4763'
p794
(dp795
g3
g122
sg5
S'M Jenkin'
p796
ssS'A4762'
p797
(dp798
g3
(lp799
sg5
S'R Simmons'
p800
ssS'A2666'
p801
(dp802
g3
(lp803
sg5
S'B Krose'
p804
ssS'A4769'
p805
(dp806
g3
(lp807
sg5
S'M Sullivan'
p808
ssS'A4768'
p809
(dp810
g3
g781
sg5
S'J Koenig'
p811
ssS'A1610'
p812
(dp813
g3
g149
sg5
S'E Riseman'
p814
ssS'A10279'
p815
(dp816
g3
(lp817
sg5
S'F Curotto'
p818
ssS'A10278'
p819
(dp820
g3
(lp821
sg5
S'G Sandini'
p822
ssS'A11953'
p823
(dp824
g3
g161
sg5
S'Y Byun'
p825
ssS'A9974'
p826
(dp827
g3
(lp828
sg5
S'T Henderson'
p829
ssS'A22963'
p830
(dp831
g3
g605
sg5
S'O Amidi'
p832
ssS'A5041'
p833
(dp834
g3
(lp835
sg5
S'Z Chen'
p836
ssS'A5047'
p837
(dp838
g3
(lp839
sg5
S'R Suarezy'
p840
ssS'A5046'
p841
(dp842
g3
(lp843
sg5
S'J Kenneth'
p844
ssS'A22313'
p845
(dp846
g3
(lp847
sg5
S'B Jakubczyk'
p848
ssS'A5362'
p849
(dp850
g3
g432
sg5
S'O Faugeras'
p851
ssS'A5049'
p852
(dp853
g3
g839
sg5
S'M Nuttinz'
p854
ssS'A5048'
p855
(dp856
g3
g839
sg5
S'L Basa'
p857
ssS'A2330'
p858
(dp859
g3
(lp860
sg5
S'R Greiner'
p861
ssS'A4108'
p862
(dp863
g3
g77
sg5
S'J Wendlandt'
p864
ssS'A4663'
p865
(dp866
g3
g122
sg5
S'G Dudek'
p867
ssS'A15935'
p868
(dp869
g3
(lp870
sg5
S'P Swanson'
p871
ssS'A2244'
p872
(dp873
g3
g736
sg5
S'R Taylor'
p874
ssS'A619'
p875
(dp876
g3
g428
sg5
S'R Hauser'
p877
ssS'A20863'
p878
(dp879
g3
g828
sg5
S'T Colvin'
p880
ssS'A20865'
p881
(dp882
g3
g828
sg5
S'C Valiquette'
p883
ssS'A20864'
p884
(dp885
g3
g828
sg5
S'L Dick'
p886
ssS'A20866'
p887
(dp888
g3
g213
sg5
S'H Pick'
p889
ssS'A4817'
p890
(dp891
g3
g232
sg5
S'R Bennett'
p892
ssS'A4816'
p893
(dp894
g3
g232
sg5
S'K Dowling'
p895
ssS'A38'
p896
(dp897
g3
g257
sg5
S'T Hofmann'
p898
ssS'A4812'
p899
(dp900
g3
g432
sg5
S'Z Zhang'
p901
ssS'A4811'
p902
(dp903
g3
(lp904
sg5
S'A Briggs'
p905
ssS'A1866'
p906
(dp907
g3
(lp908
sg5
S'G Hager'
p909
ssS'A18930'
p910
(dp911
g3
(lp912
sg5
S'E Rimon'
p913
ssS'A4623'
p914
(dp915
g3
(lp916
sg5
S'M SchneiderFontan'
p917
ssS'A6032'
p918
(dp919
g3
(lp920
sg5
S'H Chang'
p921
ssS'A4819'
p922
(dp923
g3
g232
sg5
S'T Graham'
p924
ssS'A4818'
p925
(dp926
g3
g232
sg5
S'M Blackwell'
p927
ssS'A20917'
p928
(dp929
g3
g475
sg5
S'y Zhang'
p930
ssS'A2902'
p931
(dp932
g3
(lp933
sg5
S'J Kok'
p934
ssS'A860'
p935
(dp936
g3
(lp937
sg5
S'M Siegel'
p938
ssS'A863'
p939
(dp940
g3
(lp941
sg5
S'A David'
p942
ssS'A7046'
p943
(dp944
g3
(lp945
sg5
S'C Tomlin'
p946
ssS'A4619'
p947
(dp948
g3
(lp949
sg5
S'J Latombe'
p950
ssS'A4618'
p951
(dp952
g3
g949
sg5
S'L Guibas'
p953
ssS'A4615'
p954
(dp955
g3
(lp956
sg5
S'J Reif'
p957
ssS'A4614'
p958
(dp959
g3
(lp960
sg5
S'J Hancock'
p961
ssS'A4617'
p962
(dp963
g3
(lp964
sg5
S'A Bruckstein'
p965
ssS'A4616'
p966
(dp967
g3
g964
sg5
S'I Wagner'
p968
ssS'A4611'
p969
(dp970
g3
(lp971
sg5
S'P Corke'
p972
ssS'A4610'
p973
(dp974
g3
g971
sg5
S'S Hutchinson'
p975
ssS'A4613'
p976
(dp977
g3
g960
sg5
S'R Sukthankar'
p978
ssS'A4612'
p979
(dp980
g3
(lp981
sg5
S'M Hauser'
p982
ssS'A3206'
p983
(dp984
g3
g490
sg5
S'D Margaritis'
p985
ssS'A3205'
p986
(dp987
g3
g799
sg5
S'E Krotkov'
p988
ssS'A3204'
p989
(dp990
g3
(lp991
sg5
S'F Cozman'
p992
ssS'A9114'
p993
(dp994
g3
(lp995
sg5
S'D Ruspini'
p996
ssS'A18223'
p997
(dp998
g3
(lp999
sg5
S'M Pomplun'
p1000
ssS'A4192'
p1001
(dp1002
g3
(lp1003
sg5
S'G David'
p1004
ssS'A4193'
p1005
(dp1006
g3
g1003
sg5
S'K David'
p1007
ssS'A4190'
p1008
(dp1009
g3
g1003
sg5
S'B James'
p1010
ssS'A4191'
p1011
(dp1012
g3
g1003
sg5
S'F ,Erann'
p1013
ssS'A3611'
p1014
(dp1015
g3
g413
sg5
S'S Zrehen'
p1016
ssS'A4194'
p1017
(dp1018
g3
g1003
sg5
S'P Miller'
p1019
ssS'A4195'
p1020
(dp1021
g3
g1003
sg5
S'M Slack'
p1022
ssS'A10537'
p1023
(dp1024
g3
(lp1025
sg5
S'A Tits'
p1026
ssS'A2040'
p1027
(dp1028
g3
g265
sg5
S'S Edelman'
p1029
ssS'A4963'
p1030
(dp1031
g3
(lp1032
sg5
S'B Faverjon'
p1033
ssS'A4962'
p1034
(dp1035
g3
g1032
sg5
S'D Stam'
p1036
ssS'A4961'
p1037
(dp1038
g3
g1032
sg5
S'J Ponce'
p1039
ssS'A4960'
p1040
(dp1041
g3
(lp1042
sg5
S'A Rodney'
p1043
ssS'A13254'
p1044
(dp1045
g3
g843
sg5
S'N Silver'
p1046
ssS'A4966'
p1047
(dp1048
g3
g506
sg5
S'C Arkin'
p1049
ssS'A4965'
p1050
(dp1051
g3
(lp1052
sg5
S'A Quaid'
p1053
ssS'A4964'
p1054
(dp1055
g3
g1032
sg5
S'H Roman'
p1056
ssS'A13258'
p1057
(dp1058
g3
g843
sg5
S'T Djaferis'
p1059
ssS'A4969'
p1060
(dp1061
g3
g514
sg5
S'N Yong'
p1062
ssS'A266'
p1063
(dp1064
g3
(lp1065
sg5
S'D Pierce'
p1066
ssS'A18335'
p1067
(dp1068
g3
g265
sg5
S'I Kamon'
p1069
ssS'A2627'
p1070
(dp1071
g3
(lp1072
sg5
S'A Schultz'
p1073
ssS'A5133'
p1074
(dp1075
g3
(lp1076
sg5
S'J Pradeep'
p1077
ssS'A5132'
p1078
(dp1079
g3
(lp1080
sg5
S'R Han'
p1081
ssS'A2628'
p1082
(dp1083
g3
(lp1084
sg5
S'J Grefenstette'
p1085
ssS'A5130'
p1086
(dp1087
g3
g374
sg5
S'B Randall'
p1088
ssS'A20918'
p1089
(dp1090
g3
g475
sg5
S'z Hollerbach'
p1091
ssS'A4686'
p1092
(dp1093
g3
(lp1094
sg5
S'D Marsh'
p1095
ssS'A4728'
p1096
(dp1097
g3
g21
sg5
S'S Whitesides'
p1098
ssS'A4685'
p1099
(dp1100
g3
g1094
sg5
S'C Johnson'
p1101
ssS'A4683'
p1102
(dp1103
g3
(lp1104
sg5
S'M Goldwasser'
p1105
ssS'A4720'
p1106
(dp1107
g3
g295
sg5
S'F Koss'
p1108
ssS'A4722'
p1109
(dp1110
g3
g13
sg5
S'C Bidlack'
p1111
ssS'A4724'
p1112
(dp1113
g3
(lp1114
sg5
S'A Lazanas'
p1115
ssS'A4727'
p1116
(dp1117
g3
(lp1118
sg5
S'K Romanik'
p1119
ssS'A4689'
p1120
(dp1121
g3
g908
sg5
S'K Toyama'
p1122
ssS'A22356'
p1123
(dp1124
g3
(lp1125
sg5
S'R Millman'
p1126
ssS'A17598'
p1127
(dp1128
g3
(lp1129
sg5
S'E Nicolson'
p1130
ssS'A12138'
p1131
(dp1132
g3
g184
sg5
S'P Neumann'
p1133
ssS'A6214'
p1134
(dp1135
g3
(lp1136
sg5
S'B Romney'
p1137
ssS'A4375'
p1138
(dp1139
g3
g173
sg5
S'R Clark'
p1140
ssS'A12136'
p1141
(dp1142
g3
g184
sg5
S'G Brooks'
p1143
ssS'A3875'
p1144
(dp1145
g3
g432
sg5
S'Y Liu'
p1146
ssS'A12134'
p1147
(dp1148
g3
g184
sg5
S'G Abelson'
p1149
ssS'A12135'
p1150
(dp1151
g3
g184
sg5
S'H Sussman'
p1152
ssS'A5007'
p1153
(dp1154
g3
(lp1155
sg5
S'V Ben'
p1156
ssS'A5006'
p1157
(dp1158
g3
g803
sg5
S'X Benavent'
p1159
ssS'A4242'
p1160
(dp1161
g3
g184
sg5
S'E Roberts'
p1162
ssS'A5001'
p1163
(dp1164
g3
(lp1165
sg5
S'A Timcenko'
p1166
ssS'A2056'
p1167
(dp1168
g3
g498
sg5
S'P Agarwal'
p1169
ssS'A5127'
p1170
(dp1171
g3
g453
sg5
S'I Streit'
p1172
ssS'A5008'
p1173
(dp1174
g3
g1155
sg5
S'J Krose'
p1175
ssS'A2697'
p1176
(dp1177
g3
(lp1178
sg5
S'A Fagg'
p1179
ssS'A22358'
p1180
(dp1181
g3
g1125
sg5
S'C Byrnes'
p1182
ssS'A2694'
p1183
(dp1184
g3
g161
sg5
S'J Chen'
p1185
ssS'A1018'
p1186
(dp1187
g3
(lp1188
sg5
S'S Nene'
p1189
ssS'A1019'
p1190
(dp1191
g3
g1188
sg5
S'S Nayar'
p1192
ssS'A2690'
p1193
(dp1194
g3
(lp1195
sg5
S'M Mataric'
p1196
ssS'A22355'
p1197
(dp1198
g3
g1125
sg5
S'R Brockett'
p1199
ssS'A4532'
p1200
(dp1201
g3
(lp1202
sg5
S'W Seyfferth'
p1203
ssS'A4533'
p1204
(dp1205
g3
g1202
sg5
S'J Angeles'
p1206
ssS'A2763'
p1207
(dp1208
g3
g1155
sg5
S'F Groen'
p1209
ssS'A2886'
p1210
(dp1211
g3
(lp1212
sg5
S'P Cohen'
p1213
ssS'A1886'
p1214
(dp1215
g3
(lp1216
sg5
S'D Ballard'
p1217
ssS'A3477'
p1218
(dp1219
g3
g949
sg5
S'R Wilson'
p1220
ssS'A2714'
p1221
(dp1222
g3
g57
sg5
S'H VanBrussel'
p1223
ssS'A13920'
p1224
(dp1225
g3
g21
sg5
S'J Hopcroft'
p1226
ssS'A17562'
p1227
(dp1228
g3
(lp1229
sg5
S'A Sastry'
p1230
ssS'A17563'
p1231
(dp1232
g3
(lp1233
sg5
S'O Srdalen'
p1234
ssS'A3801'
p1235
(dp1236
g3
g960
sg5
S'C Thorpe'
p1237
ssS'A13252'
p1238
(dp1239
g3
g843
sg5
S'S Jr'
p1240
ssS'A17564'
p1241
(dp1242
g3
(lp1243
sg5
S'A Chelouah'
p1244
ssS'A3938'
p1245
(dp1246
g3
g409
sg5
S'T Jochem'
p1247
ssS'A13253'
p1248
(dp1249
g3
(lp1250
sg5
S'B Mishra'
p1251
ssS'A4203'
p1252
(dp1253
g3
(lp1254
sg5
S'S Koenig'
p1255
ssS'A14130'
p1256
(dp1257
g3
(lp1258
sg5
S'X Zhu'
p1259
ssS'A3573'
p1260
(dp1261
g3
(lp1262
sg5
S'J Slotine'
p1263
ssS'A13255'
p1264
(dp1265
g3
g843
sg5
S'S Dexterous'
p1266
ssS'A1902'
p1267
(dp1268
g3
g551
sg5
S'Y Xu'
p1269
ssS'A2719'
p1270
(dp1271
g3
(lp1272
sg5
S'D Kortenkamp'
p1273
ssS'A13256'
p1274
(dp1275
g3
g843
sg5
S'L Pao'
p1276
ssS'A1905'
p1277
(dp1278
g3
(lp1279
sg5
S'A Johnson'
p1280
ssS'A13257'
p1281
(dp1282
g3
g843
sg5
S'T Speeter'
p1283
ssS'A3251'
p1284
(dp1285
g3
g792
sg5
S'M Singh'
p1286
ssS'A4798'
p1287
(dp1288
g3
g315
sg5
S'W Zhu'
p1289
ssS'A4799'
p1290
(dp1291
g3
g273
sg5
S'A Morse'
p1292
ssS'A17623'
p1293
(dp1294
g3
(lp1295
sg5
S'F Cazals'
p1296
ssS'A4654'
p1297
(dp1298
g3
(lp1299
sg5
S'L Stein'
p1300
ssS'A4656'
p1301
(dp1302
g3
g1299
sg5
S'H Yanco'
p1303
ssS'A4790'
p1304
(dp1305
g3
(lp1306
sg5
S'I Horswill'
p1307
ssS'A4791'
p1308
(dp1309
g3
g261
sg5
S'J Crowley'
p1310
ssS'A4792'
p1311
(dp1312
g3
g870
sg5
S'R Burridge'
p1313
ssS'A4793'
p1314
(dp1315
g3
(lp1316
sg5
S'A Rizzi'
p1317
ssS'A4794'
p1318
(dp1319
g3
g870
sg5
S'D Koditschek'
p1320
ssS'A4795'
p1321
(dp1322
g3
(lp1323
sg5
S'H Choset'
p1324
ssS'A4796'
p1325
(dp1326
g3
g912
sg5
S'J Burdick'
p1327
ssS'A4797'
p1328
(dp1329
g3
g315
sg5
S'J Westbrook'
p1330
ssS'A4097'
p1331
(dp1332
g3
g933
sg5
S'A Knobbe'
p1333
ssS'A4093'
p1334
(dp1335
g3
(lp1336
sg5
S'M Eecen'
p1337
ssS'A2834'
p1338
(dp1339
g3
(lp1340
sg5
S'S Nolfi'
p1341
ssS'A3659'
p1342
(dp1343
g3
g490
sg5
S'R Romero'
p1344
ssS'A1305'
p1345
(dp1346
g3
(lp1347
sg5
S'E Paulos'
p1348
ssS'A1306'
p1349
(dp1350
g3
g1125
sg5
S'J Canny'
p1351
ssS'A4098'
p1352
(dp1353
g3
g601
sg5
S'M Overmars'
p1354
ssS'A10819'
p1355
(dp1356
g3
g21
sg5
S'D Joseph'
p1357
ssS'A16117'
p1358
(dp1359
g3
(lp1360
sg5
S'A Brennemann'
p1361
ssS'A3713'
p1362
(dp1363
g3
g1155
sg5
S'P Patrick'
p1364
ssS'A3712'
p1365
(dp1366
g3
g803
sg5
S'A Dev'
p1367
ssS'A3714'
p1368
(dp1369
g3
(lp1370
sg5
S'P VanDerSmagt'
p1371
ssS'A3716'
p1372
(dp1373
g3
g453
sg5
S'S Fatikow'
p1374
ssS'A4921'
p1375
(dp1376
g3
g594
sg5
S'G Kamstrup'
p1377
ssS'A4929'
p1378
(dp1379
g3
g1076
sg5
S'R Voyles'
p1380
ssS'A4928'
p1381
(dp1382
g3
(lp1383
sg5
S'S Achim'
p1384
ssS'A4849'
p1385
(dp1386
g3
(lp1387
sg5
S'G Richter'
p1388
ssS'A12381'
p1389
(dp1390
g3
g736
sg5
S'J Schwartz'
p1391
ssS'A4841'
p1392
(dp1393
g3
(lp1394
sg5
S'U Beyer'
p1395
ssS'A13191'
p1396
(dp1397
g3
g547
sg5
S'N Papanikolopoulos'
p1398
ssS'A5170'
p1399
(dp1400
g3
g370
sg5
S'J Donald'
p1401
ssS'A5142'
p1402
(dp1403
g3
(lp1404
sg5
S'J Rosenblatt'
p1405
ssS'A1570'
p1406
(dp1407
g3
(lp1408
sg5
S'A Benton'
p1409
ssS'A4992'
p1410
(dp1411
g3
(lp1412
sg5
S'N Amato'
p1413
ssS'A4993'
p1414
(dp1415
g3
g1412
sg5
S'Y Wu'
p1416
ssS'A4990'
p1417
(dp1418
g3
g719
sg5
S'A Balluchi'
p1419
ssS'A4991'
p1420
(dp1421
g3
(lp1422
sg5
S'L Crawford'
p1423
ssS'A4996'
p1424
(dp1425
g3
(lp1426
sg5
S'K Schulten'
p1427
ssS'A4997'
p1428
(dp1429
g3
(lp1430
sg5
S'A Henshaw'
p1431
ssS'A4994'
p1432
(dp1433
g3
(lp1434
sg5
S'K Simsariany'
p1435
ssS'A4995'
p1436
(dp1437
g3
g1434
sg5
S'M Mataricz'
p1438
ssS'A17979'
p1439
(dp1440
g3
(lp1441
sg5
S'J Judy'
p1442
ssS'A4998'
p1443
(dp1444
g3
(lp1445
sg5
S'E Nitz'
p1446
ssS'A4999'
p1447
(dp1448
g3
g1445
sg5
S'D Rodriguez'
p1449
ssS'A5131'
p1450
(dp1451
g3
g141
sg5
S'J Rus'
p1452
ssS'A17621'
p1453
(dp1454
g3
(lp1455
sg5
S'K Street'
p1456
ssS'A19212'
p1457
(dp1458
g3
g409
sg5
S'J Schielen'
p1459
ssS'A19213'
p1460
(dp1461
g3
g409
sg5
S'J Armstrong'
p1462
ssS'A19210'
p1463
(dp1464
g3
g409
sg5
S'E Dickmanns'
p1465
ssS'A19211'
p1466
(dp1467
g3
g409
sg5
S'R Behringer'
p1468
ssS'A19216'
p1469
(dp1470
g3
g409
sg5
S'H Nagel'
p1471
ssS'A19217'
p1472
(dp1473
g3
g409
sg5
S'G Siegle'
p1474
ssS'A19214'
p1475
(dp1476
g3
g409
sg5
S'G Struck'
p1477
ssS'A19215'
p1478
(dp1479
g3
g409
sg5
S'F Laubenstein'
p1480
ssS'A18855'
p1481
(dp1482
g3
(lp1483
sg5
S'D Berkowitz'
p1484
ssS'A219'
p1485
(dp1486
g3
(lp1487
sg5
S'R Motwani'
p1488
ssS'A5148'
p1489
(dp1490
g3
(lp1491
sg5
S'S Shankar'
p1492
ssS'A1051'
p1493
(dp1494
g3
(lp1495
sg5
S'C Dyer'
p1496
ssS'A4573'
p1497
(dp1498
g3
(lp1499
sg5
S'T Camus'
p1500
ssS'A4574'
p1501
(dp1502
g3
(lp1503
sg5
S'H Kitano'
p1504
ssS'A4575'
p1505
(dp1506
g3
g1503
sg5
S'M Asada'
p1507
ssS'A4576'
p1508
(dp1509
g3
g1503
sg5
S'Y Kuniyoshi'
p1510
ssS'A4577'
p1511
(dp1512
g3
(lp1513
sg5
S'I Noda'
p1514
ssS'A4578'
p1515
(dp1516
g3
g1513
sg5
S'E Osawa'
p1517
ssS'A4579'
p1518
(dp1519
g3
(lp1520
sg5
S'D Ma'
p1521
ssS'A2718'
p1522
(dp1523
g3
(lp1524
sg5
S'R Peter'
p1525
ssS'A1888'
p1526
(dp1527
g3
(lp1528
sg5
S'M Lin'
p1529
ssS'A4777'
p1530
(dp1531
g3
(lp1532
sg5
S'L Edinburgh'
p1533
ssS'A4770'
p1534
(dp1535
g3
(lp1536
sg5
S'S Sklorz'
p1537
ssS'A4915'
p1538
(dp1539
g3
g1430
sg5
S'T Collins'
p1540
ssS'A4778'
p1541
(dp1542
g3
(lp1543
sg5
S'P Michelman'
p1544
ssS'A4779'
p1545
(dp1546
g3
(lp1547
sg5
S'P Allen'
p1548
ssS'A12767'
p1549
(dp1550
g3
(lp1551
sg5
S'M Husty'
p1552
ssS'A12768'
p1553
(dp1554
g3
(lp1555
sg5
S'P Canet'
p1556
ssS'A1532'
p1557
(dp1558
g3
g457
sg5
S'C Atkeson'
p1559
ssS'A5528'
p1560
(dp1561
g3
(lp1562
sg5
S'V Bhatt'
p1563
ssS'A5482'
p1564
(dp1565
g3
g4
sg5
S'C Wentink'
p1566
ssS'A20910'
p1567
(dp1568
g3
(lp1569
sg5
S'P Henri'
p1570
ssS'A10280'
p1571
(dp1572
g3
g817
sg5
S'S Garibaldi'
p1573
ssS'A3530'
p1574
(dp1575
g3
(lp1576
sg5
S'R Dillmann'
p1577
ssS'A1530'
p1578
(dp1579
g3
g667
sg5
S'K Schwan'
p1580
ssS'A3929'
p1581
(dp1582
g3
g1025
sg5
S'V Balakrishnan'
p1583
ssS'A3539'
p1584
(dp1585
g3
(lp1586
sg5
S'F Mondada'
p1587
ssS'A5195'
p1588
(dp1589
g3
g1178
sg5
S'J Houk'
p1590
ssS'A5194'
p1591
(dp1592
g3
g1178
sg5
S'N Sitkoff'
p1593
ssS'A5197'
p1594
(dp1595
g3
(lp1596
sg5
S'M Tax'
p1597
ssS'A5196'
p1598
(dp1599
g3
g1596
sg5
S'J Laumond'
p1600
ssS'A1020'
p1601
(dp1602
g3
g1188
sg5
S'H Murase'
p1603
ssS'A5193'
p1604
(dp1605
g3
(lp1606
sg5
S'A Hayashi'
p1607
ssS'A5055'
p1608
(dp1609
g3
g17
sg5
S'G Chirikjian'
p1610
ssS'A5056'
p1611
(dp1612
g3
(lp1613
sg5
S'K Kluge'
p1614
ssS'A5057'
p1615
(dp1616
g3
(lp1617
sg5
S'S Epstein'
p1618
ssS'A5050'
p1619
(dp1620
g3
g839
sg5
S'H VanBrusselz'
p1621
ssS'A5051'
p1622
(dp1623
g3
g839
sg5
S'J Roselly'
p1624
ssS'A5052'
p1625
(dp1626
g3
g937
sg5
S'P Gunatilake'
p1627
ssS'A1691'
p1628
(dp1629
g3
g747
sg5
S'P Dr'
p1630
ssS'A17575'
p1631
(dp1632
g3
g53
sg5
S'L Benvenuti'
p1633
ssS'A18534'
p1634
(dp1635
g3
(lp1636
sg5
S'V Utkin'
p1637
ssS'A17624'
p1638
(dp1639
g3
g1487
sg5
S'S Sorkin'
p1640
ssS'A14278'
p1641
(dp1642
g3
(lp1643
sg5
S'J Craig'
p1644
ssS'A3289'
p1645
(dp1646
g3
(lp1647
sg5
S'T Lee'
p1648
ssS'A5064'
p1649
(dp1650
g3
g1487
sg5
S'D Hsu'
p1651
ssS'A3991'
p1652
(dp1653
g3
g1647
sg5
S'R Hubbold'
p1654
ssS'A3445'
p1655
(dp1656
g3
g1394
sg5
S'F Smieja'
p1657
ssS'A3444'
p1658
(dp1659
g3
g712
sg5
S'A Dubrawski'
p1660
ssS'A972'
p1661
(dp1662
g3
g333
sg5
S'L Holder'
p1663
ssS'A971'
p1664
(dp1665
g3
g333
sg5
S'D Cook'
p1666
ssS'A4800'
p1667
(dp1668
g3
g1613
sg5
S'P Kenny'
p1669
ssS'A4801'
p1670
(dp1671
g3
(lp1672
sg5
S'P Xavier'
p1673
ssS'A4802'
p1674
(dp1675
g3
g1258
sg5
S'P Svestka'
p1676
ssS'A4803'
p1677
(dp1678
g3
(lp1679
sg5
S'J Vleugels'
p1680
ssS'A4804'
p1681
(dp1682
g3
g1487
sg5
S'L Kavraki'
p1683
ssS'A4805'
p1684
(dp1685
g3
g1272
sg5
S'K Mangis'
p1686
ssS'A4806'
p1687
(dp1688
g3
g1272
sg5
S'D Baker'
p1689
ssS'A4807'
p1690
(dp1691
g3
g13
sg5
S'T Weymouth'
p1692
ssS'A4808'
p1693
(dp1694
g3
(lp1695
sg5
S'R Ing'
p1696
ssS'A4809'
p1697
(dp1698
g3
(lp1699
sg5
S'I Park'
p1700
ssS'A9747'
p1701
(dp1702
g3
g1441
sg5
S'R Muller'
p1703
ssS'A6558'
p1704
(dp1705
g3
(lp1706
sg5
S'D Godbole'
p1707
ssS'A4606'
p1708
(dp1709
g3
(lp1710
sg5
S',M Terry'
p1711
ssS'A4607'
p1712
(dp1713
g3
g1710
sg5
S'B Nnaji'
p1714
ssS'A4604'
p1715
(dp1716
g3
g1710
sg5
S'M Kamran'
p1717
ssS'A4605'
p1718
(dp1719
g3
g1710
sg5
S'S Yeh'
p1720
ssS'A4602'
p1721
(dp1722
g3
(lp1723
sg5
S'Z Mason'
p1724
ssS'A4603'
p1725
(dp1726
g3
g1643
sg5
S'K Goldberg'
p1727
ssS'A4601'
p1728
(dp1729
g3
g1723
sg5
S'V Zordan'
p1730
ssS'A3213'
p1731
(dp1732
g3
(lp1733
sg5
S'D Wolpert'
p1734
ssS'A3214'
p1735
(dp1736
g3
g1733
sg5
S'Z Ghahramani'
p1737
ssS'A1669'
p1738
(dp1739
g3
(lp1740
sg5
S'M Swain'
p1741
ssS'A4896'
p1742
(dp1743
g3
g249
sg5
S'M Mason'
p1744
ssS'A4895'
p1745
(dp1746
g3
(lp1747
sg5
S'S Akella'
p1748
ssS'A4891'
p1749
(dp1750
g3
g1279
sg5
S'J Osborn'
p1751
ssS'A4890'
p1752
(dp1753
g3
g1279
sg5
S'R Hoffman'
p1754
ssS'A13328'
p1755
(dp1756
g3
g632
sg5
S'R Mihailovich'
p1757
ssS'A13329'
p1758
(dp1759
g3
g374
sg5
S'D Noel'
p1760
ssS'A4875'
p1761
(dp1762
g3
(lp1763
sg5
S'B Eberman'
p1764
ssS'A4874'
p1765
(dp1766
g3
(lp1767
sg5
S'R Graf'
p1768
ssS'A4877'
p1769
(dp1770
g3
g1243
sg5
S'D Tilbury'
p1771
ssS'A4876'
p1772
(dp1773
g3
g785
sg5
S'H Manuela'
p1774
ssS'A4979'
p1775
(dp1776
g3
g323
sg5
S'Y Koga'
p1777
ssS'A4873'
p1778
(dp1779
g3
g221
sg5
S'H Shatkay'
p1780
ssS'A4974'
p1781
(dp1782
g3
(lp1783
sg5
S'R Fearing'
p1784
ssS'A4975'
p1785
(dp1786
g3
(lp1787
sg5
S'Y Ma'
p1788
ssS'A5085'
p1789
(dp1790
g3
(lp1791
sg5
S'H Vanbrussel'
p1792
ssS'A4879'
p1793
(dp1794
g3
g1125
sg5
S'S Sastry'
p1795
ssS'A4878'
p1796
(dp1797
g3
(lp1798
sg5
S'R Murray'
p1799
ssS'A2619'
p1800
(dp1801
g3
g835
sg5
S'T Balch'
p1802
ssS'A2965'
p1803
(dp1804
g3
g1340
sg5
S'O Miglino'
p1805
ssS'A2615'
p1806
(dp1807
g3
(lp1808
sg5
S'J Santamara'
p1809
ssS'A12137'
p1810
(dp1811
g3
g184
sg5
S'E Ferguson'
p1812
ssS'A3066'
p1813
(dp1814
g3
(lp1815
sg5
S'M Torrance'
p1816
ssS'A8767'
p1817
(dp1818
g3
(lp1819
sg5
S'R Lee'
p1820
ssS'A3061'
p1821
(dp1822
g3
g1532
sg5
S'H Hautop'
p1823
ssS'A18920'
p1824
(dp1825
g3
g1643
sg5
S'B Carlisle'
p1826
ssS'A4732'
p1827
(dp1828
g3
(lp1829
sg5
S'J Hallam'
p1830
ssS'A4731'
p1831
(dp1832
g3
g192
sg5
S'C Breazeal'
p1833
ssS'A18929'
p1834
(dp1835
g3
(lp1836
sg5
S'M Grasps'
p1837
ssS'A4735'
p1838
(dp1839
g3
g594
sg5
S'T Lueth'
p1840
ssS'A325'
p1841
(dp1842
g3
g518
sg5
S'S Thrun'
p1843
ssS'A7372'
p1844
(dp1845
g3
g843
sg5
S'S Venkataraman'
p1846
ssS'A5010'
p1847
(dp1848
g3
g1740
sg5
S'R Kahn'
p1849
ssS'A5011'
p1850
(dp1851
g3
g1740
sg5
S'P Prokopowicz'
p1852
ssS'A5012'
p1853
(dp1854
g3
g1740
sg5
S'R James'
p1855
ssS'A5013'
p1856
(dp1857
g3
(lp1858
sg5
S'J Dan'
p1859
ssS'A5014'
p1860
(dp1861
g3
(lp1862
sg5
S'J Nakanishi'
p1863
ssS'A5015'
p1864
(dp1865
g3
g1862
sg5
S'T Fukuda'
p1866
ssS'A5016'
p1867
(dp1868
g3
(lp1869
sg5
S'J Rogers'
p1870
ssS'A4279'
p1871
(dp1872
g3
g1819
sg5
S'M Smith'
p1873
ssS'A5000'
p1874
(dp1875
g3
g1445
sg5
S'K Ward'
p1876
ssS'A5198'
p1877
(dp1878
g3
g1596
sg5
S'P Jacobs'
p1879
ssS'A2680'
p1880
(dp1881
g3
(lp1882
sg5
S'U Nehmzow'
p1883
ssS'A4422'
p1884
(dp1885
g3
(lp1886
sg5
S'B Svensson'
p1887
ssS'A4421'
p1888
(dp1889
g3
g1886
sg5
S'M Kruusmaa'
p1890
ssS'A2688'
p1891
(dp1892
g3
g319
sg5
S'J Schneider'
p1893
ssS'A2761'
p1894
(dp1895
g3
(lp1896
sg5
S'J VanDam'
p1897
ssS'A5053'
p1898
(dp1899
g3
g937
sg5
S'G Podnar'
p1900
ssS'A1067'
p1901
(dp1902
g3
g46
sg5
S'A Fukunaga'
p1903
ssS'A17619'
p1904
(dp1905
g3
g1455
sg5
S'K Peters'
p1906
ssS'A5110'
p1907
(dp1908
g3
g1586
sg5
S'E Franzi'
p1909
ssS'A17620'
p1910
(dp1911
g3
g1455
sg5
S'L Ltd'
p1912
ssS'A5450'
p1913
(dp1914
g3
(lp1915
sg5
S'S Ravela'
p1916
ssS'A3794'
p1917
(dp1918
g3
g1042
sg5
S'A Brooks'
p1919
ssS'A20916'
p1920
(dp1921
g3
g475
sg5
S'D Johnston'
p1922
ssS'A12750'
p1923
(dp1924
g3
g100
sg5
S'F CervantesPerez'
p1925
ssS'A5190'
p1926
(dp1927
g3
(lp1928
sg5
S'C Paredis'
p1929
ssS'A17578'
p1930
(dp1931
g3
g428
sg5
S'P Kokotovic'
p1932
ssS'A4688'
p1933
(dp1934
g3
g291
sg5
S'E Sacks'
p1935
ssS'A3364'
p1936
(dp1937
g3
(lp1938
sg5
S'M Huber'
p1939
ssS'A17577'
p1940
(dp1941
g3
g53
sg5
S'B Paden'
p1942
ssS'A17576'
p1943
(dp1944
g3
g53
sg5
S'S Devasia'
p1945
ssS'A1666'
p1946
(dp1947
g3
g319
sg5
S'M Brown'
p1948
ssS'A15250'
p1949
(dp1950
g3
g104
sg5
S'G Vernazza'
p1951
ssS'A5069'
p1952
(dp1953
g3
g835
sg5
S'J Cameron'
p1954
ssS'A2462'
p1955
(dp1956
g3
g386
sg5
S'W Shen'
p1957
ssS'A14079'
p1958
(dp1959
g3
g736
sg5
S'A Woo'
p1960
ssS'A11798'
p1961
(dp1962
g3
g53
sg5
S'J Hauser'
p1963
ssS'A11871'
p1964
(dp1965
g3
g291
sg5
S'F Zhao'
p1966
ssS'A1933'
p1967
(dp1968
g3
g1360
sg5
S'R Hollis'
p1969
ssS'A4646'
p1970
(dp1971
g3
g949
sg5
S'H Hirukawa'
p1972
ssS'A4647'
p1973
(dp1974
g3
(lp1975
sg5
S'H GonzalezBa'
p1976
ssS'A4645'
p1977
(dp1978
g3
g949
sg5
S'D Halperin'
p1979
ssS'A1042'
p1980
(dp1981
g3
g937
sg5
S'A Jordan'
p1982
ssS'A18839'
p1983
(dp1984
g3
g180
sg5
S'J Jitendra'
p1985
ssS'A16033'
p1986
(dp1987
g3
g1408
sg5
S'B Mitchell'
p1988
ssS'A22357'
p1989
(dp1990
g3
g1125
sg5
S'B Birkhanser'
p1991
ssS'A3702'
p1992
(dp1993
g3
(lp1994
sg5
S'O Fuentes'
p1995
ssS'A3701'
p1996
(dp1997
g3
g773
sg5
S'R Rao'
p1998
ssS'A4931'
p1999
(dp2000
g3
g1858
sg5
S'M Pradeep'
p2001
ssS'A4932'
p2002
(dp2003
g3
g1076
sg5
S'K Khosla'
p2004
ssS'A4933'
p2005
(dp2006
g3
g348
sg5
S'L Saksida'
p2007
ssS'A442'
p2008
(dp2009
g3
g792
sg5
S'R Rivest'
p2010
ssS'A18918'
p2011
(dp2012
g3
g1643
sg5
S'Y Zhuang'
p2013
ssS'A18919'
p2014
(dp2015
g3
g1643
sg5
S'R Zanutta'
p2016
ssS'A10177'
p2017
(dp2018
g3
g428
sg5
S'M Di'
p2019
ssS'A4839'
p2020
(dp2021
g3
(lp2022
sg5
S'C Tomasi'
p2023
ssS'A4838'
p2024
(dp2025
g3
g1975
sg5
S'C Becker'
p2026
ssS'A6162'
p2027
(dp2028
g3
g736
sg5
S'R Paul'
p2029
ssS'A2924'
p2030
(dp2031
g3
g1072
sg5
S'W Adams'
p2032
ssS'A5606'
p2033
(dp2034
g3
g821
sg5
S'J SantosVictor'
p2035
ssS'A5160'
p2036
(dp2037
g3
g566
sg5
S'N Pollard'
p2038
ssS'A4830'
p2039
(dp2040
g3
g228
sg5
S'G Bekey'
p2041
ssS'A14076'
p2042
(dp2043
g3
g92
sg5
S'J Trinkle'
p2044
ssS'A1569'
p2045
(dp2046
g3
g1408
sg5
S'B Stephen'
p2047
ssS'A6567'
p2048
(dp2049
g3
g860
sg5
S'R Isukapalli'
p2050
ssS'A598'
p2051
(dp2052
g3
g277
sg5
S'A Blum'
p2053
ssS'A3635'
p2054
(dp2055
g3
g192
sg5
S'M Williamson'
p2056
ssS'A5168'
p2057
(dp2058
g3
g1316
sg5
S'J Gowdy'
p2059
ssS'A3631'
p2060
(dp2061
g3
(lp2062
sg5
S'I Davis'
p2063
ssS'A1362'
p2064
(dp2065
g3
g137
sg5
S'Y Wang'
p2066
ssS'A6696'
p2067
(dp2068
g3
g1576
sg5
S'O Rogalla'
p2069
ssS'A360'
p2070
(dp2071
g3
g1938
sg5
S'E Durfee'
p2072
ssS'A1422'
p2073
(dp2074
g3
g1125
sg5
S'Z Li'
p2075
ssS'A368'
p2076
(dp2077
g3
(lp2078
sg5
S'X Cheng'
p2079
ssS'A4946'
p2080
(dp2081
g3
g1547
sg5
S'B Yoshimi'
p2082
ssS'A11577'
p2083
(dp2084
g3
g344
sg5
S'G Kovacs'
p2085
ssS'A19209'
p2086
(dp2087
g3
g409
sg5
S'J Crisman'
p2088
ssS'A6126'
p2089
(dp2090
g3
(lp2091
sg5
S'A Wallack'
p2092
ssS'A2645'
p2093
(dp2094
g3
g1576
sg5
S'M Kaiser'
p2095
ssS'A10688'
p2096
(dp2097
g3
g81
sg5
S'M Douglas'
p2098
ssS'A2641'
p2099
(dp2100
g3
g1733
sg5
S'M Jordan'
p2101
ssS'A4867'
p2102
(dp2103
g3
(lp2104
sg5
S'A Boelen'
p2105
ssS'A5115'
p2106
(dp2107
g3
(lp2108
sg5
S'S Zhai'
p2109
ssS'A14113'
p2110
(dp2111
g3
g137
sg5
S'M Peshkin'
p2112
ssS'A4587'
p2113
(dp2114
g3
g551
sg5
S'M Bergerman'
p2115
ssS'A5116'
p2116
(dp2117
g3
g2108
sg5
S'P Milgram'
p2118
ssS'A5111'
p2119
(dp2120
g3
g1586
sg5
S'P Ienne'
p2121
ssS'A4580'
p2122
(dp2123
g3
g269
sg5
S'J Hollerbach'
p2124
ssS'A2721'
p2125
(dp2126
g3
g443
sg5
S'P Stone'
p2127
ssS'A14115'
p2128
(dp2129
g3
g137
sg5
S'D Whitney'
p2130
ssS'A4743'
p2131
(dp2132
g3
(lp2133
sg5
S'C Owen'
p2134
ssS'A4742'
p2135
(dp2136
g3
(lp2137
sg5
S'B Scassellati'
p2138
ssS'A4741'
p2139
(dp2140
g3
g1994
sg5
S'M Jagersand'
p2141
ssS'A4740'
p2142
(dp2143
g3
(lp2144
sg5
S'R Gans'
p2145
ssS'A4747'
p2146
(dp2147
g3
(lp2148
sg5
S'A Rudiger'
p2149
ssS'A4744'
p2150
(dp2151
g3
(lp2152
sg5
S'T Duckett'
p2153
ssS'A5155'
p2154
(dp2155
g3
g1503
sg5
S'A Drogoul'
p2156
ssS'A4749'
p2157
(dp2158
g3
g1495
sg5
S'V Lumelsky'
p2159
ssS'A4748'
p2160
(dp2161
g3
g1495
sg5
S'K Kutulakos'
p2162
ssS'A1104'
p2163
(dp2164
g3
g1763
sg5
S'J Salisbury'
p2165
ssS'A5154'
p2166
(dp2167
g3
g1503
sg5
S'B Werger'
p2168
ssS'A20142'
p2169
(dp2170
g3
g1216
sg5
S'G Salgian'
p2171
ssS'A5157'
p2172
(dp2173
g3
g1503
sg5
S'H Sho'
p2174
ssS'A5156'
p2175
(dp2176
g3
g1503
sg5
S'D Duhaut'
p2177
ssS'A5103'
p2178
(dp2179
g3
g1258
sg5
S'K Gupta'
p2180
ssS'A5158'
p2181
(dp2182
g3
(lp2183
sg5
S'A Schweikard'
p2184
ssS'A10297'
p2185
(dp2186
g3
g1915
sg5
S'S Badal'
p2187
ssS'A4458'
p2188
(dp2189
g3
g835
sg5
S'K Ali'
p2190
ssS'A16921'
p2191
(dp2192
g3
g432
sg5
S'N Ahuja'
p2193
ssS'A16920'
p2194
(dp2195
g3
g432
sg5
S'J Weng'
p2196
ssS'A10197'
p2197
(dp2198
g3
g547
sg5
S'B Nelson'
p2199
ssS'A3524'
p2200
(dp2201
g3
g1125
sg5
S'H Sussmann'
p2202
ssS'A3525'
p2203
(dp2204
g3
(lp2205
sg5
S'E Sontag'
p2206
ssS'A6051'
p2207
(dp2208
g3
g1125
sg5
S'W Liu'
p2209
ssS'A3529'
p2210
(dp2211
g3
(lp2212
sg5
S'A Retey'
p2213
ssS'A4516'
p2214
(dp2215
g3
g1994
sg5
S'R Nelson'
p2216
ssS'A4512'
p2217
(dp2218
g3
g1212
sg5
S'P Utgoff'
p2219
ssS'A5180'
p2220
(dp2221
g3
(lp2222
sg5
S'F Brill'
p2223
ssS'A4691'
p2224
(dp2225
g3
(lp2226
sg5
S'W Wright'
p2227
ssS'A2030'
p2228
(dp2229
g3
g1643
sg5
S'B Mirtich'
p2230
ssS'A5025'
p2231
(dp2232
g3
g941
sg5
S'H Wan'
p2233
ssS'A5027'
p2234
(dp2235
g3
(lp2236
sg5
S'Z Butler'
p2237
ssS'A5026'
p2238
(dp2239
g3
g2236
sg5
S'P Berkelman'
p2240
ssS'A4707'
p2241
(dp2242
g3
g57
sg5
S'C Baroglio'
p2243
ssS'A3351'
p2244
(dp2245
g3
g518
sg5
S'D Fox'
p2246
ssS'A3350'
p2247
(dp2248
g3
g257
sg5
S'A Cremers'
p2249
ssS'A16147'
p2250
(dp2251
g3
g799
sg5
S'L Katragadda'
p2252
ssS'A22359'
p2253
(dp2254
g3
g1125
sg5
S'A Lindquist'
p2255
ssS'A4699'
p2256
(dp2257
g3
g386
sg5
S'A Erdem'
p2258
ssS'A5467'
p2259
(dp2260
g3
g180
sg5
S'R Blasi'
p2261
ssS'A4751'
p2262
(dp2263
g3
g417
sg5
S'J Demiris'
p2264
ssS'A3596'
p2265
(dp2266
g3
(lp2267
sg5
S'J Racz'
p2268
ssS'A2101'
p2269
(dp2270
g3
g1250
sg5
S'M Teichmann'
p2271
ssS'A2515'
p2272
(dp2273
g3
g1869
sg5
S'E Bradley'
p2274
ssS'A3265'
p2275
(dp2276
g3
g409
sg5
S'L Davis'
p2277
ssS'A410'
p2278
(dp2279
g3
g161
sg5
S'R Smith'
p2280
ssS'A2812'
p2281
(dp2282
g3
(lp2283
sg5
S'D Goldberg'
p2284
ssS'A4633'
p2285
(dp2286
g3
(lp2287
sg5
S'P Scudder'
p2288
ssS'A4632'
p2289
(dp2290
g3
g169
sg5
S'F Wallner'
p2291
ssS'A4631'
p2292
(dp2293
g3
(lp2294
sg5
S'E Hall'
p2295
ssS'A4630'
p2296
(dp2297
g3
(lp2298
sg5
S'D Parsons'
p2299
ssS'A4636'
p2300
(dp2301
g3
g145
sg5
S'B Yamauchi'
p2302
ssS'A4634'
p2303
(dp2304
g3
g2287
sg5
S'M Gimovsky'
p2305
ssS'A4888'
p2306
(dp2307
g3
(lp2308
sg5
S'J Wang'
p2309
ssS'A4889'
p2310
(dp2311
g3
g1279
sg5
S'P Leger'
p2312
ssS'A4880'
p2313
(dp2314
g3
(lp2315
sg5
S'J Barraquand'
p2316
ssS'A4881'
p2317
(dp2318
g3
g920
sg5
S'T Li'
p2319
ssS'A4882'
p2320
(dp2321
g3
g1262
sg5
S'W Hong'
p2322
ssS'A4883'
p2323
(dp2324
g3
(lp2325
sg5
S'L Lorigo'
p2326
ssS'A4884'
p2327
(dp2328
g3
g2325
sg5
S'W Grimson'
p2329
ssS'A4885'
p2330
(dp2331
g3
g1383
sg5
S'K Han'
p2332
ssS'A4886'
p2333
(dp2334
g3
(lp2335
sg5
S'A Nahvi'
p2336
ssS'A4887'
p2337
(dp2338
g3
g2335
sg5
S'V Hayward'
p2339
ssS'A13333'
p2340
(dp2341
g3
(lp2342
sg5
S'R Prasad'
p2343
ssS'A13331'
p2344
(dp2345
g3
(lp2346
sg5
S'N Donald'
p2347
ssS'A13330'
p2348
(dp2349
g3
g2342
sg5
S'C MacDonald'
p2350
ssS'A6167'
p2351
(dp2352
g3
g53
sg5
S'J Lygeros'
p2353
ssS'A13334'
p2354
(dp2355
g3
g2342
sg5
S'K Noel'
p2356
ssS'A6168'
p2357
(dp2358
g3
g311
sg5
S'G Pappas'
p2359
ssS'A4866'
p2360
(dp2361
g3
g2104
sg5
S'G Canepa'
p2362
ssS'A4908'
p2363
(dp2364
g3
g188
sg5
S'O Khatib'
p2365
ssS'A5153'
p2366
(dp2367
g3
g253
sg5
S'G Pratt'
p2368
ssS'A5152'
p2369
(dp2370
g3
g253
sg5
S'P Dilworth'
p2371
ssS'A4862'
p2372
(dp2373
g3
g165
sg5
S'K Khodabandehloo'
p2374
ssS'A4863'
p2375
(dp2376
g3
g165
sg5
S'S Tomlinson'
p2377
ssS'A4860'
p2378
(dp2379
g3
g494
sg5
S'T Kameda'
p2380
ssS'A4861'
p2381
(dp2382
g3
g165
sg5
S'R Buckingham'
p2383
ssS'A4901'
p2384
(dp2385
g3
g1212
sg5
S'M Rosenstein'
p2386
ssS'A4900'
p2387
(dp2388
g3
g1212
sg5
S'M Schmill'
p2389
ssS'A4903'
p2390
(dp2391
g3
g1882
sg5
S'B McGonigle'
p2392
ssS'A4902'
p2393
(dp2394
g3
g835
sg5
S'D MacKenzie'
p2395
ssS'A4904'
p2396
(dp2397
g3
g1233
sg5
S'L Bushnell'
p2398
ssS'A4868'
p2399
(dp2400
g3
g799
sg5
S'M Hebert'
p2401
ssS'A4869'
p2402
(dp2403
g3
(lp2404
sg5
S'K Lynch'
p2405
ssS'A2608'
p2406
(dp2407
g3
g1178
sg5
S'A Barto'
p2408
ssS'A4706'
p2409
(dp2410
g3
(lp2411
sg5
S'C Ferrell'
p2412
ssS'A4704'
p2413
(dp2414
g3
g192
sg5
S'M Marjanovic'
p2415
ssS'A4702'
p2416
(dp2417
g3
g386
sg5
S'S Tejada'
p2418
ssS'A4701'
p2419
(dp2420
g3
g386
sg5
S'B Salemi'
p2421
ssS'A4700'
p2422
(dp2423
g3
g386
sg5
S'H Moradi'
p2424
ssS'A8805'
p2425
(dp2426
g3
g471
sg5
S'W Feiten'
p2427
ssS'A8806'
p2428
(dp2429
g3
g471
sg5
S'J Bauer'
p2430
ssS'A834'
p2431
(dp2432
g3
g362
sg5
S'J Vitter'
p2433
ssS'A3562'
p2434
(dp2435
g3
g409
sg5
S'D Pomerleau'
p2436
ss.