(dp0
I0
(dp1
S'dataID'
p2
S'A5594'
p3
sS'nodetrixID'
p4
I0
sS'name'
p5
S'V Overmars'
p6
ssI1
(dp7
g2
S'A2787'
p8
sg4
I1
sg5
S'C Searle'
p9
ssI2
(dp10
g2
S'A3957'
p11
sg4
I2
sg5
S'J Lee'
p12
ssI3
(dp13
g2
S'A16290'
p14
sg4
I3
sg5
S'I EbertUphoff'
p15
ssI4
(dp16
g2
S'A14147'
p17
sg4
I4
sg5
S'V Kantabutra'
p18
ssI5
(dp19
g2
S'A14146'
p20
sg4
I5
sg5
S'W Plantinga'
p21
ssI6
(dp22
g2
S'A2770'
p23
sg4
I6
sg5
S'C Rasmussen'
p24
ssI7
(dp25
g2
S'A2773'
p26
sg4
I7
sg5
S'R Brooks'
p27
ssI8
(dp28
g2
S'A19270'
p29
sg4
I8
sg5
S'J Morrow'
p30
ssI9
(dp31
g2
S'A14149'
p32
sg4
I9
sg5
S'J Lenhart'
p33
ssI10
(dp34
g2
S'A14148'
p35
sg4
I10
sg5
S'S Kosaraju'
p36
ssI11
(dp37
g2
S'A4558'
p38
sg4
I11
sg5
S'A Cao'
p39
ssI12
(dp40
g2
S'A4559'
p41
sg4
I12
sg5
S'F Meng'
p42
ssI13
(dp43
g2
S'A2679'
p44
sg4
I13
sg5
S'P Martin'
p45
ssI14
(dp46
g2
S'A2678'
p47
sg4
I14
sg5
S'M Nuttin'
p48
ssI15
(dp49
g2
S'A4553'
p50
sg4
I15
sg5
S'G Kantor'
p51
ssI16
(dp52
g2
S'A4556'
p53
sg4
I16
sg5
S'D Tsakiris'
p54
ssI17
(dp55
g2
S'A4557'
p56
sg4
I17
sg5
S'Y Uny'
p57
ssI18
(dp58
g2
S'A4554'
p59
sg4
I18
sg5
S'V Manikonda'
p60
ssI19
(dp61
g2
S'A4555'
p62
sg4
I19
sg5
S'A Newman'
p63
ssI20
(dp64
g2
S'A3257'
p65
sg4
I20
sg5
S'S Professor'
p66
ssI21
(dp67
g2
S'A12749'
p68
sg4
I21
sg5
S'C MacKenzie'
p69
ssI22
(dp70
g2
S'A12748'
p71
sg4
I22
sg5
S'D Christopher'
p72
ssI23
(dp73
g2
S'A5937'
p74
sg4
I23
sg5
S'S Engelson'
p75
ssI24
(dp76
g2
S'A10269'
p77
sg4
I24
sg5
S'J Grizzle'
p78
ssI25
(dp79
g2
S'A4006'
p80
sg4
I25
sg5
S'A Weitzenfeld'
p81
ssI26
(dp82
g2
S'A15249'
p83
sg4
I26
sg5
S'F DeNatale'
p84
ssI27
(dp85
g2
S'A15248'
p86
sg4
I27
sg5
S'C Moneta'
p87
ssI28
(dp88
g2
S'A3419'
p89
sg4
I28
sg5
S'S Baluja'
p90
ssI29
(dp91
g2
S'A5072'
p92
sg4
I29
sg5
S'H Cruse'
p93
ssI30
(dp94
g2
S'A5073'
p95
sg4
I30
sg5
S'H Ritter'
p96
ssI31
(dp97
g2
S'A5070'
p98
sg4
I31
sg5
S'E Milios'
p99
ssI32
(dp100
g2
S'A5071'
p101
sg4
I32
sg5
S'D Wilkes'
p102
ssI33
(dp103
g2
S'A2410'
p104
sg4
I33
sg5
S'B Kuipers'
p105
ssI34
(dp106
g2
S'A5078'
p107
sg4
I34
sg5
S'O Schwarzkopf'
p108
ssI35
(dp109
g2
S'A5079'
p110
sg4
I35
sg5
S'A Rao'
p111
ssI36
(dp112
g2
S'A1233'
p113
sg4
I36
sg5
S'D James'
p114
ssI37
(dp115
g2
S'A2327'
p116
sg4
I37
sg5
S'P Langley'
p117
ssI38
(dp118
g2
S'A1924'
p119
sg4
I38
sg5
S'A Hanson'
p120
ssI39
(dp121
g2
S'A4174'
p122
sg4
I39
sg5
S'K Morik'
p123
ssI40
(dp124
g2
S'A4175'
p125
sg4
I40
sg5
S'A Rieger'
p126
ssI41
(dp127
g2
S'A4177'
p128
sg4
I41
sg5
S'P Cheeseman'
p129
ssI42
(dp130
g2
S'A4679'
p131
sg4
I42
sg5
S'H Friedrich'
p132
ssI43
(dp133
g2
S'A4173'
p134
sg4
I43
sg5
S'V Klingspor'
p135
ssI44
(dp136
g2
S'A58'
p137
sg4
I44
sg5
S'A Ram'
p138
ssI45
(dp139
g2
S'A17601'
p140
sg4
I45
sg5
S'A Weinstein'
p141
ssI46
(dp142
g2
S'A17600'
p143
sg4
I46
sg5
S'P Shankar'
p144
ssI47
(dp145
g2
S'A12139'
p146
sg4
I47
sg5
S'H Petroski'
p147
ssI48
(dp148
g2
S'A3735'
p149
sg4
I48
sg5
S'D Williams'
p150
ssI49
(dp151
g2
S'A5038'
p152
sg4
I49
sg5
S'R Irie'
p153
ssI50
(dp154
g2
S'A5205'
p155
sg4
I50
sg5
S'D NavinChandra'
p156
ssI51
(dp157
g2
S'A5204'
p158
sg4
I51
sg5
S'A DazCalderon'
p159
ssI52
(dp160
g2
S'A5207'
p161
sg4
I52
sg5
S'C Fennema'
p162
ssI53
(dp163
g2
S'A5206'
p164
sg4
I53
sg5
S'B Rochwerger'
p165
ssI54
(dp166
g2
S'A5203'
p167
sg4
I54
sg5
S'L Joskowicz'
p168
ssI55
(dp169
g2
S'A3049'
p170
sg4
I55
sg5
S'A Wu'
p171
ssI56
(dp172
g2
S'A4828'
p173
sg4
I56
sg5
S'R Feague'
p174
ssI57
(dp175
g2
S'A4829'
p176
sg4
I57
sg5
S'G Sukhatme'
p177
ssI58
(dp178
g2
S'A4822'
p179
sg4
I58
sg5
S'H Schempf'
p180
ssI59
(dp181
g2
S'A4820'
p182
sg4
I59
sg5
S'S Gatrall'
p183
ssI60
(dp184
g2
S'A4821'
p185
sg4
I60
sg5
S'R OToole'
p186
ssI61
(dp187
g2
S'A4827'
p188
sg4
I61
sg5
S'A Katkere'
p189
ssI62
(dp190
g2
S'A4824'
p191
sg4
I62
sg5
S'K Tam'
p192
ssI63
(dp193
g2
S'A4825'
p194
sg4
I63
sg5
S'W Huang'
p195
ssI64
(dp196
g2
S'A5151'
p197
sg4
I64
sg5
S'A Torres'
p198
ssI65
(dp199
g2
S'A870'
p200
sg4
I65
sg5
S'J Buhmann'
p201
ssI66
(dp202
g2
S'A1215'
p203
sg4
I66
sg5
S'B Schiele'
p204
ssI67
(dp205
g2
S'A20907'
p206
sg4
I67
sg5
S'F Aghili'
p207
ssI68
(dp208
g2
S'A5049'
p209
sg4
I68
sg5
S'M Nuttinz'
p210
ssI69
(dp211
g2
S'A193'
p212
sg4
I69
sg5
S'W Chang'
p213
ssI70
(dp214
g2
S'A4182'
p215
sg4
I70
sg5
S'P Chalasani'
p216
ssI71
(dp217
g2
S'A20908'
p218
sg4
I71
sg5
S'M Buehler'
p219
ssI72
(dp220
g2
S'A20909'
p221
sg4
I72
sg5
S'L Giugovaz'
p222
ssI73
(dp223
g2
S'A5150'
p224
sg4
I73
sg5
S'J Pratt'
p225
ssI74
(dp226
g2
S'A4956'
p227
sg4
I74
sg5
S'C Cohen'
p228
ssI75
(dp229
g2
S'A4957'
p230
sg4
I75
sg5
S'K Sutherland'
p231
ssI76
(dp232
g2
S'A4954'
p233
sg4
I76
sg5
S'G Whlke'
p234
ssI77
(dp235
g2
S'A174'
p236
sg4
I77
sg5
S'R Brown'
p237
ssI78
(dp238
g2
S'A4952'
p239
sg4
I78
sg5
S'J Kosecka'
p240
ssI79
(dp241
g2
S'A4226'
p242
sg4
I79
sg5
S'D Angluin'
p243
ssI80
(dp244
g2
S'A4951'
p245
sg4
I80
sg5
S'P Christopher'
p246
ssI81
(dp247
g2
S'A6136'
p248
sg4
I81
sg5
S'J Kuffner'
p249
ssI82
(dp250
g2
S'A11587'
p251
sg4
I82
sg5
S'W Lenhart'
p252
ssI83
(dp253
g2
S'A6135'
p254
sg4
I83
sg5
S'K Kondo'
p255
ssI84
(dp256
g2
S'A4958'
p257
sg4
I84
sg5
S'Y Jia'
p258
ssI85
(dp259
g2
S'A4959'
p260
sg4
I85
sg5
S'M Erdmann'
p261
ssI86
(dp262
g2
S'A4785'
p263
sg4
I86
sg5
S'R Froom'
p264
ssI87
(dp265
g2
S'A11578'
p266
sg4
I87
sg5
S'J Suh'
p267
ssI88
(dp268
g2
S'A2635'
p269
sg4
I88
sg5
S'D Touretzky'
p270
ssI89
(dp271
g2
S'A4598'
p272
sg4
I89
sg5
S'J Millan'
p273
ssI90
(dp274
g2
S'A2639'
p275
sg4
I90
sg5
S'L Kaelbling'
p276
ssI91
(dp277
g2
S'A4597'
p278
sg4
I91
sg5
S'M Accame'
p279
ssI92
(dp280
g2
S'A4594'
p281
sg4
I92
sg5
S'K Basye'
p282
ssI93
(dp283
g2
S'A4592'
p284
sg4
I93
sg5
S'J Jennings'
p285
ssI94
(dp286
g2
S'A4593'
p287
sg4
I94
sg5
S'D Rus'
p288
ssI95
(dp289
g2
S'A4590'
p290
sg4
I95
sg5
S'K Bohringer'
p291
ssI96
(dp292
g2
S'A4591'
p293
sg4
I96
sg5
S'B Donald'
p294
ssI97
(dp295
g2
S'A4695'
p296
sg4
I97
sg5
S'A Kelly'
p297
ssI98
(dp298
g2
S'A4697'
p299
sg4
I98
sg5
S'R Adobbati'
p300
ssI99
(dp301
g2
S'A4696'
p302
sg4
I99
sg5
S'J Adibi'
p303
ssI100
(dp304
g2
S'A4758'
p305
sg4
I100
sg5
S'A Stentz'
p306
ssI101
(dp307
g2
S'A4759'
p308
sg4
I101
sg5
S'B Awerbuch'
p309
ssI102
(dp310
g2
S'A4693'
p311
sg4
I102
sg5
S'E Huber'
p312
ssI103
(dp313
g2
S'A4755'
p314
sg4
I103
sg5
S'I Lin'
p315
ssI104
(dp316
g2
S'A9099'
p317
sg4
I104
sg5
S'W Thompson'
p318
ssI105
(dp319
g2
S'A4757'
p320
sg4
I105
sg5
S'A Ponceau'
p321
ssI106
(dp322
g2
S'A4699'
p323
sg4
I106
sg5
S'A Erdem'
p324
ssI107
(dp325
g2
S'A4698'
p326
sg4
I107
sg5
S'B Cho'
p327
ssI108
(dp328
g2
S'A22242'
p329
sg4
I108
sg5
S'F Jo'
p330
ssI109
(dp331
g2
S'A15044'
p332
sg4
I109
sg5
S'J Benedetto'
p333
ssI110
(dp334
g2
S'A16919'
p335
sg4
I110
sg5
S'L Wixson'
p336
ssI111
(dp337
g2
S'A3902'
p338
sg4
I111
sg5
S'W Lee'
p339
ssI112
(dp340
g2
S'A2593'
p341
sg4
I112
sg5
S'Y Lesperance'
p342
ssI113
(dp343
g2
S'A2599'
p344
sg4
I113
sg5
S'M Veloso'
p345
ssI114
(dp346
g2
S'A12140'
p347
sg4
I114
sg5
S'W Vincenti'
p348
ssI115
(dp349
g2
S'A2028'
p350
sg4
I115
sg5
S'J Dean'
p351
ssI116
(dp352
g2
S'A5126'
p353
sg4
I116
sg5
S'T Drsam'
p354
ssI117
(dp355
g2
S'A4521'
p356
sg4
I117
sg5
S'S Schaal'
p357
ssI118
(dp358
g2
S'A5039'
p359
sg4
I118
sg5
S'C Kemp'
p360
ssI119
(dp361
g2
S'A2745'
p362
sg4
I119
sg5
S'M Bowling'
p363
ssI120
(dp364
g2
S'A5117'
p365
sg4
I120
sg5
S'B Magnussen'
p366
ssI121
(dp367
g2
S'A9086'
p368
sg4
I121
sg5
S'S Jacobsen'
p369
ssI122
(dp370
g2
S'A1891'
p371
sg4
I122
sg5
S'D Manocha'
p372
ssI123
(dp373
g2
S'A21527'
p374
sg4
I123
sg5
S'G Grunwald'
p375
ssI124
(dp376
g2
S'A14114'
p377
sg4
I124
sg5
S'A Sanderson'
p378
ssI125
(dp379
g2
S'A4036'
p380
sg4
I125
sg5
S'S Waldherr'
p381
ssI126
(dp382
g2
S'A95'
p383
sg4
I126
sg5
S'C Papadimitriou'
p384
ssI127
(dp385
g2
S'A97'
p386
sg4
I127
sg5
S'H Tamaki'
p387
ssI128
(dp388
g2
S'A96'
p389
sg4
I128
sg5
S'P Raghavan'
p390
ssI129
(dp391
g2
S'A4137'
p392
sg4
I129
sg5
S'A Ronald'
p393
ssI130
(dp394
g2
S'A3343'
p395
sg4
I130
sg5
S'K Kanazawa'
p396
ssI131
(dp397
g2
S'A4879'
p398
sg4
I131
sg5
S'S Sastry'
p399
ssI132
(dp400
g2
S'A3349'
p401
sg4
I132
sg5
S'W Burgard'
p402
ssI133
(dp403
g2
S'A958'
p404
sg4
I133
sg5
S'T Dean'
p405
ssI134
(dp406
g2
S'A4971'
p407
sg4
I134
sg5
S'G Simmons'
p408
ssI135
(dp409
g2
S'A3588'
p410
sg4
I135
sg5
S'T Smithers'
p411
ssI136
(dp412
g2
S'A3462'
p413
sg4
I136
sg5
S'R Piola'
p414
ssI137
(dp415
g2
S'A11955'
p416
sg4
I137
sg5
S'Z Shiller'
p417
ssI138
(dp418
g2
S'A11954'
p419
sg4
I138
sg5
S'T Levitt'
p420
ssI139
(dp421
g2
S'A11957'
p422
sg4
I139
sg5
S'A Guez'
p423
ssI140
(dp424
g2
S'A11956'
p425
sg4
I140
sg5
S'S Zaharakis'
p426
ssI141
(dp427
g2
S'A1917'
p428
sg4
I141
sg5
S'P Khosla'
p429
ssI142
(dp430
g2
S'A1916'
p431
sg4
I142
sg5
S'C Lee'
p432
ssI143
(dp433
g2
S'A1919'
p434
sg4
I143
sg5
S'R Sharma'
p435
ssI144
(dp436
g2
S'A1918'
p437
sg4
I144
sg5
S'K Shimoga'
p438
ssI145
(dp439
g2
S'A4624'
p440
sg4
I145
sg5
S'H Taghirad'
p441
ssI146
(dp442
g2
S'A4626'
p443
sg4
I146
sg5
S'J Hodgins'
p444
ssI147
(dp445
g2
S'A4620'
p446
sg4
I147
sg5
S'S LaValle'
p447
ssI148
(dp448
g2
S'A4621'
p449
sg4
I148
sg5
S'D Lin'
p450
ssI149
(dp451
g2
S'A4788'
p452
sg4
I149
sg5
S'R Howe'
p453
ssI150
(dp454
g2
S'A4787'
p455
sg4
I150
sg5
S'E Dunn'
p456
ssI151
(dp457
g2
S'A15250'
p458
sg4
I151
sg5
S'G Vernazza'
p459
ssI152
(dp460
g2
S'A4784'
p461
sg4
I152
sg5
S'M Raibert'
p462
ssI153
(dp463
g2
S'A4783'
p464
sg4
I153
sg5
S'R Ringrose'
p465
ssI154
(dp466
g2
S'A4782'
p467
sg4
I154
sg5
S'E Stopp'
p468
ssI155
(dp469
g2
S'A4781'
p470
sg4
I155
sg5
S'G Herzog'
p471
ssI156
(dp472
g2
S'A4864'
p473
sg4
I156
sg5
S'R Berretty'
p474
ssI157
(dp475
g2
S'A1522'
p476
sg4
I157
sg5
S'R Miller'
p477
ssI158
(dp478
g2
S'A3641'
p479
sg4
I158
sg5
S'M Rosenblum'
p480
ssI159
(dp481
g2
S'A18309'
p482
sg4
I159
sg5
S'W Seering'
p483
ssI160
(dp484
g2
S'A18308'
p485
sg4
I160
sg5
S'T Tuttle'
p486
ssI161
(dp487
g2
S'A4865'
p488
sg4
I161
sg5
S'A Frank'
p489
ssI162
(dp490
g2
S'A6172'
p491
sg4
I162
sg5
S'B Bohringer'
p492
ssI163
(dp493
g2
S'A6173'
p494
sg4
I163
sg5
S'R Donald'
p495
ssI164
(dp496
g2
S'A6171'
p497
sg4
I164
sg5
S'F KarlFriedrich'
p498
ssI165
(dp499
g2
S'A6174'
p500
sg4
I165
sg5
S'N MacDonald'
p501
ssI166
(dp502
g2
S'A4970'
p503
sg4
I166
sg5
S'K Reid'
p504
ssI167
(dp505
g2
S'A4853'
p506
sg4
I167
sg5
S'S Abrams'
p507
ssI168
(dp508
g2
S'A4852'
p509
sg4
I168
sg5
S'G Kaminka'
p510
ssI169
(dp511
g2
S'A4857'
p512
sg4
I169
sg5
S'W Kaufman'
p513
ssI170
(dp514
g2
S'A4856'
p515
sg4
I170
sg5
S'J Strikos'
p516
ssI171
(dp517
g2
S'A4855'
p518
sg4
I171
sg5
S'F Schneider'
p519
ssI172
(dp520
g2
S'A4854'
p521
sg4
I172
sg5
S'K Tarabanis'
p522
ssI173
(dp523
g2
S'A1825'
p524
sg4
I173
sg5
S'M Pearce'
p525
ssI174
(dp526
g2
S'A4859'
p527
sg4
I174
sg5
S'X Deng'
p528
ssI175
(dp529
g2
S'A4858'
p530
sg4
I175
sg5
S'C Alberts'
p531
ssI176
(dp532
g2
S'A4916'
p533
sg4
I176
sg5
S'H Forbes'
p534
ssI177
(dp535
g2
S'A134'
p536
sg4
I177
sg5
S'J Kleinberg'
p537
ssI178
(dp538
g2
S'A4808'
p539
sg4
I178
sg5
S'R Ing'
p540
ssI179
(dp541
g2
S'A4712'
p542
sg4
I179
sg5
S'P Weckesser'
p543
ssI180
(dp544
g2
S'A4713'
p545
sg4
I180
sg5
S'T Laengle'
p546
ssI181
(dp547
g2
S'A4715'
p548
sg4
I181
sg5
S'U Rembold'
p549
ssI182
(dp550
g2
S'A4717'
p551
sg4
I182
sg5
S'R Desai'
p552
ssI183
(dp553
g2
S'A4718'
p554
sg4
I183
sg5
S'C Rosenberg'
p555
ssI184
(dp556
g2
S'A4719'
p557
sg4
I184
sg5
S'J Jones'
p558
ssI185
(dp559
g2
S'A4496'
p560
sg4
I185
sg5
S'Y Zhu'
p561
ssI186
(dp562
g2
S'A5665'
p563
sg4
I186
sg5
S'T Huang'
p564
ssI187
(dp565
g2
S'A4981'
p566
sg4
I187
sg5
S'N Zumel'
p567
ssI188
(dp568
g2
S'A4982'
p569
sg4
I188
sg5
S'G Telex'
p570
ssI189
(dp571
g2
S'A4987'
p572
sg4
I189
sg5
S'P Reignier'
p573
ssI190
(dp574
g2
S'A9398'
p575
sg4
I190
sg5
S'B Kumar'
p576
ssI191
(dp577
g2
S'A4989'
p578
sg4
I191
sg5
S'J Godhavn'
p579
ssI192
(dp580
g2
S'A9018'
p581
sg4
I192
sg5
S'J Geisler'
p582
ssI193
(dp583
g2
S'A2794'
p584
sg4
I193
sg5
S'R Arkin'
p585
ssI194
(dp586
g2
S'A18840'
p587
sg4
I194
sg5
S'M Date'
p588
ssI195
(dp589
g2
S'A4839'
p590
sg4
I195
sg5
S'C Tomasi'
p591
ssI196
(dp592
g2
S'A2701'
p593
sg4
I196
sg5
S'G Boone'
p594
ssI197
(dp595
g2
S'A14078'
p596
sg4
I197
sg5
S'R Volz'
p597
ssI198
(dp598
g2
S'A4564'
p599
sg4
I198
sg5
S'G Kutlu'
p600
ssI199
(dp601
g2
S'A4563'
p602
sg4
I199
sg5
S'B Draper'
p603
ssI200
(dp604
g2
S'A4562'
p605
sg4
I200
sg5
S'I Dillmann'
p606
ssI201
(dp607
g2
S'A4561'
p608
sg4
I201
sg5
S'I Rembold'
p609
ssI202
(dp610
g2
S'A4560'
p611
sg4
I202
sg5
S'J Kreuziger'
p612
ssI203
(dp613
g2
S'A14073'
p614
sg4
I203
sg5
S'V Rajan'
p615
ssI204
(dp616
g2
S'A14072'
p617
sg4
I204
sg5
S'V Prasanna'
p618
ssI205
(dp619
g2
S'A14075'
p620
sg4
I205
sg5
S'C VanWyk'
p621
ssI206
(dp622
g2
S'A14074'
p623
sg4
I206
sg5
S'A Schaeffer'
p624
ssI207
(dp625
g2
S'A14077'
p626
sg4
I207
sg5
S'J Wolter'
p627
ssI208
(dp628
g2
S'A4568'
p629
sg4
I208
sg5
S'M VanWie'
p630
ssI209
(dp631
g2
S'A4764'
p632
sg4
I209
sg5
S'A Jepson'
p633
ssI210
(dp634
g2
S'A4767'
p635
sg4
I210
sg5
S'S Haigh'
p636
ssI211
(dp637
g2
S'A4766'
p638
sg4
I211
sg5
S'K Zita'
p639
ssI212
(dp640
g2
S'A4761'
p641
sg4
I212
sg5
S'R Goodwin'
p642
ssI213
(dp643
g2
S'A4760'
p644
sg4
I213
sg5
S'M Betke'
p645
ssI214
(dp646
g2
S'A4763'
p647
sg4
I214
sg5
S'M Jenkin'
p648
ssI215
(dp649
g2
S'A4762'
p650
sg4
I215
sg5
S'R Simmons'
p651
ssI216
(dp652
g2
S'A2666'
p653
sg4
I216
sg5
S'B Krose'
p654
ssI217
(dp655
g2
S'A4769'
p656
sg4
I217
sg5
S'M Sullivan'
p657
ssI218
(dp658
g2
S'A4768'
p659
sg4
I218
sg5
S'J Koenig'
p660
ssI219
(dp661
g2
S'A1610'
p662
sg4
I219
sg5
S'E Riseman'
p663
ssI220
(dp664
g2
S'A10279'
p665
sg4
I220
sg5
S'F Curotto'
p666
ssI221
(dp667
g2
S'A10278'
p668
sg4
I221
sg5
S'G Sandini'
p669
ssI222
(dp670
g2
S'A11953'
p671
sg4
I222
sg5
S'Y Byun'
p672
ssI223
(dp673
g2
S'A9974'
p674
sg4
I223
sg5
S'T Henderson'
p675
ssI224
(dp676
g2
S'A2902'
p677
sg4
I224
sg5
S'J Kok'
p678
ssI225
(dp679
g2
S'A5041'
p680
sg4
I225
sg5
S'Z Chen'
p681
ssI226
(dp682
g2
S'A5047'
p683
sg4
I226
sg5
S'R Suarezy'
p684
ssI227
(dp685
g2
S'A5046'
p686
sg4
I227
sg5
S'J Kenneth'
p687
ssI228
(dp688
g2
S'A22313'
p689
sg4
I228
sg5
S'B Jakubczyk'
p690
ssI229
(dp691
g2
S'A5362'
p692
sg4
I229
sg5
S'O Faugeras'
p693
ssI230
(dp694
g2
S'A2400'
p695
sg4
I230
sg5
S'D Ph'
p696
ssI231
(dp697
g2
S'A5048'
p698
sg4
I231
sg5
S'L Basa'
p699
ssI232
(dp700
g2
S'A2330'
p701
sg4
I232
sg5
S'R Greiner'
p702
ssI233
(dp703
g2
S'A4108'
p704
sg4
I233
sg5
S'J Wendlandt'
p705
ssI234
(dp706
g2
S'A4663'
p707
sg4
I234
sg5
S'G Dudek'
p708
ssI235
(dp709
g2
S'A15935'
p710
sg4
I235
sg5
S'P Swanson'
p711
ssI236
(dp712
g2
S'A2244'
p713
sg4
I236
sg5
S'R Taylor'
p714
ssI237
(dp715
g2
S'A619'
p716
sg4
I237
sg5
S'R Hauser'
p717
ssI238
(dp718
g2
S'A20863'
p719
sg4
I238
sg5
S'T Colvin'
p720
ssI239
(dp721
g2
S'A20865'
p722
sg4
I239
sg5
S'C Valiquette'
p723
ssI240
(dp724
g2
S'A20864'
p725
sg4
I240
sg5
S'L Dick'
p726
ssI241
(dp727
g2
S'A20866'
p728
sg4
I241
sg5
S'H Pick'
p729
ssI242
(dp730
g2
S'A4817'
p731
sg4
I242
sg5
S'R Bennett'
p732
ssI243
(dp733
g2
S'A4816'
p734
sg4
I243
sg5
S'K Dowling'
p735
ssI244
(dp736
g2
S'A38'
p737
sg4
I244
sg5
S'T Hofmann'
p738
ssI245
(dp739
g2
S'A4812'
p740
sg4
I245
sg5
S'Z Zhang'
p741
ssI246
(dp742
g2
S'A4811'
p743
sg4
I246
sg5
S'A Briggs'
p744
ssI247
(dp745
g2
S'A1866'
p746
sg4
I247
sg5
S'G Hager'
p747
ssI248
(dp748
g2
S'A18930'
p749
sg4
I248
sg5
S'E Rimon'
p750
ssI249
(dp751
g2
S'A4750'
p752
sg4
I249
sg5
S'G Hayes'
p753
ssI250
(dp754
g2
S'A4623'
p755
sg4
I250
sg5
S'M SchneiderFontan'
p756
ssI251
(dp757
g2
S'A6032'
p758
sg4
I251
sg5
S'H Chang'
p759
ssI252
(dp760
g2
S'A4819'
p761
sg4
I252
sg5
S'T Graham'
p762
ssI253
(dp763
g2
S'A4818'
p764
sg4
I253
sg5
S'M Blackwell'
p765
ssI254
(dp766
g2
S'A22963'
p767
sg4
I254
sg5
S'O Amidi'
p768
ssI255
(dp769
g2
S'A860'
p770
sg4
I255
sg5
S'M Siegel'
p771
ssI256
(dp772
g2
S'A863'
p773
sg4
I256
sg5
S'A David'
p774
ssI257
(dp775
g2
S'A7046'
p776
sg4
I257
sg5
S'C Tomlin'
p777
ssI258
(dp778
g2
S'A4619'
p779
sg4
I258
sg5
S'J Latombe'
p780
ssI259
(dp781
g2
S'A4618'
p782
sg4
I259
sg5
S'L Guibas'
p783
ssI260
(dp784
g2
S'A4615'
p785
sg4
I260
sg5
S'J Reif'
p786
ssI261
(dp787
g2
S'A4614'
p788
sg4
I261
sg5
S'J Hancock'
p789
ssI262
(dp790
g2
S'A4617'
p791
sg4
I262
sg5
S'A Bruckstein'
p792
ssI263
(dp793
g2
S'A4616'
p794
sg4
I263
sg5
S'I Wagner'
p795
ssI264
(dp796
g2
S'A4611'
p797
sg4
I264
sg5
S'P Corke'
p798
ssI265
(dp799
g2
S'A4610'
p800
sg4
I265
sg5
S'S Hutchinson'
p801
ssI266
(dp802
g2
S'A4613'
p803
sg4
I266
sg5
S'R Sukthankar'
p804
ssI267
(dp805
g2
S'A4612'
p806
sg4
I267
sg5
S'M Hauser'
p807
ssI268
(dp808
g2
S'A3206'
p809
sg4
I268
sg5
S'D Margaritis'
p810
ssI269
(dp811
g2
S'A3205'
p812
sg4
I269
sg5
S'E Krotkov'
p813
ssI270
(dp814
g2
S'A3204'
p815
sg4
I270
sg5
S'F Cozman'
p816
ssI271
(dp817
g2
S'A9114'
p818
sg4
I271
sg5
S'D Ruspini'
p819
ssI272
(dp820
g2
S'A18223'
p821
sg4
I272
sg5
S'M Pomplun'
p822
ssI273
(dp823
g2
S'A18336'
p824
sg4
I273
sg5
S'T Flash'
p825
ssI274
(dp826
g2
S'A4193'
p827
sg4
I274
sg5
S'K David'
p828
ssI275
(dp829
g2
S'A4190'
p830
sg4
I275
sg5
S'B James'
p831
ssI276
(dp832
g2
S'A4191'
p833
sg4
I276
sg5
S'F ,Erann'
p834
ssI277
(dp835
g2
S'A3611'
p836
sg4
I277
sg5
S'S Zrehen'
p837
ssI278
(dp838
g2
S'A4194'
p839
sg4
I278
sg5
S'P Miller'
p840
ssI279
(dp841
g2
S'A4195'
p842
sg4
I279
sg5
S'M Slack'
p843
ssI280
(dp844
g2
S'A10537'
p845
sg4
I280
sg5
S'A Tits'
p846
ssI281
(dp847
g2
S'A2040'
p848
sg4
I281
sg5
S'S Edelman'
p849
ssI282
(dp850
g2
S'A4963'
p851
sg4
I282
sg5
S'B Faverjon'
p852
ssI283
(dp853
g2
S'A4192'
p854
sg4
I283
sg5
S'G David'
p855
ssI284
(dp856
g2
S'A4961'
p857
sg4
I284
sg5
S'J Ponce'
p858
ssI285
(dp859
g2
S'A4960'
p860
sg4
I285
sg5
S'A Rodney'
p861
ssI286
(dp862
g2
S'A13254'
p863
sg4
I286
sg5
S'N Silver'
p864
ssI287
(dp865
g2
S'A4966'
p866
sg4
I287
sg5
S'C Arkin'
p867
ssI288
(dp868
g2
S'A4965'
p869
sg4
I288
sg5
S'A Quaid'
p870
ssI289
(dp871
g2
S'A13257'
p872
sg4
I289
sg5
S'T Speeter'
p873
ssI290
(dp874
g2
S'A13258'
p875
sg4
I290
sg5
S'T Djaferis'
p876
ssI291
(dp877
g2
S'A4969'
p878
sg4
I291
sg5
S'N Yong'
p879
ssI292
(dp880
g2
S'A266'
p881
sg4
I292
sg5
S'D Pierce'
p882
ssI293
(dp883
g2
S'A18335'
p884
sg4
I293
sg5
S'I Kamon'
p885
ssI294
(dp886
g2
S'A2627'
p887
sg4
I294
sg5
S'A Schultz'
p888
ssI295
(dp889
g2
S'A5133'
p890
sg4
I295
sg5
S'J Pradeep'
p891
ssI296
(dp892
g2
S'A5132'
p893
sg4
I296
sg5
S'R Han'
p894
ssI297
(dp895
g2
S'A2628'
p896
sg4
I297
sg5
S'J Grefenstette'
p897
ssI298
(dp898
g2
S'A5130'
p899
sg4
I298
sg5
S'B Randall'
p900
ssI299
(dp901
g2
S'A20918'
p902
sg4
I299
sg5
S'z Hollerbach'
p903
ssI300
(dp904
g2
S'A4686'
p905
sg4
I300
sg5
S'D Marsh'
p906
ssI301
(dp907
g2
S'A4728'
p908
sg4
I301
sg5
S'S Whitesides'
p909
ssI302
(dp910
g2
S'A4685'
p911
sg4
I302
sg5
S'C Johnson'
p912
ssI303
(dp913
g2
S'A4683'
p914
sg4
I303
sg5
S'M Goldwasser'
p915
ssI304
(dp916
g2
S'A4720'
p917
sg4
I304
sg5
S'F Koss'
p918
ssI305
(dp919
g2
S'A4722'
p920
sg4
I305
sg5
S'C Bidlack'
p921
ssI306
(dp922
g2
S'A4724'
p923
sg4
I306
sg5
S'A Lazanas'
p924
ssI307
(dp925
g2
S'A4727'
p926
sg4
I307
sg5
S'K Romanik'
p927
ssI308
(dp928
g2
S'A4689'
p929
sg4
I308
sg5
S'K Toyama'
p930
ssI309
(dp931
g2
S'A17598'
p932
sg4
I309
sg5
S'E Nicolson'
p933
ssI310
(dp934
g2
S'A12138'
p935
sg4
I310
sg5
S'P Neumann'
p936
ssI311
(dp937
g2
S'A6214'
p938
sg4
I311
sg5
S'B Romney'
p939
ssI312
(dp940
g2
S'A4375'
p941
sg4
I312
sg5
S'R Clark'
p942
ssI313
(dp943
g2
S'A12136'
p944
sg4
I313
sg5
S'G Brooks'
p945
ssI314
(dp946
g2
S'A3875'
p947
sg4
I314
sg5
S'Y Liu'
p948
ssI315
(dp949
g2
S'A12134'
p950
sg4
I315
sg5
S'G Abelson'
p951
ssI316
(dp952
g2
S'A12135'
p953
sg4
I316
sg5
S'H Sussman'
p954
ssI317
(dp955
g2
S'A5007'
p956
sg4
I317
sg5
S'V Ben'
p957
ssI318
(dp958
g2
S'A5006'
p959
sg4
I318
sg5
S'X Benavent'
p960
ssI319
(dp961
g2
S'A4242'
p962
sg4
I319
sg5
S'E Roberts'
p963
ssI320
(dp964
g2
S'A5001'
p965
sg4
I320
sg5
S'A Timcenko'
p966
ssI321
(dp967
g2
S'A2056'
p968
sg4
I321
sg5
S'P Agarwal'
p969
ssI322
(dp970
g2
S'A5127'
p971
sg4
I322
sg5
S'I Streit'
p972
ssI323
(dp973
g2
S'A5008'
p974
sg4
I323
sg5
S'J Krose'
p975
ssI324
(dp976
g2
S'A2697'
p977
sg4
I324
sg5
S'A Fagg'
p978
ssI325
(dp979
g2
S'A22358'
p980
sg4
I325
sg5
S'C Byrnes'
p981
ssI326
(dp982
g2
S'A2694'
p983
sg4
I326
sg5
S'J Chen'
p984
ssI327
(dp985
g2
S'A1018'
p986
sg4
I327
sg5
S'S Nene'
p987
ssI328
(dp988
g2
S'A1019'
p989
sg4
I328
sg5
S'S Nayar'
p990
ssI329
(dp991
g2
S'A2690'
p992
sg4
I329
sg5
S'M Mataric'
p993
ssI330
(dp994
g2
S'A22355'
p995
sg4
I330
sg5
S'R Brockett'
p996
ssI331
(dp997
g2
S'A4532'
p998
sg4
I331
sg5
S'W Seyfferth'
p999
ssI332
(dp1000
g2
S'A22356'
p1001
sg4
I332
sg5
S'R Millman'
p1002
ssI333
(dp1003
g2
S'A2763'
p1004
sg4
I333
sg5
S'F Groen'
p1005
ssI334
(dp1006
g2
S'A2886'
p1007
sg4
I334
sg5
S'P Cohen'
p1008
ssI335
(dp1009
g2
S'A1886'
p1010
sg4
I335
sg5
S'D Ballard'
p1011
ssI336
(dp1012
g2
S'A3477'
p1013
sg4
I336
sg5
S'R Wilson'
p1014
ssI337
(dp1015
g2
S'A2714'
p1016
sg4
I337
sg5
S'H VanBrussel'
p1017
ssI338
(dp1018
g2
S'A13920'
p1019
sg4
I338
sg5
S'J Hopcroft'
p1020
ssI339
(dp1021
g2
S'A4962'
p1022
sg4
I339
sg5
S'D Stam'
p1023
ssI340
(dp1024
g2
S'A17562'
p1025
sg4
I340
sg5
S'A Sastry'
p1026
ssI341
(dp1027
g2
S'A17563'
p1028
sg4
I341
sg5
S'O Srdalen'
p1029
ssI342
(dp1030
g2
S'A3801'
p1031
sg4
I342
sg5
S'C Thorpe'
p1032
ssI343
(dp1033
g2
S'A13252'
p1034
sg4
I343
sg5
S'S Jr'
p1035
ssI344
(dp1036
g2
S'A17564'
p1037
sg4
I344
sg5
S'A Chelouah'
p1038
ssI345
(dp1039
g2
S'A3938'
p1040
sg4
I345
sg5
S'T Jochem'
p1041
ssI346
(dp1042
g2
S'A13253'
p1043
sg4
I346
sg5
S'B Mishra'
p1044
ssI347
(dp1045
g2
S'A4203'
p1046
sg4
I347
sg5
S'S Koenig'
p1047
ssI348
(dp1048
g2
S'A14130'
p1049
sg4
I348
sg5
S'X Zhu'
p1050
ssI349
(dp1051
g2
S'A3573'
p1052
sg4
I349
sg5
S'J Slotine'
p1053
ssI350
(dp1054
g2
S'A13255'
p1055
sg4
I350
sg5
S'S Dexterous'
p1056
ssI351
(dp1057
g2
S'A1902'
p1058
sg4
I351
sg5
S'Y Xu'
p1059
ssI352
(dp1060
g2
S'A2719'
p1061
sg4
I352
sg5
S'D Kortenkamp'
p1062
ssI353
(dp1063
g2
S'A13256'
p1064
sg4
I353
sg5
S'L Pao'
p1065
ssI354
(dp1066
g2
S'A1905'
p1067
sg4
I354
sg5
S'A Johnson'
p1068
ssI355
(dp1069
g2
S'A4964'
p1070
sg4
I355
sg5
S'H Roman'
p1071
ssI356
(dp1072
g2
S'A3251'
p1073
sg4
I356
sg5
S'M Singh'
p1074
ssI357
(dp1075
g2
S'A4798'
p1076
sg4
I357
sg5
S'W Zhu'
p1077
ssI358
(dp1078
g2
S'A4799'
p1079
sg4
I358
sg5
S'A Morse'
p1080
ssI359
(dp1081
g2
S'A17623'
p1082
sg4
I359
sg5
S'F Cazals'
p1083
ssI360
(dp1084
g2
S'A4654'
p1085
sg4
I360
sg5
S'L Stein'
p1086
ssI361
(dp1087
g2
S'A4656'
p1088
sg4
I361
sg5
S'H Yanco'
p1089
ssI362
(dp1090
g2
S'A4790'
p1091
sg4
I362
sg5
S'I Horswill'
p1092
ssI363
(dp1093
g2
S'A4791'
p1094
sg4
I363
sg5
S'J Crowley'
p1095
ssI364
(dp1096
g2
S'A4792'
p1097
sg4
I364
sg5
S'R Burridge'
p1098
ssI365
(dp1099
g2
S'A4793'
p1100
sg4
I365
sg5
S'A Rizzi'
p1101
ssI366
(dp1102
g2
S'A4794'
p1103
sg4
I366
sg5
S'D Koditschek'
p1104
ssI367
(dp1105
g2
S'A4795'
p1106
sg4
I367
sg5
S'H Choset'
p1107
ssI368
(dp1108
g2
S'A4796'
p1109
sg4
I368
sg5
S'J Burdick'
p1110
ssI369
(dp1111
g2
S'A4797'
p1112
sg4
I369
sg5
S'J Westbrook'
p1113
ssI370
(dp1114
g2
S'A4097'
p1115
sg4
I370
sg5
S'A Knobbe'
p1116
ssI371
(dp1117
g2
S'A4093'
p1118
sg4
I371
sg5
S'M Eecen'
p1119
ssI372
(dp1120
g2
S'A2834'
p1121
sg4
I372
sg5
S'S Nolfi'
p1122
ssI373
(dp1123
g2
S'A3659'
p1124
sg4
I373
sg5
S'R Romero'
p1125
ssI374
(dp1126
g2
S'A1305'
p1127
sg4
I374
sg5
S'E Paulos'
p1128
ssI375
(dp1129
g2
S'A1306'
p1130
sg4
I375
sg5
S'J Canny'
p1131
ssI376
(dp1132
g2
S'A4098'
p1133
sg4
I376
sg5
S'M Overmars'
p1134
ssI377
(dp1135
g2
S'A10819'
p1136
sg4
I377
sg5
S'D Joseph'
p1137
ssI378
(dp1138
g2
S'A16117'
p1139
sg4
I378
sg5
S'A Brennemann'
p1140
ssI379
(dp1141
g2
S'A3713'
p1142
sg4
I379
sg5
S'P Patrick'
p1143
ssI380
(dp1144
g2
S'A3712'
p1145
sg4
I380
sg5
S'A Dev'
p1146
ssI381
(dp1147
g2
S'A3714'
p1148
sg4
I381
sg5
S'P VanDerSmagt'
p1149
ssI382
(dp1150
g2
S'A3716'
p1151
sg4
I382
sg5
S'S Fatikow'
p1152
ssI383
(dp1153
g2
S'A4921'
p1154
sg4
I383
sg5
S'G Kamstrup'
p1155
ssI384
(dp1156
g2
S'A4929'
p1157
sg4
I384
sg5
S'R Voyles'
p1158
ssI385
(dp1159
g2
S'A4928'
p1160
sg4
I385
sg5
S'S Achim'
p1161
ssI386
(dp1162
g2
S'A4849'
p1163
sg4
I386
sg5
S'G Richter'
p1164
ssI387
(dp1165
g2
S'A12381'
p1166
sg4
I387
sg5
S'J Schwartz'
p1167
ssI388
(dp1168
g2
S'A4841'
p1169
sg4
I388
sg5
S'U Beyer'
p1170
ssI389
(dp1171
g2
S'A13191'
p1172
sg4
I389
sg5
S'N Papanikolopoulos'
p1173
ssI390
(dp1174
g2
S'A5170'
p1175
sg4
I390
sg5
S'J Donald'
p1176
ssI391
(dp1177
g2
S'A5142'
p1178
sg4
I391
sg5
S'J Rosenblatt'
p1179
ssI392
(dp1180
g2
S'A1570'
p1181
sg4
I392
sg5
S'A Benton'
p1182
ssI393
(dp1183
g2
S'A4992'
p1184
sg4
I393
sg5
S'N Amato'
p1185
ssI394
(dp1186
g2
S'A4993'
p1187
sg4
I394
sg5
S'Y Wu'
p1188
ssI395
(dp1189
g2
S'A4990'
p1190
sg4
I395
sg5
S'A Balluchi'
p1191
ssI396
(dp1192
g2
S'A4991'
p1193
sg4
I396
sg5
S'L Crawford'
p1194
ssI397
(dp1195
g2
S'A4996'
p1196
sg4
I397
sg5
S'K Schulten'
p1197
ssI398
(dp1198
g2
S'A4997'
p1199
sg4
I398
sg5
S'A Henshaw'
p1200
ssI399
(dp1201
g2
S'A4994'
p1202
sg4
I399
sg5
S'K Simsariany'
p1203
ssI400
(dp1204
g2
S'A4995'
p1205
sg4
I400
sg5
S'M Mataricz'
p1206
ssI401
(dp1207
g2
S'A17979'
p1208
sg4
I401
sg5
S'J Judy'
p1209
ssI402
(dp1210
g2
S'A4998'
p1211
sg4
I402
sg5
S'E Nitz'
p1212
ssI403
(dp1213
g2
S'A4999'
p1214
sg4
I403
sg5
S'D Rodriguez'
p1215
ssI404
(dp1216
g2
S'A5131'
p1217
sg4
I404
sg5
S'J Rus'
p1218
ssI405
(dp1219
g2
S'A4596'
p1220
sg4
I405
sg5
S'S Gutmann'
p1221
ssI406
(dp1222
g2
S'A17621'
p1223
sg4
I406
sg5
S'K Street'
p1224
ssI407
(dp1225
g2
S'A19212'
p1226
sg4
I407
sg5
S'J Schielen'
p1227
ssI408
(dp1228
g2
S'A19213'
p1229
sg4
I408
sg5
S'J Armstrong'
p1230
ssI409
(dp1231
g2
S'A19210'
p1232
sg4
I409
sg5
S'E Dickmanns'
p1233
ssI410
(dp1234
g2
S'A19211'
p1235
sg4
I410
sg5
S'R Behringer'
p1236
ssI411
(dp1237
g2
S'A19216'
p1238
sg4
I411
sg5
S'H Nagel'
p1239
ssI412
(dp1240
g2
S'A19217'
p1241
sg4
I412
sg5
S'G Siegle'
p1242
ssI413
(dp1243
g2
S'A19214'
p1244
sg4
I413
sg5
S'G Struck'
p1245
ssI414
(dp1246
g2
S'A19215'
p1247
sg4
I414
sg5
S'F Laubenstein'
p1248
ssI415
(dp1249
g2
S'A19218'
p1250
sg4
I415
sg5
S'J Zhang'
p1251
ssI416
(dp1252
g2
S'A219'
p1253
sg4
I416
sg5
S'R Motwani'
p1254
ssI417
(dp1255
g2
S'A5148'
p1256
sg4
I417
sg5
S'S Shankar'
p1257
ssI418
(dp1258
g2
S'A1051'
p1259
sg4
I418
sg5
S'C Dyer'
p1260
ssI419
(dp1261
g2
S'A4573'
p1262
sg4
I419
sg5
S'T Camus'
p1263
ssI420
(dp1264
g2
S'A4574'
p1265
sg4
I420
sg5
S'H Kitano'
p1266
ssI421
(dp1267
g2
S'A4575'
p1268
sg4
I421
sg5
S'M Asada'
p1269
ssI422
(dp1270
g2
S'A4576'
p1271
sg4
I422
sg5
S'Y Kuniyoshi'
p1272
ssI423
(dp1273
g2
S'A4577'
p1274
sg4
I423
sg5
S'I Noda'
p1275
ssI424
(dp1276
g2
S'A4578'
p1277
sg4
I424
sg5
S'E Osawa'
p1278
ssI425
(dp1279
g2
S'A4579'
p1280
sg4
I425
sg5
S'D Ma'
p1281
ssI426
(dp1282
g2
S'A2718'
p1283
sg4
I426
sg5
S'R Peter'
p1284
ssI427
(dp1285
g2
S'A1888'
p1286
sg4
I427
sg5
S'M Lin'
p1287
ssI428
(dp1288
g2
S'A4777'
p1289
sg4
I428
sg5
S'L Edinburgh'
p1290
ssI429
(dp1291
g2
S'A4770'
p1292
sg4
I429
sg5
S'S Sklorz'
p1293
ssI430
(dp1294
g2
S'A4915'
p1295
sg4
I430
sg5
S'T Collins'
p1296
ssI431
(dp1297
g2
S'A4778'
p1298
sg4
I431
sg5
S'P Michelman'
p1299
ssI432
(dp1300
g2
S'A4779'
p1301
sg4
I432
sg5
S'P Allen'
p1302
ssI433
(dp1303
g2
S'A12767'
p1304
sg4
I433
sg5
S'M Husty'
p1305
ssI434
(dp1306
g2
S'A12768'
p1307
sg4
I434
sg5
S'P Canet'
p1308
ssI435
(dp1309
g2
S'A1532'
p1310
sg4
I435
sg5
S'C Atkeson'
p1311
ssI436
(dp1312
g2
S'A5528'
p1313
sg4
I436
sg5
S'V Bhatt'
p1314
ssI437
(dp1315
g2
S'A5482'
p1316
sg4
I437
sg5
S'C Wentink'
p1317
ssI438
(dp1318
g2
S'A20910'
p1319
sg4
I438
sg5
S'P Henri'
p1320
ssI439
(dp1321
g2
S'A10280'
p1322
sg4
I439
sg5
S'S Garibaldi'
p1323
ssI440
(dp1324
g2
S'A3530'
p1325
sg4
I440
sg5
S'R Dillmann'
p1326
ssI441
(dp1327
g2
S'A1530'
p1328
sg4
I441
sg5
S'K Schwan'
p1329
ssI442
(dp1330
g2
S'A3929'
p1331
sg4
I442
sg5
S'V Balakrishnan'
p1332
ssI443
(dp1333
g2
S'A3539'
p1334
sg4
I443
sg5
S'F Mondada'
p1335
ssI444
(dp1336
g2
S'A5195'
p1337
sg4
I444
sg5
S'J Houk'
p1338
ssI445
(dp1339
g2
S'A5194'
p1340
sg4
I445
sg5
S'N Sitkoff'
p1341
ssI446
(dp1342
g2
S'A5197'
p1343
sg4
I446
sg5
S'M Tax'
p1344
ssI447
(dp1345
g2
S'A5196'
p1346
sg4
I447
sg5
S'J Laumond'
p1347
ssI448
(dp1348
g2
S'A1020'
p1349
sg4
I448
sg5
S'H Murase'
p1350
ssI449
(dp1351
g2
S'A5193'
p1352
sg4
I449
sg5
S'A Hayashi'
p1353
ssI450
(dp1354
g2
S'A5055'
p1355
sg4
I450
sg5
S'G Chirikjian'
p1356
ssI451
(dp1357
g2
S'A5056'
p1358
sg4
I451
sg5
S'K Kluge'
p1359
ssI452
(dp1360
g2
S'A5057'
p1361
sg4
I452
sg5
S'S Epstein'
p1362
ssI453
(dp1363
g2
S'A5050'
p1364
sg4
I453
sg5
S'H VanBrusselz'
p1365
ssI454
(dp1366
g2
S'A5198'
p1367
sg4
I454
sg5
S'P Jacobs'
p1368
ssI455
(dp1369
g2
S'A5052'
p1370
sg4
I455
sg5
S'P Gunatilake'
p1371
ssI456
(dp1372
g2
S'A1691'
p1373
sg4
I456
sg5
S'P Dr'
p1374
ssI457
(dp1375
g2
S'A17575'
p1376
sg4
I457
sg5
S'L Benvenuti'
p1377
ssI458
(dp1378
g2
S'A18534'
p1379
sg4
I458
sg5
S'V Utkin'
p1380
ssI459
(dp1381
g2
S'A17624'
p1382
sg4
I459
sg5
S'S Sorkin'
p1383
ssI460
(dp1384
g2
S'A14278'
p1385
sg4
I460
sg5
S'J Craig'
p1386
ssI461
(dp1387
g2
S'A3289'
p1388
sg4
I461
sg5
S'T Lee'
p1389
ssI462
(dp1390
g2
S'A5064'
p1391
sg4
I462
sg5
S'D Hsu'
p1392
ssI463
(dp1393
g2
S'A3991'
p1394
sg4
I463
sg5
S'R Hubbold'
p1395
ssI464
(dp1396
g2
S'A3445'
p1397
sg4
I464
sg5
S'F Smieja'
p1398
ssI465
(dp1399
g2
S'A3444'
p1400
sg4
I465
sg5
S'A Dubrawski'
p1401
ssI466
(dp1402
g2
S'A972'
p1403
sg4
I466
sg5
S'L Holder'
p1404
ssI467
(dp1405
g2
S'A971'
p1406
sg4
I467
sg5
S'D Cook'
p1407
ssI468
(dp1408
g2
S'A4800'
p1409
sg4
I468
sg5
S'P Kenny'
p1410
ssI469
(dp1411
g2
S'A4801'
p1412
sg4
I469
sg5
S'P Xavier'
p1413
ssI470
(dp1414
g2
S'A4802'
p1415
sg4
I470
sg5
S'P Svestka'
p1416
ssI471
(dp1417
g2
S'A4803'
p1418
sg4
I471
sg5
S'J Vleugels'
p1419
ssI472
(dp1420
g2
S'A4804'
p1421
sg4
I472
sg5
S'L Kavraki'
p1422
ssI473
(dp1423
g2
S'A4805'
p1424
sg4
I473
sg5
S'K Mangis'
p1425
ssI474
(dp1426
g2
S'A4806'
p1427
sg4
I474
sg5
S'D Baker'
p1428
ssI475
(dp1429
g2
S'A4807'
p1430
sg4
I475
sg5
S'T Weymouth'
p1431
ssI476
(dp1432
g2
S'A6020'
p1433
sg4
I476
sg5
S'P Gmytrasiewicz'
p1434
ssI477
(dp1435
g2
S'A4809'
p1436
sg4
I477
sg5
S'I Park'
p1437
ssI478
(dp1438
g2
S'A9747'
p1439
sg4
I478
sg5
S'R Muller'
p1440
ssI479
(dp1441
g2
S'A6558'
p1442
sg4
I479
sg5
S'D Godbole'
p1443
ssI480
(dp1444
g2
S'A4606'
p1445
sg4
I480
sg5
S',M Terry'
p1446
ssI481
(dp1447
g2
S'A4607'
p1448
sg4
I481
sg5
S'B Nnaji'
p1449
ssI482
(dp1450
g2
S'A4604'
p1451
sg4
I482
sg5
S'M Kamran'
p1452
ssI483
(dp1453
g2
S'A4605'
p1454
sg4
I483
sg5
S'S Yeh'
p1455
ssI484
(dp1456
g2
S'A4602'
p1457
sg4
I484
sg5
S'Z Mason'
p1458
ssI485
(dp1459
g2
S'A4603'
p1460
sg4
I485
sg5
S'K Goldberg'
p1461
ssI486
(dp1462
g2
S'A4601'
p1463
sg4
I486
sg5
S'V Zordan'
p1464
ssI487
(dp1465
g2
S'A3213'
p1466
sg4
I487
sg5
S'D Wolpert'
p1467
ssI488
(dp1468
g2
S'A3214'
p1469
sg4
I488
sg5
S'Z Ghahramani'
p1470
ssI489
(dp1471
g2
S'A1669'
p1472
sg4
I489
sg5
S'M Swain'
p1473
ssI490
(dp1474
g2
S'A4896'
p1475
sg4
I490
sg5
S'M Mason'
p1476
ssI491
(dp1477
g2
S'A4895'
p1478
sg4
I491
sg5
S'S Akella'
p1479
ssI492
(dp1480
g2
S'A4891'
p1481
sg4
I492
sg5
S'J Osborn'
p1482
ssI493
(dp1483
g2
S'A4890'
p1484
sg4
I493
sg5
S'R Hoffman'
p1485
ssI494
(dp1486
g2
S'A13328'
p1487
sg4
I494
sg5
S'R Mihailovich'
p1488
ssI495
(dp1489
g2
S'A13329'
p1490
sg4
I495
sg5
S'D Noel'
p1491
ssI496
(dp1492
g2
S'A4875'
p1493
sg4
I496
sg5
S'B Eberman'
p1494
ssI497
(dp1495
g2
S'A4874'
p1496
sg4
I497
sg5
S'R Graf'
p1497
ssI498
(dp1498
g2
S'A4877'
p1499
sg4
I498
sg5
S'D Tilbury'
p1500
ssI499
(dp1501
g2
S'A4876'
p1502
sg4
I499
sg5
S'H Manuela'
p1503
ssI500
(dp1504
g2
S'A4979'
p1505
sg4
I500
sg5
S'Y Koga'
p1506
ssI501
(dp1507
g2
S'A4873'
p1508
sg4
I501
sg5
S'H Shatkay'
p1509
ssI502
(dp1510
g2
S'A4974'
p1511
sg4
I502
sg5
S'R Fearing'
p1512
ssI503
(dp1513
g2
S'A4975'
p1514
sg4
I503
sg5
S'Y Ma'
p1515
ssI504
(dp1516
g2
S'A5085'
p1517
sg4
I504
sg5
S'H Vanbrussel'
p1518
ssI505
(dp1519
g2
S'A6051'
p1520
sg4
I505
sg5
S'W Liu'
p1521
ssI506
(dp1522
g2
S'A4878'
p1523
sg4
I506
sg5
S'R Murray'
p1524
ssI507
(dp1525
g2
S'A2619'
p1526
sg4
I507
sg5
S'T Balch'
p1527
ssI508
(dp1528
g2
S'A2965'
p1529
sg4
I508
sg5
S'O Miglino'
p1530
ssI509
(dp1531
g2
S'A2615'
p1532
sg4
I509
sg5
S'J Santamara'
p1533
ssI510
(dp1534
g2
S'A12137'
p1535
sg4
I510
sg5
S'E Ferguson'
p1536
ssI511
(dp1537
g2
S'A3066'
p1538
sg4
I511
sg5
S'M Torrance'
p1539
ssI512
(dp1540
g2
S'A8767'
p1541
sg4
I512
sg5
S'R Lee'
p1542
ssI513
(dp1543
g2
S'A3061'
p1544
sg4
I513
sg5
S'H Hautop'
p1545
ssI514
(dp1546
g2
S'A18920'
p1547
sg4
I514
sg5
S'B Carlisle'
p1548
ssI515
(dp1549
g2
S'A4732'
p1550
sg4
I515
sg5
S'J Hallam'
p1551
ssI516
(dp1552
g2
S'A4731'
p1553
sg4
I516
sg5
S'C Breazeal'
p1554
ssI517
(dp1555
g2
S'A18929'
p1556
sg4
I517
sg5
S'M Grasps'
p1557
ssI518
(dp1558
g2
S'A4735'
p1559
sg4
I518
sg5
S'T Lueth'
p1560
ssI519
(dp1561
g2
S'A325'
p1562
sg4
I519
sg5
S'S Thrun'
p1563
ssI520
(dp1564
g2
S'A7372'
p1565
sg4
I520
sg5
S'S Venkataraman'
p1566
ssI521
(dp1567
g2
S'A5010'
p1568
sg4
I521
sg5
S'R Kahn'
p1569
ssI522
(dp1570
g2
S'A5011'
p1571
sg4
I522
sg5
S'P Prokopowicz'
p1572
ssI523
(dp1573
g2
S'A5012'
p1574
sg4
I523
sg5
S'R James'
p1575
ssI524
(dp1576
g2
S'A3608'
p1577
sg4
I524
sg5
S'P Gaussier'
p1578
ssI525
(dp1579
g2
S'A5014'
p1580
sg4
I525
sg5
S'J Nakanishi'
p1581
ssI526
(dp1582
g2
S'A5015'
p1583
sg4
I526
sg5
S'T Fukuda'
p1584
ssI527
(dp1585
g2
S'A5016'
p1586
sg4
I527
sg5
S'J Rogers'
p1587
ssI528
(dp1588
g2
S'A4279'
p1589
sg4
I528
sg5
S'M Smith'
p1590
ssI529
(dp1591
g2
S'A5000'
p1592
sg4
I529
sg5
S'K Ward'
p1593
ssI530
(dp1594
g2
S'A5051'
p1595
sg4
I530
sg5
S'J Roselly'
p1596
ssI531
(dp1597
g2
S'A2680'
p1598
sg4
I531
sg5
S'U Nehmzow'
p1599
ssI532
(dp1600
g2
S'A4422'
p1601
sg4
I532
sg5
S'B Svensson'
p1602
ssI533
(dp1603
g2
S'A4421'
p1604
sg4
I533
sg5
S'M Kruusmaa'
p1605
ssI534
(dp1606
g2
S'A2688'
p1607
sg4
I534
sg5
S'J Schneider'
p1608
ssI535
(dp1609
g2
S'A2761'
p1610
sg4
I535
sg5
S'J VanDam'
p1611
ssI536
(dp1612
g2
S'A20917'
p1613
sg4
I536
sg5
S'y Zhang'
p1614
ssI537
(dp1615
g2
S'A1067'
p1616
sg4
I537
sg5
S'A Fukunaga'
p1617
ssI538
(dp1618
g2
S'A17619'
p1619
sg4
I538
sg5
S'K Peters'
p1620
ssI539
(dp1621
g2
S'A17620'
p1622
sg4
I539
sg5
S'L Ltd'
p1623
ssI540
(dp1624
g2
S'A5013'
p1625
sg4
I540
sg5
S'J Dan'
p1626
ssI541
(dp1627
g2
S'A5450'
p1628
sg4
I541
sg5
S'S Ravela'
p1629
ssI542
(dp1630
g2
S'A5053'
p1631
sg4
I542
sg5
S'G Podnar'
p1632
ssI543
(dp1633
g2
S'A3794'
p1634
sg4
I543
sg5
S'A Brooks'
p1635
ssI544
(dp1636
g2
S'A20916'
p1637
sg4
I544
sg5
S'D Johnston'
p1638
ssI545
(dp1639
g2
S'A12750'
p1640
sg4
I545
sg5
S'F CervantesPerez'
p1641
ssI546
(dp1642
g2
S'A5190'
p1643
sg4
I546
sg5
S'C Paredis'
p1644
ssI547
(dp1645
g2
S'A17578'
p1646
sg4
I547
sg5
S'P Kokotovic'
p1647
ssI548
(dp1648
g2
S'A4688'
p1649
sg4
I548
sg5
S'E Sacks'
p1650
ssI549
(dp1651
g2
S'A3364'
p1652
sg4
I549
sg5
S'M Huber'
p1653
ssI550
(dp1654
g2
S'A17577'
p1655
sg4
I550
sg5
S'B Paden'
p1656
ssI551
(dp1657
g2
S'A17576'
p1658
sg4
I551
sg5
S'S Devasia'
p1659
ssI552
(dp1660
g2
S'A1666'
p1661
sg4
I552
sg5
S'M Brown'
p1662
ssI553
(dp1663
g2
S'A5069'
p1664
sg4
I553
sg5
S'J Cameron'
p1665
ssI554
(dp1666
g2
S'A2462'
p1667
sg4
I554
sg5
S'W Shen'
p1668
ssI555
(dp1669
g2
S'A14079'
p1670
sg4
I555
sg5
S'A Woo'
p1671
ssI556
(dp1672
g2
S'A11798'
p1673
sg4
I556
sg5
S'J Hauser'
p1674
ssI557
(dp1675
g2
S'A11871'
p1676
sg4
I557
sg5
S'F Zhao'
p1677
ssI558
(dp1678
g2
S'A1933'
p1679
sg4
I558
sg5
S'R Hollis'
p1680
ssI559
(dp1681
g2
S'A4646'
p1682
sg4
I559
sg5
S'H Hirukawa'
p1683
ssI560
(dp1684
g2
S'A4647'
p1685
sg4
I560
sg5
S'H GonzalezBa'
p1686
ssI561
(dp1687
g2
S'A4645'
p1688
sg4
I561
sg5
S'D Halperin'
p1689
ssI562
(dp1690
g2
S'A1042'
p1691
sg4
I562
sg5
S'A Jordan'
p1692
ssI563
(dp1693
g2
S'A18839'
p1694
sg4
I563
sg5
S'J Jitendra'
p1695
ssI564
(dp1696
g2
S'A16033'
p1697
sg4
I564
sg5
S'B Mitchell'
p1698
ssI565
(dp1699
g2
S'A22357'
p1700
sg4
I565
sg5
S'B Birkhanser'
p1701
ssI566
(dp1702
g2
S'A3702'
p1703
sg4
I566
sg5
S'O Fuentes'
p1704
ssI567
(dp1705
g2
S'A4533'
p1706
sg4
I567
sg5
S'J Angeles'
p1707
ssI568
(dp1708
g2
S'A4931'
p1709
sg4
I568
sg5
S'M Pradeep'
p1710
ssI569
(dp1711
g2
S'A4932'
p1712
sg4
I569
sg5
S'K Khosla'
p1713
ssI570
(dp1714
g2
S'A4933'
p1715
sg4
I570
sg5
S'L Saksida'
p1716
ssI571
(dp1717
g2
S'A442'
p1718
sg4
I571
sg5
S'R Rivest'
p1719
ssI572
(dp1720
g2
S'A18918'
p1721
sg4
I572
sg5
S'Y Zhuang'
p1722
ssI573
(dp1723
g2
S'A18919'
p1724
sg4
I573
sg5
S'R Zanutta'
p1725
ssI574
(dp1726
g2
S'A10177'
p1727
sg4
I574
sg5
S'M Di'
p1728
ssI575
(dp1729
g2
S'A18855'
p1730
sg4
I575
sg5
S'D Berkowitz'
p1731
ssI576
(dp1732
g2
S'A4838'
p1733
sg4
I576
sg5
S'C Becker'
p1734
ssI577
(dp1735
g2
S'A6162'
p1736
sg4
I577
sg5
S'R Paul'
p1737
ssI578
(dp1738
g2
S'A2924'
p1739
sg4
I578
sg5
S'W Adams'
p1740
ssI579
(dp1741
g2
S'A5606'
p1742
sg4
I579
sg5
S'J SantosVictor'
p1743
ssI580
(dp1744
g2
S'A5160'
p1745
sg4
I580
sg5
S'N Pollard'
p1746
ssI581
(dp1747
g2
S'A4830'
p1748
sg4
I581
sg5
S'G Bekey'
p1749
ssI582
(dp1750
g2
S'A14076'
p1751
sg4
I582
sg5
S'J Trinkle'
p1752
ssI583
(dp1753
g2
S'A1569'
p1754
sg4
I583
sg5
S'B Stephen'
p1755
ssI584
(dp1756
g2
S'A6567'
p1757
sg4
I584
sg5
S'R Isukapalli'
p1758
ssI585
(dp1759
g2
S'A598'
p1760
sg4
I585
sg5
S'A Blum'
p1761
ssI586
(dp1762
g2
S'A3635'
p1763
sg4
I586
sg5
S'M Williamson'
p1764
ssI587
(dp1765
g2
S'A5168'
p1766
sg4
I587
sg5
S'J Gowdy'
p1767
ssI588
(dp1768
g2
S'A3631'
p1769
sg4
I588
sg5
S'I Davis'
p1770
ssI589
(dp1771
g2
S'A1362'
p1772
sg4
I589
sg5
S'Y Wang'
p1773
ssI590
(dp1774
g2
S'A6696'
p1775
sg4
I590
sg5
S'O Rogalla'
p1776
ssI591
(dp1777
g2
S'A360'
p1778
sg4
I591
sg5
S'E Durfee'
p1779
ssI592
(dp1780
g2
S'A1422'
p1781
sg4
I592
sg5
S'Z Li'
p1782
ssI593
(dp1783
g2
S'A368'
p1784
sg4
I593
sg5
S'X Cheng'
p1785
ssI594
(dp1786
g2
S'A4946'
p1787
sg4
I594
sg5
S'B Yoshimi'
p1788
ssI595
(dp1789
g2
S'A11577'
p1790
sg4
I595
sg5
S'G Kovacs'
p1791
ssI596
(dp1792
g2
S'A19209'
p1793
sg4
I596
sg5
S'J Crisman'
p1794
ssI597
(dp1795
g2
S'A6126'
p1796
sg4
I597
sg5
S'A Wallack'
p1797
ssI598
(dp1798
g2
S'A2645'
p1799
sg4
I598
sg5
S'M Kaiser'
p1800
ssI599
(dp1801
g2
S'A10688'
p1802
sg4
I599
sg5
S'M Douglas'
p1803
ssI600
(dp1804
g2
S'A3701'
p1805
sg4
I600
sg5
S'R Rao'
p1806
ssI601
(dp1807
g2
S'A2641'
p1808
sg4
I601
sg5
S'M Jordan'
p1809
ssI602
(dp1810
g2
S'A4867'
p1811
sg4
I602
sg5
S'A Boelen'
p1812
ssI603
(dp1813
g2
S'A5115'
p1814
sg4
I603
sg5
S'S Zhai'
p1815
ssI604
(dp1816
g2
S'A14113'
p1817
sg4
I604
sg5
S'M Peshkin'
p1818
ssI605
(dp1819
g2
S'A4587'
p1820
sg4
I605
sg5
S'M Bergerman'
p1821
ssI606
(dp1822
g2
S'A5116'
p1823
sg4
I606
sg5
S'P Milgram'
p1824
ssI607
(dp1825
g2
S'A5111'
p1826
sg4
I607
sg5
S'P Ienne'
p1827
ssI608
(dp1828
g2
S'A5110'
p1829
sg4
I608
sg5
S'E Franzi'
p1830
ssI609
(dp1831
g2
S'A2721'
p1832
sg4
I609
sg5
S'P Stone'
p1833
ssI610
(dp1834
g2
S'A14115'
p1835
sg4
I610
sg5
S'D Whitney'
p1836
ssI611
(dp1837
g2
S'A4743'
p1838
sg4
I611
sg5
S'C Owen'
p1839
ssI612
(dp1840
g2
S'A4742'
p1841
sg4
I612
sg5
S'B Scassellati'
p1842
ssI613
(dp1843
g2
S'A4741'
p1844
sg4
I613
sg5
S'M Jagersand'
p1845
ssI614
(dp1846
g2
S'A4740'
p1847
sg4
I614
sg5
S'R Gans'
p1848
ssI615
(dp1849
g2
S'A4747'
p1850
sg4
I615
sg5
S'A Rudiger'
p1851
ssI616
(dp1852
g2
S'A4744'
p1853
sg4
I616
sg5
S'T Duckett'
p1854
ssI617
(dp1855
g2
S'A5155'
p1856
sg4
I617
sg5
S'A Drogoul'
p1857
ssI618
(dp1858
g2
S'A4749'
p1859
sg4
I618
sg5
S'V Lumelsky'
p1860
ssI619
(dp1861
g2
S'A4748'
p1862
sg4
I619
sg5
S'K Kutulakos'
p1863
ssI620
(dp1864
g2
S'A1104'
p1865
sg4
I620
sg5
S'J Salisbury'
p1866
ssI621
(dp1867
g2
S'A5154'
p1868
sg4
I621
sg5
S'B Werger'
p1869
ssI622
(dp1870
g2
S'A20142'
p1871
sg4
I622
sg5
S'G Salgian'
p1872
ssI623
(dp1873
g2
S'A5157'
p1874
sg4
I623
sg5
S'H Sho'
p1875
ssI624
(dp1876
g2
S'A5156'
p1877
sg4
I624
sg5
S'D Duhaut'
p1878
ssI625
(dp1879
g2
S'A5103'
p1880
sg4
I625
sg5
S'K Gupta'
p1881
ssI626
(dp1882
g2
S'A5158'
p1883
sg4
I626
sg5
S'A Schweikard'
p1884
ssI627
(dp1885
g2
S'A10297'
p1886
sg4
I627
sg5
S'S Badal'
p1887
ssI628
(dp1888
g2
S'A4458'
p1889
sg4
I628
sg5
S'K Ali'
p1890
ssI629
(dp1891
g2
S'A16921'
p1892
sg4
I629
sg5
S'N Ahuja'
p1893
ssI630
(dp1894
g2
S'A16920'
p1895
sg4
I630
sg5
S'J Weng'
p1896
ssI631
(dp1897
g2
S'A10197'
p1898
sg4
I631
sg5
S'B Nelson'
p1899
ssI632
(dp1900
g2
S'A3524'
p1901
sg4
I632
sg5
S'H Sussmann'
p1902
ssI633
(dp1903
g2
S'A3525'
p1904
sg4
I633
sg5
S'E Sontag'
p1905
ssI634
(dp1906
g2
S'A3529'
p1907
sg4
I634
sg5
S'A Retey'
p1908
ssI635
(dp1909
g2
S'A4516'
p1910
sg4
I635
sg5
S'R Nelson'
p1911
ssI636
(dp1912
g2
S'A4512'
p1913
sg4
I636
sg5
S'P Utgoff'
p1914
ssI637
(dp1915
g2
S'A5180'
p1916
sg4
I637
sg5
S'F Brill'
p1917
ssI638
(dp1918
g2
S'A4691'
p1919
sg4
I638
sg5
S'W Wright'
p1920
ssI639
(dp1921
g2
S'A2030'
p1922
sg4
I639
sg5
S'B Mirtich'
p1923
ssI640
(dp1924
g2
S'A5025'
p1925
sg4
I640
sg5
S'H Wan'
p1926
ssI641
(dp1927
g2
S'A5027'
p1928
sg4
I641
sg5
S'Z Butler'
p1929
ssI642
(dp1930
g2
S'A5026'
p1931
sg4
I642
sg5
S'P Berkelman'
p1932
ssI643
(dp1933
g2
S'A4707'
p1934
sg4
I643
sg5
S'C Baroglio'
p1935
ssI644
(dp1936
g2
S'A3351'
p1937
sg4
I644
sg5
S'D Fox'
p1938
ssI645
(dp1939
g2
S'A3350'
p1940
sg4
I645
sg5
S'A Cremers'
p1941
ssI646
(dp1942
g2
S'A16147'
p1943
sg4
I646
sg5
S'L Katragadda'
p1944
ssI647
(dp1945
g2
S'A22359'
p1946
sg4
I647
sg5
S'A Lindquist'
p1947
ssI648
(dp1948
g2
S'A14479'
p1949
sg4
I648
sg5
S'J Pang'
p1950
ssI649
(dp1951
g2
S'A5467'
p1952
sg4
I649
sg5
S'R Blasi'
p1953
ssI650
(dp1954
g2
S'A5466'
p1955
sg4
I650
sg5
S'K Yip'
p1956
ssI651
(dp1957
g2
S'A3596'
p1958
sg4
I651
sg5
S'J Racz'
p1959
ssI652
(dp1960
g2
S'A2101'
p1961
sg4
I652
sg5
S'M Teichmann'
p1962
ssI653
(dp1963
g2
S'A2515'
p1964
sg4
I653
sg5
S'E Bradley'
p1965
ssI654
(dp1966
g2
S'A3265'
p1967
sg4
I654
sg5
S'L Davis'
p1968
ssI655
(dp1969
g2
S'A4580'
p1970
sg4
I655
sg5
S'J Hollerbach'
p1971
ssI656
(dp1972
g2
S'A410'
p1973
sg4
I656
sg5
S'R Smith'
p1974
ssI657
(dp1975
g2
S'A2812'
p1976
sg4
I657
sg5
S'D Goldberg'
p1977
ssI658
(dp1978
g2
S'A4633'
p1979
sg4
I658
sg5
S'P Scudder'
p1980
ssI659
(dp1981
g2
S'A4632'
p1982
sg4
I659
sg5
S'F Wallner'
p1983
ssI660
(dp1984
g2
S'A4631'
p1985
sg4
I660
sg5
S'E Hall'
p1986
ssI661
(dp1987
g2
S'A4630'
p1988
sg4
I661
sg5
S'D Parsons'
p1989
ssI662
(dp1990
g2
S'A4636'
p1991
sg4
I662
sg5
S'B Yamauchi'
p1992
ssI663
(dp1993
g2
S'A4634'
p1994
sg4
I663
sg5
S'M Gimovsky'
p1995
ssI664
(dp1996
g2
S'A4888'
p1997
sg4
I664
sg5
S'J Wang'
p1998
ssI665
(dp1999
g2
S'A4889'
p2000
sg4
I665
sg5
S'P Leger'
p2001
ssI666
(dp2002
g2
S'A4880'
p2003
sg4
I666
sg5
S'J Barraquand'
p2004
ssI667
(dp2005
g2
S'A4881'
p2006
sg4
I667
sg5
S'T Li'
p2007
ssI668
(dp2008
g2
S'A4882'
p2009
sg4
I668
sg5
S'W Hong'
p2010
ssI669
(dp2011
g2
S'A4883'
p2012
sg4
I669
sg5
S'L Lorigo'
p2013
ssI670
(dp2014
g2
S'A4884'
p2015
sg4
I670
sg5
S'W Grimson'
p2016
ssI671
(dp2017
g2
S'A4885'
p2018
sg4
I671
sg5
S'K Han'
p2019
ssI672
(dp2020
g2
S'A4886'
p2021
sg4
I672
sg5
S'A Nahvi'
p2022
ssI673
(dp2023
g2
S'A4887'
p2024
sg4
I673
sg5
S'V Hayward'
p2025
ssI674
(dp2026
g2
S'A13333'
p2027
sg4
I674
sg5
S'R Prasad'
p2028
ssI675
(dp2029
g2
S'A13331'
p2030
sg4
I675
sg5
S'N Donald'
p2031
ssI676
(dp2032
g2
S'A13330'
p2033
sg4
I676
sg5
S'C MacDonald'
p2034
ssI677
(dp2035
g2
S'A6167'
p2036
sg4
I677
sg5
S'J Lygeros'
p2037
ssI678
(dp2038
g2
S'A13334'
p2039
sg4
I678
sg5
S'K Noel'
p2040
ssI679
(dp2041
g2
S'A6168'
p2042
sg4
I679
sg5
S'G Pappas'
p2043
ssI680
(dp2044
g2
S'A4866'
p2045
sg4
I680
sg5
S'G Canepa'
p2046
ssI681
(dp2047
g2
S'A4908'
p2048
sg4
I681
sg5
S'O Khatib'
p2049
ssI682
(dp2050
g2
S'A5153'
p2051
sg4
I682
sg5
S'G Pratt'
p2052
ssI683
(dp2053
g2
S'A5152'
p2054
sg4
I683
sg5
S'P Dilworth'
p2055
ssI684
(dp2056
g2
S'A4862'
p2057
sg4
I684
sg5
S'K Khodabandehloo'
p2058
ssI685
(dp2059
g2
S'A4863'
p2060
sg4
I685
sg5
S'S Tomlinson'
p2061
ssI686
(dp2062
g2
S'A4860'
p2063
sg4
I686
sg5
S'T Kameda'
p2064
ssI687
(dp2065
g2
S'A4861'
p2066
sg4
I687
sg5
S'R Buckingham'
p2067
ssI688
(dp2068
g2
S'A4901'
p2069
sg4
I688
sg5
S'M Rosenstein'
p2070
ssI689
(dp2071
g2
S'A4900'
p2072
sg4
I689
sg5
S'M Schmill'
p2073
ssI690
(dp2074
g2
S'A4903'
p2075
sg4
I690
sg5
S'B McGonigle'
p2076
ssI691
(dp2077
g2
S'A4902'
p2078
sg4
I691
sg5
S'D MacKenzie'
p2079
ssI692
(dp2080
g2
S'A4904'
p2081
sg4
I692
sg5
S'L Bushnell'
p2082
ssI693
(dp2083
g2
S'A4868'
p2084
sg4
I693
sg5
S'M Hebert'
p2085
ssI694
(dp2086
g2
S'A4869'
p2087
sg4
I694
sg5
S'K Lynch'
p2088
ssI695
(dp2089
g2
S'A2608'
p2090
sg4
I695
sg5
S'A Barto'
p2091
ssI696
(dp2092
g2
S'A4706'
p2093
sg4
I696
sg5
S'C Ferrell'
p2094
ssI697
(dp2095
g2
S'A4704'
p2096
sg4
I697
sg5
S'M Marjanovic'
p2097
ssI698
(dp2098
g2
S'A4702'
p2099
sg4
I698
sg5
S'S Tejada'
p2100
ssI699
(dp2101
g2
S'A4701'
p2102
sg4
I699
sg5
S'B Salemi'
p2103
ssI700
(dp2104
g2
S'A4700'
p2105
sg4
I700
sg5
S'H Moradi'
p2106
ssI701
(dp2107
g2
S'A8805'
p2108
sg4
I701
sg5
S'W Feiten'
p2109
ssI702
(dp2110
g2
S'A8806'
p2111
sg4
I702
sg5
S'J Bauer'
p2112
ssI703
(dp2113
g2
S'A4751'
p2114
sg4
I703
sg5
S'J Demiris'
p2115
ssI704
(dp2116
g2
S'A834'
p2117
sg4
I704
sg5
S'J Vitter'
p2118
ssI705
(dp2119
g2
S'A3562'
p2120
sg4
I705
sg5
S'D Pomerleau'
p2121
ss.