(dp0
I0
(dp1
S'dataID'
p2
S'n2041'
p3
sS'nodetrixID'
p4
I0
sS'name'
p5
S'HARMONY'
p6
ssI1
(dp7
g2
S'n1818'
p8
sg4
I1
sg5
S'FUNERAL'
p9
ssI2
(dp10
g2
S'n2047'
p11
sg4
I2
sg5
S'HATCHET'
p12
ssI3
(dp13
g2
S'n1385'
p14
sg4
I3
sg5
S'DRUM'
p15
ssI4
(dp16
g2
S'n3507'
p17
sg4
I4
sg5
S'RADIO'
p18
ssI5
(dp19
g2
S'n765'
p20
sg4
I5
sg5
S'CHIME'
p21
ssI6
(dp22
g2
S'n2181'
p23
sg4
I6
sg5
S'HUM'
p24
ssI7
(dp25
g2
S'n2042'
p26
sg4
I7
sg5
S'HARP'
p27
ssI8
(dp28
g2
S'n3028'
p29
sg4
I8
sg5
S'ORCHESTRA'
p30
ssI9
(dp31
g2
S'n1715'
p32
sg4
I9
sg5
S'FLUTE'
p33
ssI10
(dp34
g2
S'n33'
p35
sg4
I10
sg5
S'ACT'
p36
ssI11
(dp37
g2
S'n4911'
p38
sg4
I11
sg5
S'WHISTLE'
p39
ssI12
(dp40
g2
S'n4910'
p41
sg4
I12
sg5
S'WHISPER'
p42
ssI13
(dp43
g2
S'n37'
p44
sg4
I13
sg5
S'ACTOR'
p45
ssI14
(dp46
g2
S'n4502'
p47
sg4
I14
sg5
S'THREAT'
p48
ssI15
(dp49
g2
S'n1148'
p50
sg4
I15
sg5
S'DEAD'
p51
ssI16
(dp52
g2
S'n633'
p53
sg4
I16
sg5
S'CANNON'
p54
ssI17
(dp55
g2
S'n3332'
p56
sg4
I17
sg5
S'PORTRAY'
p57
ssI18
(dp58
g2
S'n2978'
p59
sg4
I18
sg5
S'OBOE'
p60
ssI19
(dp61
g2
S'n1141'
p62
sg4
I19
sg5
S'DASHBOARD'
p63
ssI20
(dp64
g2
S'n3301'
p65
sg4
I20
sg5
S'POISON'
p66
ssI21
(dp67
g2
S'n435'
p68
sg4
I21
sg5
S'BLOW'
p69
ssI22
(dp70
g2
S'n4175'
p71
sg4
I22
sg5
S'SQUEAK'
p72
ssI23
(dp73
g2
S'n1028'
p74
sg4
I23
sg5
S'CRACKLE'
p75
ssI24
(dp76
g2
S'n4624'
p77
sg4
I24
sg5
S'TRIGGER'
p78
ssI25
(dp79
g2
S'n4052'
p80
sg4
I25
sg5
S'SMOTHER'
p81
ssI26
(dp82
g2
S'n4187'
p83
sg4
I26
sg5
S'STAGE'
p84
ssI27
(dp85
g2
S'n4629'
p86
sg4
I27
sg5
S'TROMBONE'
p87
ssI28
(dp88
g2
S'n4647'
p89
sg4
I28
sg5
S'TUBA'
p90
ssI29
(dp91
g2
S'n3104'
p92
sg4
I29
sg5
S'PARADE'
p93
ssI30
(dp94
g2
S'n1646'
p95
sg4
I30
sg5
S'FIDDLE'
p96
ssI31
(dp97
g2
S'n2293'
p98
sg4
I31
sg5
S'INSTRUMENT'
p99
ssI32
(dp100
g2
S'n3183'
p101
sg4
I32
sg5
S'PERFORMANCE'
p102
ssI33
(dp103
g2
S'n3182'
p104
sg4
I33
sg5
S'PERFORM'
p105
ssI34
(dp106
g2
S'n1558'
p107
sg4
I34
sg5
S'EXPLOSION'
p108
ssI35
(dp109
g2
S'n326'
p110
sg4
I35
sg5
S'BASS'
p111
ssI36
(dp112
g2
S'n1556'
p113
sg4
I36
sg5
S'EXPLODE'
p114
ssI37
(dp115
g2
S'n1092'
p116
sg4
I37
sg5
S'CUE'
p117
ssI38
(dp118
g2
S'n2340'
p119
sg4
I38
sg5
S'JAZZ'
p120
ssI39
(dp121
g2
S'n2192'
p122
sg4
I39
sg5
S'HUNTING'
p123
ssI40
(dp124
g2
S'n237'
p125
sg4
I40
sg5
S'ATTEMPT'
p126
ssI41
(dp127
g2
S'n1152'
p128
sg4
I41
sg5
S'DEATH'
p129
ssI42
(dp130
g2
S'n200'
p131
sg4
I42
sg5
S'ARROW'
p132
ssI43
(dp133
g2
S'n1150'
p134
sg4
I43
sg5
S'DEAF'
p135
ssI44
(dp136
g2
S'n119'
p137
sg4
I44
sg5
S'ALTO'
p138
ssI45
(dp139
g2
S'n1950'
p140
sg4
I45
sg5
S'GRAVE'
p141
ssI46
(dp142
g2
S'n129'
p143
sg4
I46
sg5
S'AMP'
p144
ssI47
(dp145
g2
S'n484'
p146
sg4
I47
sg5
S'BOW'
p147
ssI48
(dp148
g2
S'n4639'
p149
sg4
I48
sg5
S'TRUMPET'
p150
ssI49
(dp151
g2
S'n807'
p152
sg4
I49
sg5
S'CLARINET'
p153
ssI50
(dp154
g2
S'n4655'
p155
sg4
I50
sg5
S'TUNE'
p156
ssI51
(dp157
g2
S'n2773'
p158
sg4
I51
sg5
S'MISSILE'
p159
ssI52
(dp160
g2
S'n1405'
p161
sg4
I52
sg5
S'DYNAMITE'
p162
ssI53
(dp163
g2
S'n1480'
p164
sg4
I53
sg5
S'ENGINE'
p165
ssI54
(dp166
g2
S'n417'
p167
sg4
I54
sg5
S'BLAST'
p168
ssI55
(dp169
g2
S'n413'
p170
sg4
I55
sg5
S'BLADE'
p171
ssI56
(dp172
g2
S'n1488'
p173
sg4
I56
sg5
S'ENTERTAIN'
p174
ssI57
(dp175
g2
S'n1489'
p176
sg4
I57
sg5
S'ENTERTAINMENT'
p177
ssI58
(dp178
g2
S'n3215'
p179
sg4
I58
sg5
S'PIANO'
p180
ssI59
(dp181
g2
S'n2188'
p182
sg4
I59
sg5
S'HUNG'
p183
ssI60
(dp184
g2
S'n247'
p185
sg4
I60
sg5
S'AUDIENCE'
p186
ssI61
(dp187
g2
S'n555'
p188
sg4
I61
sg5
S'BUGLE'
p189
ssI62
(dp190
g2
S'n91'
p191
sg4
I62
sg5
S'AIM'
p192
ssI63
(dp193
g2
S'n97'
p194
sg4
I63
sg5
S'ALARM'
p195
ssI64
(dp196
g2
S'n719'
p197
sg4
I64
sg5
S'CHAMBER'
p198
ssI65
(dp199
g2
S'n3929'
p200
sg4
I65
sg5
S'SHOOT'
p201
ssI66
(dp202
g2
S'n2937'
p203
sg4
I66
sg5
S'NOOSE'
p204
ssI67
(dp205
g2
S'n4230'
p206
sg4
I67
sg5
S'STEREO'
p207
ssI68
(dp208
g2
S'n2930'
p209
sg4
I68
sg5
S'NOISE'
p210
ssI69
(dp211
g2
S'n2071'
p212
sg4
I69
sg5
S'HEARING'
p213
ssI70
(dp214
g2
S'n4402'
p215
sg4
I70
sg5
S'TALENT'
p216
ssI71
(dp217
g2
S'n827'
p218
sg4
I71
sg5
S'CLOCK'
p219
ssI72
(dp220
g2
S'n156'
p221
sg4
I72
sg5
S'ANTENNA'
p222
ssI73
(dp223
g2
S'n2587'
p224
sg4
I73
sg5
S'LOUD'
p225
ssI74
(dp226
g2
S'n1149'
p227
sg4
I74
sg5
S'DEADLY'
p228
ssI75
(dp229
g2
S'n4319'
p230
sg4
I75
sg5
S'SUFFOCATE'
p231
ssI76
(dp232
g2
S'n4093'
p233
sg4
I76
sg5
S'SOLO'
p234
ssI77
(dp235
g2
S'n818'
p236
sg4
I77
sg5
S'CLICK'
p237
ssI78
(dp238
g2
S'n578'
p239
sg4
I78
sg5
S'BURIAL'
p240
ssI79
(dp241
g2
S'n3533'
p242
sg4
I79
sg5
S'RATTLE'
p243
ssI80
(dp244
g2
S'n462'
p245
sg4
I80
sg5
S'BOOM'
p246
ssI81
(dp247
g2
S'n3676'
p248
sg4
I81
sg5
S'RIOT'
p249
ssI82
(dp250
g2
S'n1668'
p251
sg4
I82
sg5
S'FIRE'
p252
ssI83
(dp253
g2
S'n4800'
p254
sg4
I83
sg5
S'VIOLENCE'
p255
ssI84
(dp256
g2
S'n783'
p257
sg4
I84
sg5
S'CHORUS'
p258
ssI85
(dp259
g2
S'n1989'
p260
sg4
I85
sg5
S'GUITAR'
p261
ssI86
(dp262
g2
S'n702'
p263
sg4
I86
sg5
S'CEMETERY'
p264
ssI87
(dp265
g2
S'n1373'
p266
sg4
I87
sg5
S'DRILL'
p267
ssI88
(dp268
g2
S'n4798'
p269
sg4
I88
sg5
S'VIOLA'
p270
ssI89
(dp271
g2
S'n1075'
p272
sg4
I89
sg5
S'CROWD'
p273
ssI90
(dp274
g2
S'n3939'
p275
sg4
I90
sg5
S'SHOUT'
p276
ssI91
(dp277
g2
S'n923'
p278
sg4
I91
sg5
S'CONCERT'
p279
ssI92
(dp280
g2
S'n267'
p281
sg4
I92
sg5
S'AX'
p282
ssI93
(dp283
g2
S'n4803'
p284
sg4
I93
sg5
S'VIOLIN'
p285
ssI94
(dp286
g2
S'n2610'
p287
sg4
I94
sg5
S'MAFIA'
p288
ssI95
(dp289
g2
S'n2842'
p290
sg4
I95
sg5
S'MOWER'
p291
ssI96
(dp292
g2
S'n4003'
p293
sg4
I96
sg5
S'SKULL'
p294
ssI97
(dp295
g2
S'n3685'
p296
sg4
I97
sg5
S'ROAR'
p297
ssI98
(dp298
g2
S'n4553'
p299
sg4
I98
sg5
S'TONE'
p300
ssI99
(dp301
g2
S'n3270'
p302
sg4
I99
sg5
S'PLAY'
p303
ssI100
(dp304
g2
S'n4777'
p305
sg4
I100
sg5
S'VENOM'
p306
ssI101
(dp307
g2
S'n3272'
p308
sg4
I101
sg5
S'PLAYER'
p309
ssI102
(dp310
g2
S'n2149'
p311
sg4
I102
sg5
S'HOOT'
p312
ssI103
(dp313
g2
S'n4958'
p314
sg4
I103
sg5
S'WOODWIND'
p315
ssI104
(dp316
g2
S'n2396'
p317
sg4
I104
sg5
S'KILL'
p318
ssI105
(dp319
g2
S'n2931'
p320
sg4
I105
sg5
S'NOISY'
p321
ssI106
(dp322
g2
S'n1996'
p323
sg4
I106
sg5
S'GUN'
p324
ssI107
(dp325
g2
S'n3667'
p326
sg4
I107
sg5
S'RIFLE'
p327
ssI108
(dp328
g2
S'n2551'
p329
sg4
I108
sg5
S'LIVE'
p330
ssI109
(dp331
g2
S'n4814'
p332
sg4
I109
sg5
S'VOICE'
p333
ssI110
(dp334
g2
S'n861'
p335
sg4
I110
sg5
S'COFFIN'
p336
ssI111
(dp337
g2
S'n4816'
p338
sg4
I111
sg5
S'VOLCANO'
p339
ssI112
(dp340
g2
S'n4819'
p341
sg4
I112
sg5
S'VOLUME'
p342
ssI113
(dp343
g2
S'n3984'
p344
sg4
I113
sg5
S'SIREN'
p345
ssI114
(dp346
g2
S'n2416'
p347
sg4
I114
sg5
S'KNIFE'
p348
ssI115
(dp349
g2
S'n4383'
p350
sg4
I115
sg5
S'SYMPHONY'
p351
ssI116
(dp352
g2
S'n1341'
p353
sg4
I116
sg5
S'DOORBELL'
p354
ssI117
(dp355
g2
S'n301'
p356
sg4
I117
sg5
S'BANG'
p357
ssI118
(dp358
g2
S'n302'
p359
sg4
I118
sg5
S'BANJO'
p360
ssI119
(dp361
g2
S'n2992'
p362
sg4
I119
sg5
S'OFF'
p363
ssI120
(dp364
g2
S'n1066'
p365
sg4
I120
sg5
S'CROAK'
p366
ssI121
(dp367
g2
S'n773'
p368
sg4
I121
sg5
S'CHIRP'
p369
ssI122
(dp370
g2
S'n2852'
p371
sg4
I122
sg5
S'MURDER'
p372
ssI123
(dp373
g2
S'n674'
p374
sg4
I123
sg5
S'CASKET'
p375
ssI124
(dp376
g2
S'n778'
p377
sg4
I124
sg5
S'CHOIR'
p378
ssI125
(dp379
g2
S'n779'
p380
sg4
I125
sg5
S'CHOKE'
p381
ssI126
(dp382
g2
S'n2389'
p383
sg4
I126
sg5
S'KEYBOARD'
p384
ssI127
(dp385
g2
S'n2155'
p386
sg4
I127
sg5
S'HORN'
p387
ssI128
(dp388
g2
S'n4549'
p389
sg4
I128
sg5
S'TOMB'
p390
ssI129
(dp391
g2
S'n4768'
p392
sg4
I129
sg5
S'VAULT'
p393
ssI130
(dp394
g2
S'n4323'
p395
sg4
I130
sg5
S'SUICIDE'
p396
ssI131
(dp397
g2
S'n3015'
p398
sg4
I131
sg5
S'OPERA'
p399
ssI132
(dp400
g2
S'n1056'
p401
sg4
I132
sg5
S'CRICKET'
p402
ssI133
(dp403
g2
S'n561'
p404
sg4
I133
sg5
S'BULLET'
p405
ssI134
(dp406
g2
S'n3994'
p407
sg4
I134
sg5
S'SKELETON'
p408
ssI135
(dp409
g2
S'n441'
p410
sg4
I135
sg5
S'BLUES'
p411
ssI136
(dp412
g2
S'n2864'
p413
sg4
I136
sg5
S'MUTE'
p414
ssI137
(dp415
g2
S'n4476'
p416
sg4
I137
sg5
S'THEATER'
p417
ssI138
(dp418
g2
S'n1357'
p419
sg4
I138
sg5
S'DRACULA'
p420
ssI139
(dp421
g2
S'n3734'
p422
sg4
I139
sg5
S'RUNG'
p423
ssI140
(dp424
g2
S'n2857'
p425
sg4
I140
sg5
S'MUSIC'
p426
ssI141
(dp427
g2
S'n2710'
p428
sg4
I141
sg5
S'MELODY'
p429
ssI142
(dp430
g2
S'n2713'
p431
sg4
I142
sg5
S'MEMORIAL'
p432
ssI143
(dp433
g2
S'n3785'
p434
sg4
I143
sg5
S'SAW'
p435
ssI144
(dp436
g2
S'n3786'
p437
sg4
I144
sg5
S'SAXOPHONE'
p438
ssI145
(dp439
g2
S'n949'
p440
sg4
I145
sg5
S'CONSOLE'
p441
ssI146
(dp442
g2
S'n4613'
p443
sg4
I146
sg5
S'TREBLE'
p444
ssI147
(dp445
g2
S'n296'
p446
sg4
I147
sg5
S'BAND'
p447
ssI148
(dp448
g2
S'n911'
p449
sg4
I148
sg5
S'COMPOSE'
p450
ssI149
(dp451
g2
S'n291'
p452
sg4
I149
sg5
S'BALLET'
p453
ssI150
(dp454
g2
S'n4112'
p455
sg4
I150
sg5
S'SOUND'
p456
ssI151
(dp457
g2
S'n4418'
p458
sg4
I151
sg5
S'TARGET'
p459
ssI152
(dp460
g2
S'n2143'
p461
sg4
I152
sg5
S'HONK'
p462
ssI153
(dp463
g2
S'n3522'
p464
sg4
I153
sg5
S'RANGE'
p465
ssI154
(dp466
g2
S'n582'
p467
sg4
I154
sg5
S'BURY'
p468
ssI155
(dp469
g2
S'n514'
p470
sg4
I155
sg5
S'BREATHE'
p471
ssI156
(dp472
g2
S'n699'
p473
sg4
I156
sg5
S'CELLO'
p474
ssI157
(dp475
g2
S'n1133'
p476
sg4
I157
sg5
S'DANGER'
p477
ssI158
(dp478
g2
S'n455'
p479
sg4
I158
sg5
S'BOMB'
p480
ssI159
(dp481
g2
S'n4877'
p482
sg4
I159
sg5
S'WEAPON'
p483
ssI160
(dp484
g2
S'n1121'
p485
sg4
I160
sg5
S'DAGGER'
p486
ssI161
(dp487
g2
S'n1409'
p488
sg4
I161
sg5
S'EAR'
p489
ssI162
(dp490
g2
S'n369'
p491
sg4
I162
sg5
S'BELL'
p492
ssI163
(dp493
g2
S'n3965'
p494
sg4
I163
sg5
S'SILENT'
p495
ssI164
(dp496
g2
S'n3964'
p497
sg4
I164
sg5
S'SILENCE'
p498
ssI165
(dp499
g2
S'n3414'
p500
sg4
I165
sg5
S'PRODUCTION'
p501
ssI166
(dp502
g2
S'n4379'
p503
sg4
I166
sg5
S'SWORD'
p504
ssI167
(dp505
g2
S'n1843'
p506
sg4
I167
sg5
S'GANG'
p507
ssI168
(dp508
g2
S'n1844'
p509
sg4
I168
sg5
S'GANGSTER'
p510
ssI169
(dp511
g2
S'n595'
p512
sg4
I169
sg5
S'BUZZ'
p513
ssI170
(dp514
g2
S'n4102'
p515
sg4
I170
sg5
S'SONNET'
p516
ssI171
(dp517
g2
S'n4100'
p518
sg4
I171
sg5
S'SONG'
p519
ssI172
(dp520
g2
S'n4101'
p521
sg4
I172
sg5
S'SONIC'
p522
ssI173
(dp523
g2
S'n3245'
p524
sg4
I173
sg5
S'PISTOL'
p525
ssI174
(dp526
g2
S'n3246'
p527
sg4
I174
sg5
S'PISTON'
p528
ssI175
(dp529
g2
S'n3524'
p530
sg4
I175
sg5
S'RAP'
p531
ssI176
(dp532
g2
S'n502'
p533
sg4
I176
sg5
S'BRASS'
p534
ssI177
(dp535
g2
S'n3035'
p536
sg4
I177
sg5
S'ORGAN'
p537
ssI178
(dp538
g2
S'n993'
p539
sg4
I178
sg5
S'CORPSE'
p540
ssI179
(dp541
g2
S'n2134'
p542
sg4
I179
sg5
S'HOLLER'
p543
ssI180
(dp544
g2
S'n851'
p545
sg4
I180
sg5
S'COBRA'
p546
ssI181
(dp547
g2
S'n3930'
p548
sg4
I181
sg5
S'SHOOTING'
p549
ssI182
(dp550
g2
S'n1234'
p551
sg4
I182
sg5
S'DIAL'
p552
ssI183
(dp553
g2
S'n627'
p554
sg4
I183
sg5
S'CANARY'
p555
ssI184
(dp556
g2
S'n4513'
p557
sg4
I184
sg5
S'THUNDER'
p558
ssI185
(dp559
g2
S'n1362'
p560
sg4
I185
sg5
S'DRAMA'
p561
ssI186
(dp562
g2
S'n4455'
p563
sg4
I186
sg5
S'TENOR'
p564
ssI187
(dp565
g2
S'n4550'
p566
sg4
I187
sg5
S'TOMBSTONE'
p567
ssI188
(dp568
g2
S'n3977'
p569
sg4
I188
sg5
S'SING'
p570
ssI189
(dp571
g2
S'n218'
p572
sg4
I189
sg5
S'ASSAULT'
p573
ssI190
(dp574
g2
S'n4194'
p575
sg4
I190
sg5
S'STALK'
p576
ssI191
(dp577
g2
S'n3978'
p578
sg4
I191
sg5
S'SINGER'
p579
ss.