(dp0
S'A1150'
p1
(dp2
S'keywords'
p3
(lp4
S'data structure'
p5
aS'algorithm'
p6
aS'database'
p7
aS'user interface'
p8
aS'information visualization'
p9
aS'direct manipulation'
p10
aS'dynamic query'
p11
asS'name'
p12
S'Tanin, E.'
p13
ssS'A523'
p14
(dp15
g3
(lp16
S'visualization'
p17
aS'diagrams'
p18
aS'whiteboards'
p19
aS'observational study'
p20
asg12
S'Fawcett, P.'
p21
ssS'A1147'
p22
(dp23
g3
(lp24
S''
p25
asg12
S'Maruyama, M.'
p26
ssS'A1201'
p27
(dp28
g3
(lp29
g25
asg12
S'Hirschman, L.'
p30
ssS'A987'
p31
(dp32
g3
(lp33
S'information visualization'
p34
aS'parallel coordinates'
p35
aS'brushing'
p36
aS'linear correlations'
p37
aS'focus+context visualization'
p38
asg12
S'Ledermann, F.'
p39
ssS'A914'
p40
(dp41
g3
(lp42
S'multi-dimensional visualization'
p43
aS'pixel-oriented'
p44
aS'multi-dimensional scaling'
p45
aS'high dimensional datasets'
p46
asg12
S'Anilkumar Patro'
p47
ssS'A234'
p48
(dp49
g3
(lp50
S'schematisation'
p51
aS'maps'
p52
aS'algorithm'
p53
aS'design'
p54
asg12
S'van Goethem, A.'
p55
ssS'A235'
p56
(dp57
g3
g50
sg12
S'Reimer, A.'
p58
ssS'A236'
p59
(dp60
g3
(lp61
S'geographic visualization'
p62
aS'automated cartography'
p63
aS'proportional symbol maps'
p64
aS'necklace maps'
p65
asg12
S'Speckmann, B.'
p66
ssS'A237'
p67
(dp68
g3
(lp69
S'visual knowledge discovery'
p70
aS'sports analytics'
p71
aS'tennis visualization'
p72
asg12
S'Polk, T.'
p73
ssS'A230'
p74
(dp75
g3
(lp76
S'perception'
p77
aS'visualization'
p78
aS'evaluation'
p79
asg12
S'Fumeng Yang'
p80
ssS'A231'
p81
(dp82
g3
(lp83
S'psychophysics'
p84
aS'information visualization'
p85
aS'perceptual study'
p86
asg12
S'Franconeri, S.'
p87
ssS'A232'
p88
(dp89
g3
(lp90
S'visual grouping'
p91
aS'visual hierarchy'
p92
aS'gestalt principles'
p93
aS'perception'
p94
aS'visual communication'
p95
asg12
S'Bae, J.'
p96
ssS'A233'
p97
(dp98
g3
(lp99
g25
asg12
S'Watson, B.'
p100
ssS'A335'
p101
(dp102
g3
g4
sg12
S'Shneiderman, B.'
p103
ssS'A334'
p104
(dp105
g3
(lp106
g25
asg12
S'Plaisant, C.'
p107
ssS'A337'
p108
(dp109
g3
(lp110
S'overlapping community visualization'
p111
aS'fuzzy clustering'
p112
aS'graph visualization'
p113
aS'uncertainty visualization'
p114
asg12
S'Reinhardt, T.'
p115
ssS'A336'
p116
(dp117
g3
(lp118
S'dynamic graph visualization'
p119
aS'graph splatting'
p120
aS'software visualization'
p121
aS'software evolution'
p122
asg12
S'Vehlow, C.'
p123
ssS'A238'
p124
(dp125
g3
(lp126
S'radial space-filling hierarchy visualizations'
p127
aS'multi-focus distortion'
p128
aS'structure-based brushing'
p129
asg12
S'Jing Yang'
p130
ssS'A239'
p131
(dp132
g3
g69
sg12
S'Yueqi Hu'
p133
ssS'A333'
p134
(dp135
g3
(lp136
S'information visualization'
p137
aS'tree comparison'
p138
asg12
S'Pack, M.L.'
p139
ssS'A332'
p140
(dp141
g3
g136
sg12
S'Guerra-Gomez, J.'
p142
ssS'A1230'
p143
(dp144
g3
(lp145
g25
asg12
S'Lantrip, D.'
p146
ssS'A1173'
p147
(dp148
g3
(lp149
g25
asg12
S'Zwa, A.'
p150
ssS'A1172'
p151
(dp152
g3
g149
sg12
S'Shaw, C.'
p153
ssS'A1078'
p154
(dp155
g3
(lp156
g25
asg12
S'Paris, J.P.'
p157
ssS'A1079'
p158
(dp159
g3
(lp160
g25
asg12
S'Overbye, T.J.'
p161
ssS'A1177'
p162
(dp163
g3
(lp164
g25
asg12
S'Carriere, J.'
p165
ssS'A1176'
p166
(dp167
g3
g164
sg12
S'Kazman, R.'
p168
ssS'A1175'
p169
(dp170
g3
g149
sg12
S'Roberts, D.A.'
p171
ssS'A1174'
p172
(dp173
g3
g149
sg12
S'Miller, E.L.'
p174
ssS'A1072'
p175
(dp176
g3
(lp177
g25
asg12
S'Allan, J.'
p178
ssS'A1073'
p179
(dp180
g3
g156
sg12
S'Russo dos Santos, C.'
p181
ssS'A1070'
p182
(dp183
g3
(lp184
g25
asg12
S'Lalanne, D.'
p185
ssS'A1071'
p186
(dp187
g3
g177
sg12
S'Leuski, A.'
p188
ssS'A1076'
p189
(dp190
g3
g156
sg12
S'Loisel, D.'
p191
ssS'A1077'
p192
(dp193
g3
g156
sg12
S'Trichaud, N.'
p194
ssS'A759'
p195
(dp196
g3
(lp197
S'geographic visualization'
p198
aS'computer graphics'
p199
aS'worldmapper'
p200
aS'data visualization'
p201
aS'social visualization'
p202
aS'cartogram'
p203
asg12
S'Dorling, D.'
p204
ssS'A1075'
p205
(dp206
g3
g156
sg12
S'Abel, P.'
p207
ssS'A990'
p208
(dp209
g3
(lp210
g25
asg12
S'Amenta, N.'
p211
ssS'A590'
p212
(dp213
g3
(lp214
g25
asg12
S'Cooper, M.'
p215
ssS'A842'
p216
(dp217
g3
(lp218
S'multidimensional visualization'
p219
aS'dimension order'
p220
aS'visual clutter'
p221
aS'visual structure'
p222
asg12
S'Peng, W.'
p223
ssS'A898'
p224
(dp225
g3
(lp226
g25
asg12
S'Agarawala, A.'
p227
ssS'A758'
p228
(dp229
g3
(lp230
S'information visualization'
p231
aS'treemap'
p232
aS'business graphics'
p233
aS'hierarchical data'
p234
asg12
S'van der Linden, E.-J.'
p235
ssS'A841'
p236
(dp237
g3
(lp238
S'interactive techniques'
p239
aS'visualization'
p240
aS'direct manipulation'
p241
asg12
S'Roth, S.F.'
p242
ssS'A899'
p243
(dp244
g3
(lp245
g25
asg12
S'Spoerri, A.'
p246
ssS'A519'
p247
(dp248
g3
(lp249
S'text visualization'
p250
aS'topic evolution'
p251
aS'hierarchical dirichlet process'
p252
aS'critical event'
p253
asg12
S'Xin Tong'
p254
ssS'A840'
p255
(dp256
g3
(lp257
g25
asg12
S'Berry, L.'
p258
ssS'A908'
p259
(dp260
g3
(lp261
g25
asg12
S'Groth, D.P.'
p262
ssS'A909'
p263
(dp264
g3
g261
sg12
S'Murphy, B.W.'
p265
ssS'A906'
p266
(dp267
g3
(lp268
S'time-varying information visualization'
p269
aS'artificial life'
p270
aS'3d information visualization'
p271
aS'motion'
p272
aS'boids'
p273
asg12
S'Moere, A.V.'
p274
ssS'A847'
p275
(dp276
g3
(lp277
g25
asg12
S'Onoda, T.'
p278
ssS'A904'
p279
(dp280
g3
g99
sg12
S'Albrecht-Buehler, C.'
p281
ssS'A905'
p282
(dp283
g3
g99
sg12
S'Shamma, D.A.'
p284
ssS'A902'
p285
(dp286
g3
(lp287
g25
asg12
S'Dietrich, L.'
p288
ssS'A903'
p289
(dp290
g3
(lp291
S'dimensionality reduction'
p292
aS'multidimensional scaling'
p293
asg12
S'Williams, M.'
p294
ssS'A900'
p295
(dp296
g3
(lp297
S'geographic visualization'
p298
aS'information visualization'
p299
aS'database and data mining visualization'
p300
asg12
S'Heilmann, R.'
p301
ssS'A846'
p302
(dp303
g3
g277
sg12
S'Itoh, N.'
p304
ssS'A894'
p305
(dp306
g3
(lp307
S'force-directed algorithms'
p308
aS'spring embedders'
p309
aS'non-euclidean geometry'
p310
aS'hyperbolic space'
p311
aS'spherical space'
p312
aS'graph drawing'
p313
aS'information visualization'
p314
asg12
S'Wampler, K.'
p315
ssS'A845'
p316
(dp317
g3
g277
sg12
S'Tsutsumi, F.'
p318
ssS'A895'
p319
(dp320
g3
(lp321
g25
asg12
S'Soon Tee Teoh'
p322
ssS'A339'
p323
(dp324
g3
(lp325
S'distributed systems'
p326
aS'human factors'
p327
aS'problem diagnosis'
p328
aS'visualization'
p329
asg12
S'Shafer, I.'
p330
ssS'A844'
p331
(dp332
g3
(lp333
g25
asg12
S'Kegelmeyer, W.P.'
p334
ssS'A1232'
p335
(dp336
g3
g145
sg12
S'Schur, A.'
p337
ssS'A518'
p338
(dp339
g3
g249
sg12
S'Zekai Gao'
p340
ssS'A338'
p341
(dp342
g3
g325
sg12
S'Sambasivan, R.R.'
p343
ssS'A696'
p344
(dp345
g3
(lp346
S'urban models'
p347
aS'information visualization'
p348
aS'multi-resolution'
p349
asg12
S'Sauda, E.'
p350
ssS'A697'
p351
(dp352
g3
(lp353
S'visualization'
p354
aS'world wide web'
p355
aS'social software'
p356
aS'social data analysis'
p357
aS'communication-minded visualization'
p358
asg12
S'Kriss, J.'
p359
ssS'A694'
p360
(dp361
g3
(lp362
S'large dataset visualization'
p363
aS'text and document visualization'
p364
aS'multiresolution visualization'
p365
aS'geographic visualization'
p366
aS'applications of infovis'
p367
asg12
S'Clarke, K.'
p368
ssS'A695'
p369
(dp370
g3
g346
sg12
S'Wessel, G.'
p371
ssS'A692'
p372
(dp373
g3
(lp374
S'bioinformatics'
p375
aS'microarrays'
p376
aS'information visualization'
p377
aS'time-series'
p378
aS'multiple-views'
p379
asg12
S'Kennedy, J.'
p380
ssS'A693'
p381
(dp382
g3
(lp383
S'geographical weighting'
p384
aS'exploratory data analysis'
p385
aS'scale'
p386
aS'multivariate'
p387
aS'directional'
p388
aS'interaction'
p389
aS'coordinated views'
p390
asg12
S'Brunsdon, C.'
p391
ssS'A690'
p392
(dp393
g3
(lp394
S'casual information visualization'
p395
aS'ambient infovis'
p396
aS'social infovis'
p397
aS'editorial'
p398
aS'design'
p399
aS'evaluation'
p400
asg12
S'Mateas, M.'
p401
ssS'A691'
p402
(dp403
g3
(lp404
S'multiple trees'
p405
aS'directed acyclic graph'
p406
asg12
S'Graham, M.'
p407
ssS'A757'
p408
(dp409
g3
g230
sg12
S'Vliegen, R.'
p410
ssS'A756'
p411
(dp412
g3
g297
sg12
S'Sips, M.'
p413
ssS'A755'
p414
(dp415
g3
(lp416
g25
asg12
S'Panse, C.'
p417
ssS'A754'
p418
(dp419
g3
(lp420
S'graph drawing'
p421
aS'dynamic graph'
p422
aS'rna folding'
p423
aS'energy landscape'
p424
aS'fitness landscape'
p425
aS'barrier tree'
p426
asg12
S'Hofacker, I.L.'
p427
ssS'A753'
p428
(dp429
g3
g420
sg12
S'Flamm, C.'
p430
ssS'A752'
p431
(dp432
g3
(lp433
S'interdomain routing'
p434
aS'internet visualization'
p435
aS'graph drawing'
p436
aS'spring embedder'
p437
asg12
S'Pizzonia, M.'
p438
ssS'A698'
p439
(dp440
g3
(lp441
S'graph drawing'
p442
aS'dynamic layout'
p443
aS'mobile objects'
p444
aS'software visualization'
p445
asg12
S'Frishman, Y.'
p446
ssS'A699'
p447
(dp448
g3
(lp449
g25
asg12
S'Tal, A.'
p450
ssS'A51'
p451
(dp452
g3
(lp453
S'multiple resolutions'
p454
aS'overview use'
p455
aS'user study'
p456
asg12
S'Lam, H.'
p457
ssS'A50'
p458
(dp459
g3
(lp460
S'sensemaking model'
p461
aS'information visualization'
p462
aS'novice users'
p463
aS'grounded theory'
p464
aS'qualitative study'
p465
asg12
S'Ya-Hsin Hung'
p466
ssS'A53'
p467
(dp468
g3
(lp469
S'information visualization'
p470
aS'interaction'
p471
aS'interaction techniques'
p472
aS'taxonomy'
p473
aS'visual analytics'
p474
asg12
S'Ji Soo Yi'
p475
ssS'A52'
p476
(dp477
g3
g469
sg12
S'Youn-ah Kang'
p478
ssS'A55'
p479
(dp480
g3
(lp481
S'bayesian reasoning'
p482
aS'visualization'
p483
aS'spatial ability'
p484
aS'individual differences'
p485
asg12
S'Peck, E.M.'
p486
ssS'A54'
p487
(dp488
g3
g481
sg12
S'Ottley, A.'
p489
ssS'A57'
p490
(dp491
g3
g481
sg12
S'Afergan, D.'
p492
ssS'A56'
p493
(dp494
g3
g76
sg12
S'Harrison, L.'
p495
ssS'A59'
p496
(dp497
g3
g481
sg12
S'Taylor, H.A.'
p498
ssS'A58'
p499
(dp500
g3
(lp501
S'cognition'
p502
aS'visualization theory'
p503
aS'metaphors'
p504
aS'hierarchies'
p505
aS'evaluation'
p506
asg12
S'Ziemkiewicz, C.'
p507
ssS'A817'
p508
(dp509
g3
(lp510
S'pseudo color'
p511
aS'overview'
p512
aS'detail'
p513
aS'focus+context'
p514
aS'data density'
p515
asg12
S'Kaseda, T.'
p516
ssS'A995'
p517
(dp518
g3
(lp519
g25
asg12
S'Hix, D.'
p520
ssS'A1132'
p521
(dp522
g3
(lp523
S'information visualization'
p524
aS'user scenario'
p525
aS'information analysis'
p526
aS'document analysis'
p527
asg12
S'Martucci, L.'
p528
ssS'A331'
p529
(dp530
g3
(lp531
S'exemplar'
p532
aS'large-scale document visualization'
p533
aS'multidimensional projection'
p534
asg12
S'Jing Hua'
p535
ssS'A330'
p536
(dp537
g3
(lp538
S'medial surface'
p539
aS'shape space'
p540
aS'comparative visualization'
p541
aS'left ventricle diagnosis'
p542
asg12
S'Taimouri, V.'
p543
ssS'A623'
p544
(dp545
g3
(lp546
S'trees and network visualization'
p547
aS'radial tree layout'
p548
aS'information visualization'
p549
aS'interaction'
p550
aS'focus+context'
p551
aS'hierarchy visualization'
p552
aS'human-computer interaction'
p553
asg12
S'Douma, M.'
p554
ssS'A622'
p555
(dp556
g3
(lp557
S'spatiotemporal visualization'
p558
aS'visual analytics'
p559
aS'animal behavior'
p560
aS'dense pixel displays'
p561
asg12
S'Janetzko, H.'
p562
ssS'A621'
p563
(dp564
g3
(lp565
S'information visualization'
p566
aS'network security'
p567
aS'network monitoring'
p568
aS'treemap'
p569
asg12
S'Mansmann, F.'
p570
ssS'A620'
p571
(dp572
g3
(lp573
S'state transitions'
p574
aS'graph drawing'
p575
aS'time series'
p576
aS'biological data'
p577
asg12
S'Post, F.H.'
p578
ssS'A627'
p579
(dp580
g3
g546
sg12
S'Liu, S.'
p581
ssS'A626'
p582
(dp583
g3
g546
sg12
S'Gritsai, P.'
p584
ssS'A625'
p585
(dp586
g3
g546
sg12
S'Ancuta, O.'
p587
ssS'A624'
p588
(dp589
g3
g546
sg12
S'Ligierko, G.'
p590
ssS'A999'
p591
(dp592
g3
g106
sg12
S'Grosjean, J.'
p593
ssS'A998'
p594
(dp595
g3
(lp596
S'process visualization'
p597
aS'information visualization'
p598
aS'levels of detail'
p599
aS'focus+context visualization'
p600
asg12
S'Sainitzer, R.'
p601
ssS'A629'
p602
(dp603
g3
(lp604
S'information visualization'
p605
aS'interaction design'
p606
aS'human-computer interaction'
p607
aS'temporal categorical data visualization'
p608
asg12
S'Spring, N.'
p609
ssS'A628'
p610
(dp611
g3
g604
sg12
S'Wang, T.D.'
p612
ssS'A1229'
p613
(dp614
g3
g145
sg12
S'Pennock, K.'
p615
ssS'A472'
p616
(dp617
g3
(lp618
S'graph visualization'
p619
aS'aggregation'
p620
aS'node-link diagrams'
p621
aS'edge bundling'
p622
aS'physical simulation'
p623
asg12
S'Selassie, D.'
p624
ssS'A473'
p625
(dp626
g3
g618
sg12
S'Heller, B.'
p627
ssS'A470'
p628
(dp629
g3
(lp630
S'genealogy visualization'
p631
aS'interaction'
p632
asg12
S'Juhee Bae'
p633
ssS'A471'
p634
(dp635
g3
(lp636
S'multi-facet visualization'
p637
aS'text visualization'
p638
aS'multi-relational graph'
p639
aS'search ui'
p640
asg12
S'Jimeng Sun'
p641
ssS'A476'
p642
(dp643
g3
(lp644
S'quantitative evaluation'
p645
aS'qualitative evaluation'
p646
aS'biomedical and medical visualization'
p647
asg12
S'Mitsouras, D.'
p648
ssS'A477'
p649
(dp650
g3
g644
sg12
S'Melchionna, S.'
p651
ssS'A474'
p652
(dp653
g3
(lp654
S'cartography'
p655
aS'schematic maps'
p656
aS'fish-eye view'
p657
aS'graph drawing'
p658
aS'optimization'
p659
aS'quadratic programming'
p660
asg12
S'Sering, L.'
p661
ssS'A475'
p662
(dp663
g3
g644
sg12
S'Peters, A.'
p664
ssS'A573'
p665
(dp666
g3
(lp667
S'graph drawing'
p668
aS'graph products'
p669
aS'topolayout'
p670
asg12
S'JAnicke, S.'
p671
ssS'A572'
p672
(dp673
g3
(lp674
S'information visualization'
p675
aS'diversity'
p676
aS'categorical data'
p677
aS'multivariate data'
p678
aS'evaluation'
p679
asg12
S'Metoyer, R.'
p680
ssS'A478'
p681
(dp682
g3
g644
sg12
S'Rybicki, F.'
p683
ssS'A479'
p684
(dp685
g3
g644
sg12
S'Feldman, C.'
p686
ssS'A577'
p687
(dp688
g3
g420
sg12
S'Scheuermann, G.'
p689
ssS'A576'
p690
(dp691
g3
g420
sg12
S'Stadler, P.F.'
p692
ssS'A575'
p693
(dp694
g3
g667
sg12
S'Hellmuth, M.'
p695
ssS'A574'
p696
(dp697
g3
g420
sg12
S'Heine, C.'
p698
ssS'A967'
p699
(dp700
g3
(lp701
S'information visualization'
p702
aS'context'
p703
aS'treemap'
p704
aS'distortion'
p705
aS'query'
p706
aS'financial data'
p707
aS'stock market'
p708
aS'fundexplore'
p709
asg12
S'Lehmann, O.'
p710
ssS'A1183'
p711
(dp712
g3
(lp713
S'visualization'
p714
aS'exploratory data analysis'
p715
aS'graphics'
p716
aS'user interface environment'
p717
aS'human-computer interaction'
p718
asg12
S'Stroffolino, P.J.'
p719
ssS'A1107'
p720
(dp721
g3
(lp722
g25
asg12
S'Avidan, T.'
p723
ssS'A1181'
p724
(dp725
g3
g713
sg12
S'Gomberg, C.C.'
p726
ssS'A1186'
p727
(dp728
g3
(lp729
g25
asg12
S'Liqun Jin'
p730
ssS'A1187'
p731
(dp732
g3
g729
sg12
S'Banks, D.C.'
p733
ssS'A1184'
p734
(dp735
g3
g713
sg12
S'Kolojechick, A.J.'
p736
ssS'A1185'
p737
(dp738
g3
g713
sg12
S'Dunmire, C.'
p739
ssS'A1188'
p740
(dp741
g3
(lp742
g25
asg12
S'Claffy, K.'
p743
ssS'A1037'
p744
(dp745
g3
(lp746
g25
asg12
S'Bermudez, J.'
p747
ssS'A997'
p748
(dp749
g3
(lp750
g25
asg12
S'Prabhakar, S.'
p751
ssS'A450'
p752
(dp753
g3
(lp754
S'parallel coordinates'
p755
aS'angular histogram'
p756
aS'attribute curves'
p757
asg12
S'Walker, R.'
p758
ssS'A877'
p759
(dp760
g3
(lp761
g25
asg12
S'Singhal, M.'
p762
ssS'A874'
p763
(dp764
g3
(lp765
g25
asg12
S'Havre, S.'
p766
ssS'A875'
p767
(dp768
g3
g761
sg12
S'Cramer, N.'
p769
ssS'A872'
p770
(dp771
g3
g761
sg12
S'Posse, C.'
p772
ssS'A873'
p773
(dp774
g3
g761
sg12
S'Whiting, M.'
p775
ssS'A870'
p776
(dp777
g3
(lp778
g25
asg12
S'Eick, S.G.'
p779
ssS'A871'
p780
(dp781
g3
(lp782
g25
asg12
S'Jie Yun'
p783
ssS'A1218'
p784
(dp785
g3
(lp786
g25
asg12
S'Petajan, E.'
p787
ssS'A1219'
p788
(dp789
g3
g238
sg12
S'Mattis, J.'
p790
ssS'A878'
p791
(dp792
g3
(lp793
g25
asg12
S'Tyman, J.'
p794
ssS'A879'
p795
(dp796
g3
g793
sg12
S'Gruetzmacher, G.P.'
p797
ssS'A199'
p798
(dp799
g3
(lp800
S'information visualization'
p801
aS'design study'
p802
aS'human-computer interaction'
p803
asg12
S'Palmas, G.'
p804
ssS'A198'
p805
(dp806
g3
(lp807
S'information visualization'
p808
aS'exploratory data analysis'
p809
aS'dynamic query'
p810
aS'feature detection/selection'
p811
aS'statistical graphics'
p812
asg12
S'Jinwook Seo'
p813
ssS'A780'
p814
(dp815
g3
(lp816
S'flow maps'
p817
aS'gis'
p818
aS'hierarchical clustering'
p819
asg12
S'Ling Xiao'
p820
ssS'A191'
p821
(dp822
g3
(lp823
S'parallel coordinates'
p824
aS'scatterplots'
p825
aS'information visualization'
p826
aS'multidimensional scaling'
p827
asg12
S'Xiaoru Yuan'
p828
ssS'A209'
p829
(dp830
g3
(lp831
S'connectomics'
p832
aS'neuroscience'
p833
aS'data abstraction'
p834
aS'multi-trees'
p835
aS'focus+context'
p836
asg12
S'Lichtman, J.'
p837
ssS'A193'
p838
(dp839
g3
(lp840
S'visualization'
p841
aS'design'
p842
aS'encoding'
p843
aS'perception'
p844
aS'model'
p845
aS'crowdsourcing'
p846
aS'automated visualization'
p847
aS'visual embedding'
p848
asg12
S'Bernstein, M.S.'
p849
ssS'A192'
p850
(dp851
g3
g840
sg12
S'Demiralp, C.'
p852
ssS'A195'
p853
(dp854
g3
(lp855
S'schedule visualization'
p856
aS'event sequence visualization'
p857
aS'simplification'
p858
aS'exploratory interactions'
p859
aS'simulation'
p860
asg12
S'Jaeseok Huh'
p861
ssS'A194'
p862
(dp863
g3
g855
sg12
S'Jaemin Jo'
p864
ssS'A197'
p865
(dp866
g3
(lp867
S'bioinformatics visualization'
p868
aS'augmented timeline'
p869
aS'animation'
p870
aS'zoomable grid'
p871
aS'gene expression profiling'
p872
asg12
S'Bohyoung Kim'
p873
ssS'A161'
p874
(dp875
g3
(lp876
S'user study'
p877
aS'eye tracking'
p878
aS'evaluation'
p879
aS'trajectory visualization'
p880
aS'node-link visualization'
p881
aS'direction encoding'
p882
aS'node splatting'
p883
aS'halo rendering'
p884
asg12
S'Netzel, R.'
p885
ssS'A371'
p886
(dp887
g3
(lp888
S'presentations'
p889
aS'information visualization'
p890
aS'design'
p891
aS'visual analysis'
p892
asg12
S'Hua Guo'
p893
ssS'A370'
p894
(dp895
g3
g888
sg12
S'Jianu, R.'
p896
ssS'A373'
p897
(dp898
g3
(lp899
S'visualized decision making'
p900
aS'eye tracking'
p901
aS'crowdsourcing'
p902
aS'quantitative empirical study'
p903
aS'limitations'
p904
aS'peripheral vision'
p905
asg12
S'Hanjun Xian'
p906
ssS'A372'
p907
(dp908
g3
g899
sg12
S'Zhihua Dong'
p909
ssS'A375'
p910
(dp911
g3
(lp912
S'npr'
p913
aS'non-photorealistic rendering'
p914
aS'sketch'
p915
aS'hand-drawn'
p916
aS'uncertainty'
p917
aS'visualization'
p918
asg12
S'Boukhelifa, N.'
p919
ssS'A374'
p920
(dp921
g3
g899
sg12
S'Upatising, B.'
p922
ssS'A377'
p923
(dp924
g3
(lp925
S'visualization'
p926
aS'design'
p927
aS'style'
p928
aS'aesthetics'
p929
aS'evaluation'
p930
aS'online study'
p931
aS'user experience'
p932
asg12
S'Vande Moere, A.'
p933
ssS'A376'
p934
(dp935
g3
(lp936
S'parallel glyphs'
p937
aS'parallel coordinates'
p938
aS'star glyphs'
p939
aS'multi-dimensional data sets'
p940
aS'3d visualization'
p941
asg12
S'Isenberg, T.'
p942
ssS'A379'
p943
(dp944
g3
g925
sg12
S'Wimmer, C.'
p945
ssS'A378'
p946
(dp947
g3
g925
sg12
S'Tomitsch, M.'
p948
ssS'A526'
p949
(dp950
g3
(lp951
S'information visualization'
p952
aS'visual analytics'
p953
aS'parameter space'
p954
aS'image analysis'
p955
aS'sampling'
p956
asg12
S'Carpenter, A.E.'
p957
ssS'A278'
p958
(dp959
g3
(lp960
S'hierarchy data'
p961
aS'tabular data'
p962
aS'nested relations'
p963
aS'layout management'
p964
asg12
S'Miller, R.C.'
p965
ssS'A279'
p966
(dp967
g3
(lp968
S'linewidth illusion'
p969
aS'data visualization'
p970
aS'high-dimensional displays'
p971
aS'parallel sets'
p972
aS'hammock plots'
p973
aS'muller-lyer illusion'
p974
asg12
S'Vendettuoli, M.'
p975
ssS'A175'
p976
(dp977
g3
(lp978
S'information visualization'
p979
aS'text visualization'
p980
aS'sparklines'
p981
aS'glyphs'
p982
aS'design space'
p983
aS'word-scale visualizations'
p984
asg12
S'Goffin, P.'
p985
ssS'A174'
p986
(dp987
g3
(lp988
S'bioinformatics visualization'
p989
aS'perception theory'
p990
aS'scalability issues'
p991
aS'visual design'
p992
asg12
S'Gleicher, M.'
p993
ssS'A173'
p994
(dp995
g3
g83
sg12
S'Correll, M.'
p996
ssS'A172'
p997
(dp998
g3
(lp999
S'rsvp'
p1000
aS'image classification'
p1001
aS'image browsing'
p1002
aS'multimedia visualization'
p1003
asg12
S'van der Corput, P.'
p1004
ssS'A171'
p1005
(dp1006
g3
(lp1007
S'multidimensional data'
p1008
aS'cluster comparison'
p1009
aS'bioinformatics visualization'
p1010
asg12
S'Streit, M.'
p1011
ssS'A170'
p1012
(dp1013
g3
(lp1014
S'ranking visualization'
p1015
aS'ranking'
p1016
aS'scoring'
p1017
aS'multi-attribute'
p1018
aS'multifactorial'
p1019
aS'multi-faceted'
p1020
aS'stacked bar charts'
p1021
asg12
S'Gehlenborg, N.'
p1022
ssS'A270'
p1023
(dp1024
g3
(lp1025
S'task taxonomy'
p1026
aS'design space'
p1027
aS'climate impact research'
p1028
aS'visualization recommendation'
p1029
asg12
S'Heitzler, M.'
p1030
ssS'A271'
p1031
(dp1032
g3
(lp1033
g25
asg12
S'Schumann, H.'
p1034
ssS'A272'
p1035
(dp1036
g3
(lp1037
S'comparative visualization'
p1038
aS'small-multiple displays'
p1039
aS'trellis displays'
p1040
aS'categorical data'
p1041
asg12
S'Kehrer, J.'
p1042
ssS'A273'
p1043
(dp1044
g3
(lp1045
S'information visualization architecture'
p1046
aS'continuous interaction'
p1047
aS'multi-threading'
p1048
aS'layer'
p1049
aS'preview'
p1050
asg12
S'Berger, W.'
p1051
ssS'A274'
p1052
(dp1053
g3
g596
sg12
S'Groller, E.'
p1054
ssS'A275'
p1055
(dp1056
g3
(lp1057
S'uncertainty visualization'
p1058
aS'uncertainty categories'
p1059
aS'visual variables'
p1060
aS'semiotics'
p1061
asg12
S'Roth, R.E.'
p1062
ssS'A276'
p1063
(dp1064
g3
g960
sg12
S'Bakke, E.'
p1065
ssS'A178'
p1066
(dp1067
g3
(lp1068
S'visual knowledge discovery'
p1069
aS'visual knowledge representation'
p1070
aS'hypothesis testing'
p1071
aS'visual evidence'
p1072
aS'human computer interaction'
p1073
asg12
S'Stolper, C.D.'
p1074
ssS'A1137'
p1075
(dp1076
g3
(lp1077
g25
asg12
S'Moore, J.'
p1078
ssS'A1136'
p1079
(dp1080
g3
g1077
sg12
S'Green, N.'
p1081
ssS'A1135'
p1082
(dp1083
g3
g1077
sg12
S'Carenini, G.'
p1084
ssS'A1134'
p1085
(dp1086
g3
g1077
sg12
S'Kerpedjiev, S.'
p1087
ssS'A1133'
p1088
(dp1089
g3
(lp1090
S'information visualization'
p1091
aS'disc tree'
p1092
aS'compact disc tree'
p1093
aS'plane disc tree'
p1094
aS'hierarchy'
p1095
asg12
S'Chang-Sung Jeong'
p1096
ssS'A399'
p1097
(dp1098
g3
(lp1099
S'information visualization'
p1100
aS'user interaction'
p1101
aS'evaluation'
p1102
aS'user studies'
p1103
aS'science museums'
p1104
aS'informal learning environments'
p1105
asg12
S'Ma, J.'
p1106
ssS'A1131'
p1107
(dp1108
g3
(lp1109
g25
asg12
S'Masui, T.'
p1110
ssS'A1130'
p1111
(dp1112
g3
(lp1113
S'three-dimensional information visualization'
p1114
aS'physics-based graph layout'
p1115
aS'object-oriented visualization toolkit'
p1116
aS'multidimensional information modeling'
p1117
aS'time varying data'
p1118
asg12
S'Strasser, T.'
p1119
ssS'A168'
p1120
(dp1121
g3
(lp1122
S'graph visualization'
p1123
aS'node-link diagrams'
p1124
aS'structural comparison'
p1125
aS'hierarchies'
p1126
aS'3d visualization'
p1127
aS'edge aggregation'
p1128
asg12
S'Collins, C.'
p1129
ssS'A398'
p1130
(dp1131
g3
(lp1132
S'voronoi treemaps'
p1133
aS'information visualization'
p1134
aS'hierarchies'
p1135
aS'trees'
p1136
aS'treemaps'
p1137
aS'voronoi tessellations'
p1138
asg12
S'Deussen, O.'
p1139
ssS'A1171'
p1140
(dp1141
g3
(lp1142
g25
asg12
S'Hackborn, D.'
p1143
ssS'A751'
p1144
(dp1145
g3
g433
sg12
S'Patrignani, M.'
p1146
ssS'A200'
p1147
(dp1148
g3
g800
sg12
S'Bachynskyi, M.'
p1149
ssS'A285'
p1150
(dp1151
g3
(lp1152
S'dynamic networks'
p1153
aS'hybrid visualization'
p1154
aS'taxonomy'
p1155
aS'evolution'
p1156
aS'animation'
p1157
aS'difference map'
p1158
asg12
S'Rufiange, S.'
p1159
ssS'A284'
p1160
(dp1161
g3
(lp1162
S'creativity techniques'
p1163
aS'user-centered design'
p1164
aS'data visualization'
p1165
aS'smart home'
p1166
aS'energy consumption'
p1167
asg12
S'Kachkaev, A.'
p1168
ssS'A287'
p1169
(dp1170
g3
(lp1171
S'high dimensional data'
p1172
aS'hierarchical visualization'
p1173
aS'sub-dimensional space'
p1174
aS'user interaction'
p1175
aS'subspace'
p1176
aS'tree'
p1177
aS'matrix'
p1178
asg12
S'Zuchao Wang'
p1179
ssS'A286'
p1180
(dp1181
g3
(lp1182
S'tree browsing and navigation'
p1183
aS'focus+context'
p1184
aS'expand-ahead'
p1185
aS'automatic expansion'
p1186
aS'space filling'
p1187
aS'adaptive user interfaces'
p1188
asg12
S'McGuffin, M.J.'
p1189
ssS'A281'
p1190
(dp1191
g3
g1162
sg12
S'Dillingham, I.'
p1192
ssS'A280'
p1193
(dp1194
g3
g1162
sg12
S'Jones, S.'
p1195
ssS'A283'
p1196
(dp1197
g3
g1162
sg12
S'Duffy, A.'
p1198
ssS'A282'
p1199
(dp1200
g3
g1162
sg12
S'Dove, G.'
p1201
ssS'A289'
p1202
(dp1203
g3
(lp1204
S'directed graphs'
p1205
aS'networks'
p1206
aS'modular decomposition'
p1207
aS'power graph analysis'
p1208
asg12
S'Mears, C.'
p1209
ssS'A288'
p1210
(dp1211
g3
g1171
sg12
S'Cong Guo'
p1212
ssS'A728'
p1213
(dp1214
g3
g1132
sg12
S'Balzer, M.'
p1215
ssS'A528'
p1216
(dp1217
g3
(lp1218
S'rhetoric'
p1219
aS'narrative visualization'
p1220
aS'framing effects'
p1221
aS'semiotics'
p1222
aS'denotation'
p1223
aS'connotation'
p1224
asg12
S'Diakopoulos, N.'
p1225
ssS'A729'
p1226
(dp1227
g3
(lp1228
S'map labeling'
p1229
aS'dynamic maps'
p1230
aS'human-computer interface'
p1231
aS'label placement'
p1232
aS'label selection'
p1233
aS'label filtering'
p1234
aS'label consistency'
p1235
aS'computational cartography'
p1236
aS'gis'
p1237
aS'hci'
p1238
aS'realtime'
p1239
aS'preprocessing'
p1240
asg12
S'Been, K.'
p1241
ssS'A750'
p1242
(dp1243
g3
g433
sg12
S'Moneta, A.'
p1244
ssS'A876'
p1245
(dp1246
g3
g761
sg12
S'Shah, A.'
p1247
ssS'A529'
p1248
(dp1249
g3
(lp1250
S'backchannel'
p1251
aS'information visualization'
p1252
aS'events'
p1253
aS'multiple views'
p1254
aS'microblogging'
p1255
aS'information retrieval'
p1256
aS'world wide web'
p1257
asg12
S'Gruen, D.'
p1258
ssS'A304'
p1259
(dp1260
g3
(lp1261
S'ornithology'
p1262
aS'species distribution models'
p1263
aS'multiscale analysis'
p1264
aS'spatial data'
p1265
aS'temporal data'
p1266
asg12
S'Lins, L.'
p1267
ssS'A305'
p1268
(dp1269
g3
(lp1270
S'data cube'
p1271
aS'data structures'
p1272
aS'interactive exploration'
p1273
asg12
S'Klosowski, J.T.'
p1274
ssS'A306'
p1275
(dp1276
g3
g83
sg12
S'Nothelfer, C.'
p1277
ssS'A307'
p1278
(dp1279
g3
(lp1280
S'multi-valued attributes'
p1281
aS'set-typed data'
p1282
aS'overlapping sets'
p1283
aS'visualization technique'
p1284
aS'scalability'
p1285
asg12
S'Aigner, W.'
p1286
ssS'A300'
p1287
(dp1288
g3
(lp1289
S'multidimensional data'
p1290
aS'tabular data'
p1291
aS'relational data'
p1292
aS'mdmv'
p1293
aS'high-dimensional data'
p1294
aS'database visualization'
p1295
aS'database overview'
p1296
aS'parallel coordinates'
p1297
aS'scatterplot matrix'
p1298
aS'user interfaces'
p1299
aS'business intelligence'
p1300
asg12
S'Leung, R.'
p1301
ssS'A301'
p1302
(dp1303
g3
(lp1304
S'information visualization'
p1305
aS'multi-scale navigation'
p1306
aS'interaction techniques'
p1307
aS'experimental method'
p1308
aS'user studies'
p1309
asg12
S'Jakobsen, M.R.'
p1310
ssS'A302'
p1311
(dp1312
g3
(lp1313
S'proxemics'
p1314
aS'information visualization'
p1315
aS'user study'
p1316
aS'large displays'
p1317
aS'user tracking'
p1318
aS'movement'
p1319
aS'orientation'
p1320
aS'distance'
p1321
asg12
S'Sahlemariam Haile, Y.'
p1322
ssS'A303'
p1323
(dp1324
g3
g1313
sg12
S'Knudsen, S.'
p1325
ssS'A390'
p1326
(dp1327
g3
(lp1328
S'perception'
p1329
aS'attention'
p1330
aS'color'
p1331
aS'motion'
p1332
aS'user study'
p1333
aS'nominal axis'
p1334
aS'layout'
p1335
aS'goal-oriented design'
p1336
asg12
S'Haroz, S.'
p1337
ssS'A308'
p1338
(dp1339
g3
(lp1340
S'focus+context techniques'
p1341
aS'data clustering'
p1342
aS'mobile and ubiquitous visualization'
p1343
aS'geographic/geospatial visualization'
p1344
asg12
S'Fink, M.'
p1345
ssS'A309'
p1346
(dp1347
g3
g654
sg12
S'Haunert, J.-H.'
p1348
ssS'A1178'
p1349
(dp1350
g3
(lp1351
g25
asg12
S'Pichler, M.'
p1352
ssS'A649'
p1353
(dp1354
g3
(lp1355
S'information visualization'
p1356
aS'distributed cognition'
p1357
aS'interaction'
p1358
aS'representation'
p1359
aS'theory and methods'
p1360
asg12
S'Nersessian, N.J.'
p1361
ssS'A723'
p1362
(dp1363
g3
(lp1364
S'shape perception'
p1365
aS'texture'
p1366
aS'principal directions'
p1367
asg12
S'Interrante, V.'
p1368
ssS'A1003'
p1369
(dp1370
g3
(lp1371
g25
asg12
S'Saini, V.'
p1372
ssS'A1002'
p1373
(dp1374
g3
(lp1375
g25
asg12
S'Corman, S.R.'
p1376
ssS'A1001'
p1377
(dp1378
g3
(lp1379
g25
asg12
S'Forser, C.'
p1380
ssS'A1000'
p1381
(dp1382
g3
g1379
sg12
S'Bingham, G.P.'
p1383
ssS'A1007'
p1384
(dp1385
g3
(lp1386
g25
asg12
S'Tavanti, M.'
p1387
ssS'A1006'
p1388
(dp1389
g3
(lp1390
S'portals'
p1391
aS'multiple views'
p1392
aS'data visualization'
p1393
asg12
S'Olston, C.'
p1394
ssS'A1005'
p1395
(dp1396
g3
(lp1397
g25
asg12
S'Gao, G.R.'
p1398
ssS'A1004'
p1399
(dp1400
g3
g1397
sg12
S'Thiagarajan, P.R.'
p1401
ssS'A1090'
p1402
(dp1403
g3
(lp1404
S'data visualization'
p1405
aS'information visualization'
p1406
aS'aggregation'
p1407
aS'zoom'
p1408
aS'cartography'
p1409
asg12
S'Rayson, J.K.'
p1410
ssS'A1009'
p1411
(dp1412
g3
(lp1413
g25
asg12
S'Neville, P.'
p1414
ssS'A1008'
p1415
(dp1416
g3
g1413
sg12
S'Barlow, T.'
p1417
ssS'A1091'
p1418
(dp1419
g3
(lp1420
g25
asg12
S'Van Selow, E.R.'
p1421
ssS'A454'
p1422
(dp1423
g3
g1261
sg12
S'Ferreira, N.'
p1424
ssS'A658'
p1425
(dp1426
g3
(lp1427
S'computer systems visualization'
p1428
aS'visualization systems'
p1429
aS'superscalar processors'
p1430
asg12
S'Stolte, C.'
p1431
ssS'A659'
p1432
(dp1433
g3
(lp1434
S'clustering'
p1435
aS'graph visualization'
p1436
aS'node duplications'
p1437
aS'social networks'
p1438
asg12
S'Henr, N.'
p1439
ssS'A455'
p1440
(dp1441
g3
g1261
sg12
S'Fink, D.'
p1442
ssS'A652'
p1443
(dp1444
g3
(lp1445
g25
asg12
S'Zhou, M.X.'
p1446
ssS'A653'
p1447
(dp1448
g3
(lp1449
S'graph drawing'
p1450
aS'constraints'
p1451
aS'stress majorization'
p1452
aS'force directed algorithms'
p1453
aS'multidimensional scaling'
p1454
asg12
S'Schreiber, F.'
p1455
ssS'A650'
p1456
(dp1457
g3
(lp1458
S'artistic information visualization'
p1459
aS'interactive information visualization'
p1460
aS'walk-up-and-use interaction'
p1461
aS'public displays'
p1462
asg12
S'Schmidt, H.'
p1463
ssS'A651'
p1464
(dp1465
g3
(lp1466
S'intelligent multimodal interfaces'
p1467
aS'visual context management'
p1468
aS'automated generation of visualization'
p1469
aS'visual momentum'
p1470
asg12
S'Zhen Wen'
p1471
ssS'A656'
p1472
(dp1473
g3
(lp1474
g25
asg12
S'Pak Chung Wong'
p1475
ssS'A456'
p1476
(dp1477
g3
g1261
sg12
S'Kelling, S.'
p1478
ssS'A654'
p1479
(dp1480
g3
g1449
sg12
S'Stuckey, P.'
p1481
ssS'A655'
p1482
(dp1483
g3
g1449
sg12
S'Woodward, M.'
p1484
ssS'A457'
p1485
(dp1486
g3
g1261
sg12
S'Wood, C.'
p1487
ssS'A99'
p1488
(dp1489
g3
(lp1490
S'digital humanities'
p1491
aS'interlinked visualization'
p1492
aS'literary studies'
p1493
aS'cultural collections'
p1494
aS'science fiction'
p1495
asg12
S'Forlini, S.'
p1496
ssS'A98'
p1497
(dp1498
g3
g1458
sg12
S'Hinrichs, U.'
p1499
ssS'A95'
p1500
(dp1501
g3
(lp1502
S'lo-fidelity prototyping'
p1503
aS'user-centred design'
p1504
aS'sketching for visualization'
p1505
aS'ideation'
p1506
asg12
S'Ritsos, P.D.'
p1507
ssS'A94'
p1508
(dp1509
g3
g1502
sg12
S'Headleand, C.'
p1510
ssS'A97'
p1511
(dp1512
g3
(lp1513
S'statistics'
p1514
aS'visual testing'
p1515
aS'permutation tests'
p1516
aS'null hypotheses'
p1517
aS'data plots'
p1518
asg12
S'Hofmann, H.'
p1519
ssS'A96'
p1520
(dp1521
g3
(lp1522
S'data visualization'
p1523
aS'perception'
p1524
aS'statistical graphics'
p1525
aS'statistical computing'
p1526
asg12
S'VanderPlas, S.'
p1527
ssS'A91'
p1528
(dp1529
g3
(lp1530
g25
asg12
S'Eagan, J.'
p1531
ssS'A90'
p1532
(dp1533
g3
(lp1534
S'fisheye'
p1535
aS'vector-scaling'
p1536
aS'content-aware'
p1537
aS'network schematics'
p1538
aS'interactive zoom'
p1539
aS'navigation'
p1540
aS'information visualization'
p1541
asg12
S'Bailly, G.'
p1542
ssS'A93'
p1543
(dp1544
g3
g754
sg12
S'Roberts, J.C.'
p1545
ssS'A92'
p1546
(dp1547
g3
(lp1548
S'information visualization'
p1549
aS'multi-scale interaction'
p1550
aS'structure-aware navigation'
p1551
aS'zoomable treemaps'
p1552
asg12
S'Lecolinet, E.'
p1553
ssS'A955'
p1554
(dp1555
g3
(lp1556
S'information visualization'
p1557
aS'qualitative analysis'
p1558
aS'ethnographic fieldwork'
p1559
aS'architectural lighting design'
p1560
aS'energy efficiency'
p1561
asg12
S'Do, E.Y.'
p1562
ssS'A954'
p1563
(dp1564
g3
g1556
sg12
S'Canny, J.'
p1565
ssS'A957'
p1566
(dp1567
g3
(lp1568
g25
asg12
S'Cowley, W.'
p1569
ssS'A956'
p1570
(dp1571
g3
(lp1572
S'dynamic visualization'
p1573
aS'text visualization'
p1574
aS'remote sensing imagery'
p1575
aS'transient data stream'
p1576
asg12
S'Adams, D.'
p1577
ssS'A951'
p1578
(dp1579
g3
g1427
sg12
S'Bosche, R.'
p1580
ssS'A452'
p1581
(dp1582
g3
(lp1583
S'voting'
p1584
aS'election'
p1585
aS'bias'
p1586
aS'democracy'
p1587
aS'governance'
p1588
aS'treemaps'
p1589
aS'geovisualization'
p1590
aS'hierarchy'
p1591
aS'governance'
p1592
asg12
S'Badawood, D.'
p1593
ssS'A953'
p1594
(dp1595
g3
g1556
sg12
S'Tan, R.'
p1596
ssS'A952'
p1597
(dp1598
g3
g1556
sg12
S'Glaser, D. C.'
p1599
ssS'A1098'
p1600
(dp1601
g3
g1474
sg12
S'Bergeron, R.D.'
p1602
ssS'A453'
p1603
(dp1604
g3
(lp1605
S'desirable difficulites'
p1606
aS'cognitive efficiency'
p1607
aS'active processing'
p1608
aS'engagement'
p1609
aS'individual differences'
p1610
asg12
S'Shah, P.'
p1611
ssS'A959'
p1612
(dp1613
g3
(lp1614
S'navigation'
p1615
aS'graph layout'
p1616
aS'distortion lens'
p1617
aS'information visualization'
p1618
aS'edge congestion'
p1619
aS'interactive visualization'
p1620
asg12
S'Greenberg, S.'
p1621
ssS'A856'
p1622
(dp1623
g3
(lp1624
g25
asg12
S'Luisa Lu'
p1625
ssS'A1099'
p1626
(dp1627
g3
(lp1628
S'dynamic query'
p1629
aS'database'
p1630
aS'probabilistic algorithms'
p1631
asg12
S'Harrison, J.'
p1632
ssS'A1233'
p1633
(dp1634
g3
(lp1635
S'virtual reality'
p1636
aS'mosaic'
p1637
aS'user interface components'
p1638
asg12
S'Angus, I.G.'
p1639
ssS'A969'
p1640
(dp1641
g3
(lp1642
g25
asg12
S'Paley, W.B.'
p1643
ssS'A511'
p1644
(dp1645
g3
(lp1646
S'graph visualization'
p1647
aS'stereo displays'
p1648
aS'virtual reality'
p1649
asg12
S'Kuchera-Morin, J.'
p1650
ssS'A857'
p1651
(dp1652
g3
g1624
sg12
S'McCloskey, W.R.'
p1653
ssS'A510'
p1654
(dp1655
g3
(lp1656
S'graph layouts'
p1657
aS'edge bundles'
p1658
aS'image-based information visualization'
p1659
asg12
S'Cantareiro, G.'
p1660
ssS'A964'
p1661
(dp1662
g3
(lp1663
S'geovisualization'
p1664
aS'eda'
p1665
aS'scatterplot matrix'
p1666
aS'bivariate map'
p1667
aS'space-filling visualization'
p1668
aS'conditional entropy'
p1669
aS'small multiples'
p1670
aS'conditioning'
p1671
aS'geovista studio'
p1672
asg12
S'Lengerich, G.'
p1673
ssS'A513'
p1674
(dp1675
g3
(lp1676
S'synthetic data generation'
p1677
aS'multivariate data'
p1678
aS'high-dimensional data'
p1679
aS'interaction'
p1680
asg12
S'Albuquerque, G.'
p1681
ssS'A965'
p1682
(dp1683
g3
g701
sg12
S'Csallner, C.'
p1684
ssS'A512'
p1685
(dp1686
g3
(lp1687
S'frameworks'
p1688
aS'information visualization'
p1689
aS'information art'
p1690
aS'dynamic data'
p1691
asg12
S'Forbes, A.'
p1692
ssS'A966'
p1693
(dp1694
g3
g701
sg12
S'Handte, M.'
p1695
ssS'A950'
p1696
(dp1697
g3
(lp1698
g25
asg12
S'Tang, D.'
p1699
ssS'A483'
p1700
(dp1701
g3
(lp1702
S'time-series data'
p1703
aS'exploratory visualization'
p1704
aS'focus+context'
p1705
aS'lens'
p1706
aS'interaction techniques'
p1707
asg12
S'Pietriga, E.'
p1708
ssS'A482'
p1709
(dp1710
g3
(lp1711
S'hierarchy visualization'
p1712
aS'node-link layout'
p1713
aS'eye tracking'
p1714
aS'user study'
p1715
asg12
S'Hoeferlin, M.'
p1716
ssS'A481'
p1717
(dp1718
g3
g1711
sg12
S'Heinrich, J.'
p1719
ssS'A480'
p1720
(dp1721
g3
g1711
sg12
S'Konevtsova, N.'
p1722
ssS'A487'
p1723
(dp1724
g3
(lp1725
S'flow maps'
p1726
aS'automated cartography'
p1727
aS'spiral trees'
p1728
asg12
S'Buchin, K.'
p1729
ssS'A486'
p1730
(dp1731
g3
(lp1732
S'multivariate data'
p1733
aS'visualization'
p1734
aS'scatterplot'
p1735
aS'parallel coordinates plot'
p1736
asg12
S'Claessen, J.H.T.'
p1737
ssS'A485'
p1738
(dp1739
g3
(lp1740
S'ambient visualization'
p1741
aS'informative art'
p1742
aS'casual infovis'
p1743
aS'sustainability'
p1744
aS'distributed visualization'
p1745
asg12
S'Bartram, L.'
p1746
ssS'A484'
p1747
(dp1748
g3
g1740
sg12
S'Rodgers, J.'
p1749
ssS'A960'
p1750
(dp1751
g3
(lp1752
S'dynamic query'
p1753
aS'slider'
p1754
aS'histogram'
p1755
aS'usability study'
p1756
aS'information visualization'
p1757
aS'multidimensional visualization'
p1758
asg12
S'Qing Li'
p1759
ssS'A489'
p1760
(dp1761
g3
(lp1762
S'focus+context visualization'
p1763
aS'metro map'
p1764
aS'octilinear layout'
p1765
aS'graph labeling'
p1766
aS'optimization'
p1767
asg12
S'Yu-Shuen Wang'
p1768
ssS'A488'
p1769
(dp1770
g3
g61
sg12
S'Verbeek, K.'
p1771
ssS'A722'
p1772
(dp1773
g3
(lp1774
S'color'
p1775
aS'perception'
p1776
aS'visualization'
p1777
aS'color weaving'
p1778
aS'color blending'
p1779
asg12
S'Sunghee Kim'
p1780
ssS'A713'
p1781
(dp1782
g3
(lp1783
S'data integration'
p1784
aS'rdf'
p1785
aS'attribute inference'
p1786
asg12
S'Halevy, A.'
p1787
ssS'A712'
p1788
(dp1789
g3
g210
sg12
S'Klingner, J.'
p1790
ssS'A711'
p1791
(dp1792
g3
g1783
sg12
S'Bryan Chan'
p1793
ssS'A710'
p1794
(dp1795
g3
g1783
sg12
S'Xin Dong'
p1796
ssS'A717'
p1797
(dp1798
g3
(lp1799
S'sensor networks'
p1800
aS'user interfaces'
p1801
aS'surveillance'
p1802
aS'timeline'
p1803
aS'spatio-temporal visualization'
p1804
asg12
S'Ivanov, Y.A.'
p1805
ssS'A716'
p1806
(dp1807
g3
(lp1808
S'causality'
p1809
aS'visualization'
p1810
aS'semantics'
p1811
aS'animated graphs'
p1812
aS'perception'
p1813
aS'visualizing cause and effect'
p1814
aS'graph semantics'
p1815
asg12
S'Leboe, J.'
p1816
ssS'A715'
p1817
(dp1818
g3
(lp1819
S'browsing'
p1820
aS'distortion'
p1821
aS'hierarchy navigation'
p1822
aS'focus+context'
p1823
aS'drill-down'
p1824
aS'space-filling visualization'
p1825
aS'treemap'
p1826
aS'semantic zooming'
p1827
asg12
S'Irani, P.'
p1828
ssS'A714'
p1829
(dp1830
g3
g1808
sg12
S'Kadaba, N.R.'
p1831
ssS'A719'
p1832
(dp1833
g3
g1799
sg12
S'Sorokin, A.'
p1834
ssS'A718'
p1835
(dp1836
g3
g1799
sg12
S'Wren, C.R.'
p1837
ssS'A961'
p1838
(dp1839
g3
(lp1840
g25
asg12
S'Shedd, B.'
p1841
ssS'A1217'
p1842
(dp1843
g3
g786
sg12
S'Leibfried, T.'
p1844
ssS'A502'
p1845
(dp1846
g3
(lp1847
S'process visualization'
p1848
aS'distributed file systems visualization'
p1849
aS'p2p file-sharing networks visualization'
p1850
aS'small displays'
p1851
asg12
S'Telea, A.'
p1852
ssS'A503'
p1853
(dp1854
g3
g1656
sg12
S'Ersoy, O.'
p1855
ssS'A500'
p1856
(dp1857
g3
(lp1858
S'multidimensional projection'
p1859
aS'high dimensional data'
p1860
aS'visual data mining'
p1861
asg12
S'Cuminato, J.A.'
p1862
ssS'A501'
p1863
(dp1864
g3
(lp1865
S'genealogy'
p1866
aS'pedigree'
p1867
aS'h-tree'
p1868
asg12
S'Nonato, L.G.'
p1869
ssS'A506'
p1870
(dp1871
g3
g1513
sg12
S'Wickham, H.'
p1872
ssS'A507'
p1873
(dp1874
g3
(lp1875
S'quality metrics'
p1876
aS'high-dimensional data visualization'
p1877
asg12
S'Tatu, A.'
p1878
ssS'A504'
p1879
(dp1880
g3
(lp1881
S'radial visualization'
p1882
aS'user study'
p1883
aS'visual memory'
p1884
asg12
S'Beck, F.'
p1885
ssS'A505'
p1886
(dp1887
g3
g1881
sg12
S'Diehl, S.'
p1888
ssS'A1158'
p1889
(dp1890
g3
(lp1891
S'distortion viewing'
p1892
aS'screen layout'
p1893
aS'3d interaction'
p1894
aS'information visualization'
p1895
aS'interface metaphors'
p1896
aS'interface design issues'
p1897
asg12
S'Fracchia, F.D.'
p1898
ssS'A508'
p1899
(dp1900
g3
g988
sg12
S'Albers, D.'
p1901
ssS'A509'
p1902
(dp1903
g3
g988
sg12
S'Dewey, C.'
p1904
ssS'A527'
p1905
(dp1906
g3
g951
sg12
S'Ruddle, R.A.'
p1907
ssS'A958'
p1908
(dp1909
g3
g1614
sg12
S'Wong, N.'
p1910
ssS'A139'
p1911
(dp1912
g3
(lp1913
S'design study'
p1914
aS'weather'
p1915
aS'geographic/geospatial visualization'
p1916
aS'ensemble data'
p1917
asg12
S'Quinan, P.S.'
p1918
ssS'A138'
p1919
(dp1920
g3
(lp1921
S'interactive visual analysis'
p1922
aS'high-dimensional data analysis'
p1923
asg12
S'Turkay, C.'
p1924
ssS'A133'
p1925
(dp1926
g3
(lp1927
S'information visualization'
p1928
aS'tree visualization'
p1929
aS'treemaps'
p1930
asg12
S'van de Wetering, H.'
p1931
ssS'A132'
p1932
(dp1933
g3
(lp1934
S'visualization'
p1935
aS'iterative exploration'
p1936
aS'direct manipulation'
p1937
aS'trajectories'
p1938
asg12
S'Hurter, C.'
p1939
ssS'A131'
p1940
(dp1941
g3
(lp1942
S'trajectories'
p1943
aS'kernel density estimation'
p1944
aS'multivariate data'
p1945
aS'geographical information systems'
p1946
aS'raster maps'
p1947
asg12
S'Scheepens, R.'
p1948
ssS'A130'
p1949
(dp1950
g3
(lp1951
S'design'
p1952
aS'information visualization'
p1953
aS'dynamic visualization'
p1954
aS'dynamic data'
p1955
aS'data stream'
p1956
aS'real time'
p1957
aS'metaphor'
p1958
asg12
S'Huron, S.'
p1959
ssS'A137'
p1960
(dp1961
g3
g362
sg12
S'Slingsby, A.'
p1962
ssS'A136'
p1963
(dp1964
g3
g362
sg12
S'Dykes, J.'
p1965
ssS'A135'
p1966
(dp1967
g3
g1162
sg12
S'Goodwin, S.'
p1968
ssS'A134'
p1969
(dp1970
g3
g1927
sg12
S'van Wijk, J.J.'
p1971
ssS'A807'
p1972
(dp1973
g3
(lp1974
g25
asg12
S'Jewitt, T.'
p1975
ssS'A657'
p1976
(dp1977
g3
(lp1978
S'graph visualization'
p1979
aS'visual clutter'
p1980
aS'mesh'
p1981
aS'edge clustering'
p1982
asg12
S'Xiaoming Li'
p1983
ssS'A806'
p1984
(dp1985
g3
(lp1986
g25
asg12
S'Brodbeck, D.'
p1987
ssS'A1231'
p1988
(dp1989
g3
g145
sg12
S'Pottier, M.'
p1990
ssS'A805'
p1991
(dp1992
g3
(lp1993
g25
asg12
S'Ahlberg, C.'
p1994
ssS'A436'
p1995
(dp1996
g3
(lp1997
S'performance analysis'
p1998
aS'network traffic visualization'
p1999
aS'projected graph layouts'
p2000
asg12
S'Langer, S.'
p2001
ssS'A437'
p2002
(dp2003
g3
g1997
sg12
S'Pascucci, V.'
p2004
ssS'A434'
p2005
(dp2006
g3
g1997
sg12
S'Landge, A.G.'
p2007
ssS'A435'
p2008
(dp2009
g3
g1997
sg12
S'Levine, J.A.'
p2010
ssS'A432'
p2011
(dp2012
g3
g1057
sg12
S'Gahegan, M.'
p2013
ssS'A433'
p2014
(dp2015
g3
(lp2016
S'uncertainty visualization'
p2017
aS'uncertainty quantification'
p2018
aS'uncertainty propagation'
p2019
aS'error ellipsoids'
p2020
aS'uncertainty fusion'
p2021
asg12
S'Guo-Xun Yuan'
p2022
ssS'A430'
p2023
(dp2024
g3
g1819
sg12
S'Li, B.'
p2025
ssS'A431'
p2026
(dp2027
g3
g1057
sg12
S'Swingley, D.'
p2028
ssS'A825'
p2029
(dp2030
g3
(lp2031
S'visualization of graphs'
p2032
aS'adjacency matrices'
p2033
aS'node-link representation'
p2034
aS'readability'
p2035
aS'evaluation'
p2036
asg12
S'Castagliola, P.'
p2037
ssS'A803'
p2038
(dp2039
g3
(lp2040
S'focus+context'
p2041
aS'fisheye'
p2042
aS'information visualization'
p2043
aS'table lens'
p2044
asg12
S'Rao, R.'
p2045
ssS'A827'
p2046
(dp2047
g3
(lp2048
g25
asg12
S'White, H.D.'
p2049
ssS'A826'
p2050
(dp2051
g3
g1033
sg12
S'Kreuseler, M.'
p2052
ssS'A821'
p2053
(dp2054
g3
(lp2055
S'data visualization'
p2056
aS'empirical evaluation'
p2057
aS'insight'
p2058
aS'high throughput experiments'
p2059
aS'microarray data'
p2060
aS'bioinformatics'
p2061
asg12
S'Saraiya, P.'
p2062
ssS'A820'
p2063
(dp2064
g3
(lp2065
S'situation awareness'
p2066
aS'network intrusion'
p2067
aS'visualization'
p2068
asg12
S'Foresti, S.'
p2069
ssS'A438'
p2070
(dp2071
g3
(lp2072
S'clustering'
p2073
aS'aggregate visualization'
p2074
aS'student performance analysis'
p2075
aS'visualization composition'
p2076
asg12
S'Trimm, D.'
p2077
ssS'A439'
p2078
(dp2079
g3
(lp2080
S'temporal visualization'
p2081
aS'time-dependent attributes'
p2082
aS'spatial data'
p2083
aS'multi-attribute visualization'
p2084
aS'resource allocation'
p2085
asg12
S'Rheingans, P.'
p2086
ssS'A801'
p2087
(dp2088
g3
(lp2089
S'source code visualization'
p2090
aS'multiple views'
p2091
aS'treemaps'
p2092
aS'pixel-filling displays'
p2093
aS'source code analysis'
p2094
asg12
S'Nossin, F.'
p2095
ssS'A800'
p2096
(dp2097
g3
g2089
sg12
S'Lommerse, G.'
p2098
ssS'A227'
p2099
(dp2100
g3
(lp2101
S'visual analytics'
p2102
aS'pen and touch'
p2103
aS'user interfaces'
p2104
aS'interaction design'
p2105
aS'coordinated and multiple views'
p2106
asg12
S'Zgraggen, E.'
p2107
ssS'A226'
p2108
(dp2109
g3
(lp2110
S'design study'
p2111
aS'investigative journalism'
p2112
aS'task and requirements analysis'
p2113
aS'text and document data'
p2114
aS'text analysis'
p2115
asg12
S'Stray, J.'
p2116
ssS'A225'
p2117
(dp2118
g3
g2110
sg12
S'Ingram, S.'
p2119
ssS'A224'
p2120
(dp2121
g3
(lp2122
S'flow mapping'
p2123
aS'kernel smoothing'
p2124
aS'generalization'
p2125
aS'multi-resolution mapping'
p2126
aS'graph drawing'
p2127
aS'spatial data mining'
p2128
asg12
S'Xi Zhu'
p2129
ssS'A223'
p2130
(dp2131
g3
g1663
sg12
S'Diansheng Guo'
p2132
ssS'A222'
p2133
(dp2134
g3
(lp2135
S'orders of magnitude'
p2136
aS'bar charts'
p2137
aS'logarithmic scale'
p2138
asg12
S'Dearden, J.'
p2139
ssS'A221'
p2140
(dp2141
g3
(lp2142
S'set visualization'
p2143
aS'information visualization'
p2144
aS'direct manipulation'
p2145
aS'euler diagrams'
p2146
aS'interaction'
p2147
aS'logical operations'
p2148
asg12
S'Dove, A.'
p2149
ssS'A220'
p2150
(dp2151
g3
g2142
sg12
S'Major, T.'
p2152
ssS'A340'
p2153
(dp2154
g3
g325
sg12
S'Mazurek, M.L.'
p2155
ssS'A341'
p2156
(dp2157
g3
g325
sg12
S'Ganger, G.R.'
p2158
ssS'A342'
p2159
(dp2160
g3
(lp2161
S'visualization taxonomy'
p2162
aS'information visualization'
p2163
aS'memorability'
p2164
asg12
S'Vo, A.A.'
p2165
ssS'A343'
p2166
(dp2167
g3
g2161
sg12
S'Isola, P.'
p2168
ssS'A344'
p2169
(dp2170
g3
g2161
sg12
S'Sunkavalli, S.'
p2171
ssS'A345'
p2172
(dp2173
g3
(lp2174
S'graph'
p2175
aS'visualization'
p2176
aS'curved edges'
p2177
aS'evaluation'
p2178
asg12
S'Kai Xu'
p2179
ssS'A229'
p2180
(dp2181
g3
(lp2182
S'visualization systems'
p2183
aS'toolkit design'
p2184
aS'data transformation and representation'
p2185
asg12
S'Drucker, S.'
p2186
ssS'A228'
p2187
(dp2188
g3
g2101
sg12
S'Zeleznik, R.'
p2189
ssS'A1047'
p2190
(dp2191
g3
(lp2192
S'information visualization'
p2193
aS'graph drawing'
p2194
aS'visualization of time-series data'
p2195
aS'data mining'
p2196
asg12
S'Muller, W.'
p2197
ssS'A1046'
p2198
(dp2199
g3
g2192
sg12
S'Alexa, M.'
p2200
ssS'A1045'
p2201
(dp2202
g3
g2192
sg12
S'Weber, M.'
p2203
ssS'A1044'
p2204
(dp2205
g3
g1530
sg12
S'Jones, J.A.'
p2206
ssS'A1043'
p2207
(dp2208
g3
g1530
sg12
S'Harrold, M.J.'
p2209
ssS'A1042'
p2210
(dp2211
g3
(lp2212
g25
asg12
S'Hsu, M.'
p2213
ssS'A1041'
p2214
(dp2215
g3
(lp2216
g25
asg12
S'Ladisch, J.'
p2217
ssS'A1040'
p2218
(dp2219
g3
(lp2220
g25
asg12
S'Miller, N.'
p2221
ssS'A1049'
p2222
(dp2223
g3
(lp2224
S'information visualization'
p2225
aS'spreadsheet'
p2226
aS'sensemaking'
p2227
aS'world wide web'
p2228
aS'information ecologies'
p2229
aS'log file analysis'
p2230
asg12
S'Chi, E.H.'
p2231
ssS'A1048'
p2232
(dp2233
g3
g1033
sg12
S'Lopez, N.'
p2234
ssS'A1228'
p2235
(dp2236
g3
g145
sg12
S'Wise, J.A.'
p2237
ssS'A1168'
p2238
(dp2239
g3
(lp2240
g25
asg12
S'Kaufman, A.'
p2241
ssS'A1169'
p2242
(dp2243
g3
(lp2244
g25
asg12
S'Alper, N.'
p2245
ssS'A907'
p2246
(dp2247
g3
(lp2248
S'topological fisheye'
p2249
aS'large graph visualization'
p2250
asg12
S'Gansner, E.'
p2251
ssS'A1164'
p2252
(dp2253
g3
(lp2254
g25
asg12
S'Ilgen, M.R.'
p2255
ssS'A1165'
p2256
(dp2257
g3
g1891
sg12
S'Cowperthwaite, D.J.'
p2258
ssS'A1166'
p2259
(dp2260
g3
g1474
sg12
S'Crabb, A.H.'
p2261
ssS'A1167'
p2262
(dp2263
g3
g2240
sg12
S'Varshney, A.'
p2264
ssS'A1160'
p2265
(dp2266
g3
(lp2267
S'information visualization'
p2268
aS'physically-based systems'
p2269
aS'multidimensional information space'
p2270
aS'hierarchies'
p2271
aS'blobby clustering'
p2272
asg12
S'Finger, J.'
p2273
ssS'A1161'
p2274
(dp2275
g3
(lp2276
g25
asg12
S'Bentley, C.L.'
p2277
ssS'A1162'
p2278
(dp2279
g3
g1445
sg12
S'Feiner, S.'
p2280
ssS'A1163'
p2281
(dp2282
g3
g2254
sg12
S'Rushall, D.A.'
p2283
ssS'A1226'
p2284
(dp2285
g3
(lp2286
g25
asg12
S'Dawkes, H.'
p2287
ssS'A749'
p2288
(dp2289
g3
g433
sg12
S'Di Battista, G.'
p2290
ssS'A984'
p2291
(dp2292
g3
(lp2293
g25
asg12
S'Quang Vinh Nguyen'
p2294
ssS'A986'
p2295
(dp2296
g3
(lp2297
S'algebraic multigrid'
p2298
aS'multiscale/multilevel optimization'
p2299
aS'graph drawing'
p2300
aS'generalized eigenvalue problem'
p2301
aS'fiedler vector'
p2302
aS'force directed layout'
p2303
aS'the hall energy'
p2304
asg12
S'Harel, D.'
p2305
ssS'A901'
p2306
(dp2307
g3
g287
sg12
S'Lu, D.'
p2308
ssS'A843'
p2309
(dp2310
g3
g333
sg12
S'Stanton, E.'
p2311
ssS'A919'
p2312
(dp2313
g3
(lp2314
g25
asg12
S'Krishnaswamy, P.'
p2315
ssS'A858'
p2316
(dp2317
g3
g1624
sg12
S'Seneker, D.'
p2318
ssS'A859'
p2319
(dp2320
g3
g1182
sg12
S'Davison, G.'
p2321
ssS'A911'
p2322
(dp2323
g3
(lp2324
S'information visualization'
p2325
aS'visual clustering'
p2326
aS'density-based visualization'
p2327
aS'visual data mining'
p2328
asg12
S'de Oliveira, M.C.F.'
p2329
ssS'A910'
p2330
(dp2331
g3
g2324
sg12
S'Artero, A.O.'
p2332
ssS'A913'
p2333
(dp2334
g3
(lp2335
g25
asg12
S'Kobsa, A.'
p2336
ssS'A912'
p2337
(dp2338
g3
g2324
sg12
S'Levkowitz, H.'
p2339
ssS'A915'
p2340
(dp2341
g3
g42
sg12
S'Huang Shiping'
p2342
ssS'A588'
p2343
(dp2344
g3
(lp2345
S'bioinformatics visualization'
p2346
aS'design study'
p2347
aS'dna sequence'
p2348
aS'genome assembly'
p2349
asg12
S'Jones, S.J.M.'
p2350
ssS'A917'
p2351
(dp2352
g3
(lp2353
g25
asg12
S'Keahey, T.A.'
p2354
ssS'A916'
p2355
(dp2356
g3
g42
sg12
S'Nishant Mehta'
p2357
ssS'A1026'
p2358
(dp2359
g3
(lp2360
g25
asg12
S'Wylie, B.'
p2361
ssS'A589'
p2362
(dp2363
g3
(lp2364
S'interactive visual exploration'
p2365
aS'event-based data'
p2366
aS'sequence identification'
p2367
aS'graph similarity'
p2368
aS'node similarity'
p2369
asg12
S'Vrotsou, K.'
p2370
ssS'A889'
p2371
(dp2372
g3
(lp2373
S'graph visualization'
p2374
aS'graph navigation'
p2375
aS'metrics'
p2376
aS'clustering'
p2377
asg12
S'Melancon, G.'
p2378
ssS'A681'
p2379
(dp2380
g3
(lp2381
S'spatiotemporal visualization'
p2382
aS'time series data'
p2383
aS'video visualization'
p2384
aS'sensor analytics'
p2385
aS'image/video analytics'
p2386
asg12
S'Summet, J.'
p2387
ssS'A680'
p2388
(dp2389
g3
g2381
sg12
S'Romero, M.'
p2390
ssS'A683'
p2391
(dp2392
g3
(lp2393
S'visual query languages'
p2394
aS'radial visualization'
p2395
aS'data analysis'
p2396
aS'human-computer interaction'
p2397
asg12
S'Draper, G.'
p2398
ssS'A682'
p2399
(dp2400
g3
g2381
sg12
S'Abowd, G.'
p2401
ssS'A685'
p2402
(dp2403
g3
(lp2404
S'sampling'
p2405
aS'random sampling'
p2406
aS'lens'
p2407
aS'clutter'
p2408
aS'occlusion'
p2409
aS'density reduction'
p2410
aS'overplotting'
p2411
aS'information visualisation'
p2412
aS'parallel coordinates'
p2413
asg12
S'Ellis, G.'
p2414
ssS'A684'
p2415
(dp2416
g3
g2393
sg12
S'Riesenfeld, R.F.'
p2417
ssS'A687'
p2418
(dp2419
g3
(lp2420
S'graphical visualization'
p2421
aS'interactive information retrieval'
p2422
aS'faceted metadata'
p2423
asg12
S'Tan, D.S.'
p2424
ssS'A686'
p2425
(dp2426
g3
g2404
sg12
S'Dix, A.'
p2427
ssS'A689'
p2428
(dp2429
g3
g394
sg12
S'Pousman, Z.'
p2430
ssS'A688'
p2431
(dp2432
g3
g1548
sg12
S'Blanch, R.'
p2433
ssS'A760'
p2434
(dp2435
g3
g197
sg12
S'Barford, A.'
p2436
ssS'A761'
p2437
(dp2438
g3
g197
sg12
S'Newman, M.'
p2439
ssS'A766'
p2440
(dp2441
g3
(lp2442
S'cognitive walkthrough'
p2443
aS'usability inspection methods'
p2444
aS'bibliographic networks'
p2445
asg12
S'Proctor, J.'
p2446
ssS'A767'
p2447
(dp2448
g3
g2442
sg12
S'Sturtz, D.'
p2449
ssS'A764'
p2450
(dp2451
g3
g2442
sg12
S'Aluker, S.'
p2452
ssS'A765'
p2453
(dp2454
g3
g2442
sg12
S'Panjwani, G.'
p2455
ssS'A46'
p2456
(dp2457
g3
g1449
sg12
S'Marriott, K.'
p2458
ssS'A47'
p2459
(dp2460
g3
g1449
sg12
S'Wybrow, M.'
p2461
ssS'A44'
p2462
(dp2463
g3
(lp2464
S'graph layout'
p2465
aS'orthogonal layout'
p2466
aS'automatic layout algorithms'
p2467
aS'user-generated layout'
p2468
aS'graph-drawing aesthetics'
p2469
asg12
S'Kieffer, S.'
p2470
ssS'A45'
p2471
(dp2472
g3
(lp2473
S'network visualization'
p2474
aS'graph drawing'
p2475
aS'power graph'
p2476
aS'optimization'
p2477
aS'large-neighborhood search'
p2478
asg12
S'Klein, K.'
p2479
ssS'A42'
p2480
(dp2481
g3
(lp2482
g25
asg12
S'Dwyer, T.'
p2483
ssS'A43'
p2484
(dp2485
g3
g2473
sg12
S'Gange, G.'
p2486
ssS'A40'
p2487
(dp2488
g3
(lp2489
S'information visualization'
p2490
aS'time series'
p2491
aS'space-filling layout generation'
p2492
asg12
S'Schreck, T.'
p2493
ssS'A41'
p2494
(dp2495
g3
g2473
sg12
S'Yoghourdjian, V.'
p2496
ssS'A865'
p2497
(dp2498
g3
(lp2499
g25
asg12
S'Kerne, A.'
p2500
ssS'A993'
p2501
(dp2502
g3
g765
sg12
S'Nowell, L.'
p2503
ssS'A852'
p2504
(dp2505
g3
g1624
sg12
S'Myers, E.'
p2506
ssS'A48'
p2507
(dp2508
g3
g460
sg12
S'Sukwon Lee'
p2509
ssS'A49'
p2510
(dp2511
g3
g899
sg12
S'Sung-Hee Kim'
p2512
ssS'A853'
p2513
(dp2514
g3
g1624
sg12
S'Coppin, P.'
p2515
ssS'A867'
p2516
(dp2517
g3
(lp2518
g25
asg12
S'Wright, W.'
p2519
ssS'A854'
p2520
(dp2521
g3
g1624
sg12
S'Wagner, M.'
p2522
ssS'A866'
p2523
(dp2524
g3
(lp2525
S'3-d visualization'
p2526
aS'spatiotemporal'
p2527
aS'geospatial'
p2528
aS'interactive visualization'
p2529
aS'visual data analysis'
p2530
aS'link analysis'
p2531
asg12
S'Kapler, T.'
p2532
ssS'A829'
p2533
(dp2534
g3
g2048
sg12
S'Buzydlowski, J.'
p2535
ssS'A1227'
p2536
(dp2537
g3
g2286
sg12
S'Hua Su'
p2538
ssS'A985'
p2539
(dp2540
g3
g2293
sg12
S'Mao Lin Huang'
p2541
ssS'A968'
p2542
(dp2543
g3
(lp2544
g25
asg12
S'Morrison, A.'
p2545
ssS'A850'
p2546
(dp2547
g3
(lp2548
S'information visualisation'
p2549
aS'navigation'
p2550
aS'document retrieval'
p2551
aS'hierarchical repositories'
p2552
aS'knowledge management'
p2553
aS'information management'
p2554
aS'force-directed placement'
p2555
aS'voronoi'
p2556
asg12
S'Sabol, V.'
p2557
ssS'A618'
p2558
(dp2559
g3
g573
sg12
S'Botha, C.P.'
p2560
ssS'A619'
p2561
(dp2562
g3
g573
sg12
S'Grundy, E.'
p2563
ssS'A616'
p2564
(dp2565
g3
(lp2566
S'investigative analysis'
p2567
aS'transaction analysis'
p2568
aS'information visualization'
p2569
aS'multiple views'
p2570
aS'time series data'
p2571
aS'multiple attributes'
p2572
aS'categorical data'
p2573
asg12
S'Sullivan, T.'
p2574
ssS'A617'
p2575
(dp2576
g3
g573
sg12
S'Blaas, J.'
p2577
ssS'A614'
p2578
(dp2579
g3
g823
sg12
S'Peihong Guo'
p2580
ssS'A615'
p2581
(dp2582
g3
g823
sg12
S'He Xiao'
p2583
ssS'A612'
p2584
(dp2585
g3
(lp2586
S'treemap'
p2587
aS'evaluation'
p2588
aS'user studies'
p2589
aS'digital library'
p2590
aS'digital repository'
p2591
aS'search engine'
p2592
aS'search visualization'
p2593
aS'infovis'
p2594
asg12
S'Desai, K.'
p2595
ssS'A613'
p2596
(dp2597
g3
g2586
sg12
S'Foley, J.D.'
p2598
ssS'A610'
p2599
(dp2600
g3
(lp2601
S'visualization'
p2602
aS'text'
p2603
aS'tag cloud'
p2604
aS'participatory culture'
p2605
aS'memory'
p2606
aS'educational visualization'
p2607
aS'social data analysis'
p2608
asg12
S'Feinberg, J.'
p2609
ssS'A611'
p2610
(dp2611
g3
g2586
sg12
S'Clarkson, E.'
p2612
ssS'A1224'
p2613
(dp2614
g3
g2286
sg12
S'Spence, B.'
p2615
ssS'A469'
p2616
(dp2617
g3
(lp2618
g25
asg12
S'Czerwinski, M.'
p2619
ssS'A468'
p2620
(dp2621
g3
g1646
sg12
S'Alper, B.'
p2622
ssS'A465'
p2623
(dp2624
g3
(lp2625
S'visual links'
p2626
aS'highlighting'
p2627
aS'connectedness'
p2628
aS'routing'
p2629
aS'image-based'
p2630
aS'saliency'
p2631
asg12
S'Waldner, M.'
p2632
ssS'A464'
p2633
(dp2634
g3
g2625
sg12
S'Steinberger, M.'
p2635
ssS'A467'
p2636
(dp2637
g3
(lp2638
S'information visualization'
p2639
aS'user interfaces'
p2640
aS'toolkits'
p2641
aS'2d graphics'
p2642
asg12
S'Ogievetsky, V.'
p2643
ssS'A466'
p2644
(dp2645
g3
(lp2646
S'information visualization'
p2647
aS'user interfaces'
p2648
aS'toolkits'
p2649
aS'2d graphics'
p2650
asg12
S'Bostock, M.'
p2651
ssS'A461'
p2652
(dp2653
g3
(lp2654
S'incremental visualization'
p2655
aS'event-based data'
p2656
aS'lens distortion'
p2657
asg12
S'Krstajic, M.'
p2658
ssS'A460'
p2659
(dp2660
g3
g1921
sg12
S'Filzmoser, P.'
p2661
ssS'A463'
p2662
(dp2663
g3
g1942
sg12
S'Willems, N.'
p2664
ssS'A462'
p2665
(dp2666
g3
(lp2667
g25
asg12
S'Keim, D.A.'
p2668
ssS'A982'
p2669
(dp2670
g3
(lp2671
S'parallel coordinates'
p2672
aS'focus+context'
p2673
aS'hierarchical data'
p2674
aS'satisfaction survey'
p2675
asg12
S'Girardin, L.'
p2676
ssS'A1225'
p2677
(dp2678
g3
g2286
sg12
S'Tweedie, L.'
p2679
ssS'A1220'
p2680
(dp2681
g3
(lp2682
g25
asg12
S'Jerding, D.F.'
p2683
ssS'A33'
p2684
(dp2685
g3
(lp2686
S"weber's law"
p2687
aS'perception of correlation'
p2688
aS'log transformation'
p2689
aS'censored regression'
p2690
aS'bayesian methods'
p2691
asg12
S'Kay, M.'
p2692
ssS'A32'
p2693
(dp2694
g3
g2161
sg12
S'Oliva, A.'
p2695
ssS'A31'
p2696
(dp2697
g3
(lp2698
S'information visualization'
p2699
aS'design study'
p2700
aS'bioinformatics'
p2701
aS'synteny'
p2702
asg12
S'Pfister, H.'
p2703
ssS'A30'
p2704
(dp2705
g3
(lp2706
S'information visualization'
p2707
aS'memorability'
p2708
aS'recognition'
p2709
aS'recall'
p2710
aS'eye-tracking study'
p2711
asg12
S'Borkin, D.'
p2712
ssS'A37'
p2713
(dp2714
g3
(lp2715
S'document visualization'
p2716
aS'visual summary'
p2717
aS'content extraction'
p2718
aS'document collection browsing'
p2719
asg12
S'Strobelt, H.'
p2720
ssS'A36'
p2721
(dp2722
g3
(lp2723
S'multidimensional visualization'
p2724
aS'perception'
p2725
aS'3d glyphs'
p2726
asg12
S'Forsell, C.'
p2727
ssS'A35'
p2728
(dp2729
g3
g214
sg12
S'Johansson, J.'
p2730
ssS'A34'
p2731
(dp2732
g3
(lp2733
S'social networks'
p2734
aS'visualization'
p2735
aS'graphs'
p2736
aS'community'
p2737
aS'data mining'
p2738
aS'exploration'
p2739
aS'play'
p2740
asg12
S'Heer, J.'
p2741
ssS'A869'
p2742
(dp2743
g3
g782
sg12
S'Cluxton, D.'
p2744
ssS'A868'
p2745
(dp2746
g3
(lp2747
g25
asg12
S'Pin Ren'
p2748
ssS'A39'
p2749
(dp2750
g3
(lp2751
S'text highlighting techniques'
p2752
aS'visual document analytics'
p2753
aS'text annotation'
p2754
aS'crowdsourced study'
p2755
asg12
S'Bum Chul Kwon'
p2756
ssS'A38'
p2757
(dp2758
g3
g2715
sg12
S'Oelke, D.'
p2759
ssS'A1223'
p2760
(dp2761
g3
(lp2762
g25
asg12
S'Golovchinsky, G.'
p2763
ssS'A1034'
p2764
(dp2765
g3
g746
sg12
S'Syroid, N.'
p2766
ssS'A1221'
p2767
(dp2768
g3
g2762
sg12
S'Reichenberger, K.'
p2769
ssS'A983'
p2770
(dp2771
g3
(lp2772
S'network evolution'
p2773
aS'network visualization'
p2774
aS'co-citation networks'
p2775
aS'pathfinder networks'
p2776
aS'minimum spanning trees'
p2777
asg12
S'Morris, S.'
p2778
ssS'A521'
p2779
(dp2780
g3
(lp2781
S'compound graph'
p2782
aS'network and tree'
p2783
aS'treenetviz'
p2784
aS'visualization'
p2785
aS'multiscale and cross-scale'
p2786
asg12
S'Xiaolong Zhang'
p2787
ssS'A1148'
p2788
(dp2789
g3
(lp2790
g25
asg12
S'Reiss, S.P.'
p2791
ssS'A388'
p2792
(dp2793
g3
(lp2794
S'lineups'
p2795
aS'visual inference'
p2796
aS'power comparison'
p2797
aS'efficiency of displays'
p2798
asg12
S'Majumder, M.'
p2799
ssS'A389'
p2800
(dp2801
g3
g1513
sg12
S'Cook, D.'
p2802
ssS'A384'
p2803
(dp2804
g3
g1182
sg12
S'Balakrishnan, R.'
p2805
ssS'A385'
p2806
(dp2807
g3
(lp2808
S'graphical perception'
p2809
aS'visualization'
p2810
aS'treemaps'
p2811
aS'rectangular area'
p2812
aS'visual encoding'
p2813
aS'experiment'
p2814
aS'mechanical turk'
p2815
asg12
S'Kong, N.'
p2816
ssS'A386'
p2817
(dp2818
g3
(lp2819
S'design patterns'
p2820
aS'information visualization'
p2821
aS'software engineering'
p2822
aS'object-oriented programming'
p2823
asg12
S'Agrawala, M.'
p2824
ssS'A387'
p2825
(dp2826
g3
g2794
sg12
S'Follett, L.'
p2827
ssS'A380'
p2828
(dp2829
g3
g925
sg12
S'Christoph, B.'
p2830
ssS'A381'
p2831
(dp2832
g3
g925
sg12
S'Grechenig, T.'
p2833
ssS'A382'
p2834
(dp2835
g3
g636
sg12
S'Gotz, D.'
p2836
ssS'A383'
p2837
(dp2838
g3
g1702
sg12
S'Jian Zhao'
p2839
ssS'A142'
p2840
(dp2841
g3
(lp2842
S'information visualization'
p2843
aS'taxonomy'
p2844
aS'design space'
p2845
aS'morphological analysis'
p2846
asg12
S'Mackinlay, J.'
p2847
ssS'A143'
p2848
(dp2849
g3
(lp2850
S'user interfaces'
p2851
aS'information visualization'
p2852
aS'exploratory analysis'
p2853
aS'visualization recommendation'
p2854
aS'mixed-initiative systems'
p2855
asg12
S'Howe, B.'
p2856
ssS'A140'
p2857
(dp2858
g3
(lp2859
S'outflow'
p2860
aS'information visualization'
p2861
aS'temporal event sequences'
p2862
aS'state diagram'
p2863
aS'state transition'
p2864
asg12
S'Wongsuphasawat, K.'
p2865
ssS'A141'
p2866
(dp2867
g3
g2850
sg12
S'Moritz, D.'
p2868
ssS'A146'
p2869
(dp2870
g3
(lp2871
S'physical visualizations'
p2872
aS'activity sculptures'
p2873
aS'physical activity'
p2874
aS'data sculptures'
p2875
aS'behavioral change'
p2876
asg12
S'Stusak, S.'
p2877
ssS'A147'
p2878
(dp2879
g3
g2871
sg12
S'Tabard, A.'
p2880
ssS'A144'
p2881
(dp2882
g3
(lp2883
S'literacy'
p2884
aS'visualization literacy'
p2885
aS'rasch model'
p2886
aS'item response theory'
p2887
asg12
S'Rensink, R.A.'
p2888
ssS'A145'
p2889
(dp2890
g3
g1875
sg12
S'Bertini, E.'
p2891
ssS'A263'
p2892
(dp2893
g3
g1218
sg12
S'Hullman, J.'
p2894
ssS'A262'
p2895
(dp2896
g3
(lp2897
S'treemaps'
p2898
aS'ordered treemaps'
p2899
aS'trees'
p2900
aS'hierarchies'
p2901
aS'information visualization'
p2902
asg12
S'Wattenberg, M.'
p2903
ssS'A261'
p2904
(dp2905
g3
(lp2906
S'mix effects'
p2907
aS'omitted variable bias'
p2908
aS"simpson's paradox"
p2909
aS'statistics'
p2910
asg12
S'Armstrong, Z.'
p2911
ssS'A260'
p2912
(dp2913
g3
(lp2914
S'visualization'
p2915
aS'taxonomy'
p2916
aS'classification'
p2917
aS'design model'
p2918
aS'user model'
p2919
aS'conceptual model'
p2920
asg12
S'Moller, T.'
p2921
ssS'A267'
p2922
(dp2923
g3
g1605
sg12
S'Adar, E.'
p2924
ssS'A266'
p2925
(dp2926
g3
(lp2927
S'graph drawing'
p2928
aS'animation'
p2929
aS'interaction'
p2930
asg12
S'Fisher, D.'
p2931
ssS'A265'
p2932
(dp2933
g3
g2618
sg12
S'Bongshin Lee'
p2934
ssS'A264'
p2935
(dp2936
g3
(lp2937
S'information visualization'
p2938
aS'euler diagrams'
p2939
aS'set visualization'
p2940
aS'graph visualization'
p2941
asg12
S'Riche, N.H.'
p2942
ssS'A1120'
p2943
(dp2944
g3
(lp2945
S'visualization'
p2946
aS'information retrieval'
p2947
aS'clustering algorithms'
p2948
aS'textual information'
p2949
asg12
S'Min Song'
p2950
ssS'A1121'
p2951
(dp2952
g3
(lp2953
S'proteins'
p2954
aS'structure'
p2955
aS'alignment'
p2956
aS'fold recognition'
p2957
aS'threading'
p2958
aS'similarity'
p2959
aS'glyphs'
p2960
aS'streamlines'
p2961
aS'ribbons'
p2962
aS'amino acids'
p2963
asg12
S'Hansen, M.'
p2964
ssS'A1089'
p2965
(dp2966
g3
g2212
sg12
S"D'Eletto, R."
p2967
ssS'A1088'
p2968
(dp2969
g3
g2212
sg12
S'Baker, J.'
p2970
ssS'A1124'
p2971
(dp2972
g3
g238
sg12
S'Chuah, M.C.'
p2973
ssS'A1125'
p2974
(dp2975
g3
(lp2976
g25
asg12
S'Boscoe, F.P.'
p2977
ssS'A578'
p2978
(dp2979
g3
(lp2980
S'information visualization'
p2981
aS'animation'
p2982
aS'trends'
p2983
aS'design'
p2984
aS'experiment'
p2985
asg12
S'Fernandez, R.'
p2986
ssS'A1127'
p2987
(dp2988
g3
g2267
sg12
S'Sprenger, T.C.'
p2989
ssS'A1083'
p2990
(dp2991
g3
(lp2992
g25
asg12
S'Ribler, R. L.'
p2993
ssS'A1082'
p2994
(dp2995
g3
(lp2996
S'focus+context visualization'
p2997
aS'information visualization'
p2998
aS'fisheye views'
p2999
aS'formal methods'
p3000
aS'theory'
p3001
asg12
S'Redstrom, J.'
p3002
ssS'A1081'
p3003
(dp3004
g3
g2996
sg12
S'Bjork, S.'
p3005
ssS'A1080'
p3006
(dp3007
g3
g160
sg12
S'Weber, J.D.'
p3008
ssS'A1087'
p3009
(dp3010
g3
(lp3011
S'information visualization'
p3012
aS'3d user interfaces'
p3013
aS'spreadsheets'
p3014
aS'inter-cell dependencies'
p3015
aS'lifting-up operation'
p3016
aS'natto view'
p3017
asg12
S'Matsushita, Y.'
p3018
ssS'A359'
p3019
(dp3020
g3
(lp3021
S'bayesian reasoning'
p3022
aS'base rate fallacy'
p3023
aS'probabilistic judgment'
p3024
aS'euler diagrams'
p3025
aS'glyphs'
p3026
aS'crowdsourcing'
p3027
asg12
S'Micallef, L.'
p3028
ssS'A1085'
p3029
(dp3030
g3
g3011
sg12
S'Shiozawa, H.'
p3031
ssS'A1084'
p3032
(dp3033
g3
g2992
sg12
S'Abrams, M.'
p3034
ssS'A546'
p3035
(dp3036
g3
(lp3037
S'empirical study'
p3038
aS'visualization'
p3039
aS'visualization construction'
p3040
aS'visual analytics'
p3041
aS'visual mapping'
p3042
aS'novices'
p3043
asg12
S'Grammel, L.'
p3044
ssS'A547'
p3045
(dp3046
g3
(lp3047
S'nested graphs'
p3048
aS'pan and zoom'
p3049
aS'fisheye views'
p3050
aS'hypertext'
p3051
aS'mental map'
p3052
aS'software visualization'
p3053
aS'program understanding'
p3054
asg12
S'Storey, M.'
p3055
ssS'A544'
p3056
(dp3057
g3
(lp3058
S'information visualization'
p3059
aS'bioinformatics'
p3060
aS'insight-based evaluation'
p3061
asg12
S'Ritz, A.M.'
p3062
ssS'A358'
p3063
(dp3064
g3
(lp3065
S'visual embellishments'
p3066
aS'metaphors'
p3067
aS'icons'
p3068
aS'cognition'
p3069
aS'working memory'
p3070
aS'long-term memory'
p3071
aS'visual search'
p3072
aS'evaluation'
p3073
asg12
S'Floridi, L.'
p3074
ssS'A542'
p3075
(dp3076
g3
(lp3077
S'gpu-acceleration'
p3078
aS'shader programming'
p3079
aS'interaction'
p3080
aS'high-performance visualization'
p3081
asg12
S'McDonnel, B.'
p3082
ssS'A543'
p3083
(dp3084
g3
g3058
sg12
S"O'Brien, T.M."
p3085
ssS'A540'
p3086
(dp3087
g3
g1513
sg12
S'Buja, A.'
p3088
ssS'A541'
p3089
(dp3090
g3
(lp3091
S'line graphs'
p3092
aS'braided graphs'
p3093
aS'horizon graphs'
p3094
aS'small multiples'
p3095
aS'stacked graphs'
p3096
aS'evaluation'
p3097
aS'design guidelines'
p3098
asg12
S'Javed, W.'
p3099
ssS'A818'
p3100
(dp3101
g3
g2065
sg12
S'Livnat, Y.'
p3102
ssS'A819'
p3103
(dp3104
g3
g2065
sg12
S'Shaun Moon'
p3105
ssS'A548'
p3106
(dp3107
g3
(lp3108
S'interaction design'
p3109
aS'direct manipulation'
p3110
aS'flexibilty-usability tradeoff'
p3111
aS'tag-cloud'
p3112
aS'participatory visualization'
p3113
aS'user study'
p3114
asg12
S'Koh, K.'
p3115
ssS'A549'
p3116
(dp3117
g3
(lp3118
S'uncertainty visualization'
p3119
aS'brushing'
p3120
aS'scatter plots'
p3121
aS'parallel coordinates'
p3122
aS'multivariate data'
p3123
asg12
S'Feng, D.'
p3124
ssS'A851'
p3125
(dp3126
g3
g2548
sg12
S'Klieber, W.'
p3127
ssS'A317'
p3128
(dp3129
g3
(lp3130
S'storylines'
p3131
aS'story-telling visualization'
p3132
aS'user interactions'
p3133
aS'level-of-detail'
p3134
aS'optimization'
p3135
asg12
S'Yang Liu'
p3136
ssS'A316'
p3137
(dp3138
g3
g3130
sg12
S'Mengchen Liu'
p3139
ssS'A315'
p3140
(dp3141
g3
g3130
sg12
S'Enxun Wei'
p3142
ssS'A314'
p3143
(dp3144
g3
(lp3145
S'opinion visualization'
p3146
aS'radial visualization'
p3147
aS'uncertainty visualization'
p3148
asg12
S'Yingcai Wu'
p3149
ssS'A313'
p3150
(dp3151
g3
(lp3152
S'virtual environments'
p3153
aS'world-wide-web'
p3154
aS'visualisation'
p3155
aS'web browsing'
p3156
asg12
S'Smith, G.'
p3157
ssS'A312'
p3158
(dp3159
g3
(lp3160
S'storytelling'
p3161
aS'data presentation'
p3162
aS'sketch'
p3163
aS'pen and touch'
p3164
aS'interaction'
p3165
aS'visualization'
p3166
asg12
S'Kazi, R.H.'
p3167
ssS'A311'
p3168
(dp3169
g3
g1340
sg12
S'Wolff, A.'
p3170
ssS'A310'
p3171
(dp3172
g3
g1340
sg12
S'Spoerhase, J.'
p3173
ssS'A351'
p3174
(dp3175
g3
g1340
sg12
S'Schulz, A.'
p3176
ssS'A319'
p3177
(dp3178
g3
(lp3179
S'business ecosystems'
p3180
aS'market research'
p3181
aS'strategic analysis'
p3182
aS'design study'
p3183
aS'interaction'
p3184
aS'network visualization'
p3185
asg12
S'Clear, T.'
p3186
ssS'A318'
p3187
(dp3188
g3
g3179
sg12
S'Basole, R.C.'
p3189
ssS'A1146'
p3190
(dp3191
g3
g24
sg12
S'Teraoka, T.'
p3192
ssS'A350'
p3193
(dp3194
g3
(lp3195
S'multi-scale map'
p3196
aS'web mapping'
p3197
aS'web cartography'
p3198
aS'web map projection'
p3199
aS'web mercator'
p3200
aS'html5 canvas'
p3201
asg12
S'Jenny, B.'
p3202
ssS'A560'
p3203
(dp3204
g3
(lp3205
S'tag clouds'
p3206
aS'trend visualization'
p3207
aS'multiple line graphs'
p3208
aS'stacked bar charts'
p3209
aS'evaluation'
p3210
asg12
S'Karlson, A.'
p3211
ssS'A1068'
p3212
(dp3213
g3
(lp3214
g25
asg12
S'Flowers, W.C.'
p3215
ssS'A277'
p3216
(dp3217
g3
g960
sg12
S'Karger, D.R.'
p3218
ssS'A1154'
p3219
(dp3220
g3
g2040
sg12
S'Tenev, T.'
p3221
ssS'A1157'
p3222
(dp3223
g3
g3047
sg12
S'Wong, K.'
p3224
ssS'A1156'
p3225
(dp3226
g3
g2353
sg12
S'Robertson, E.L.'
p3227
ssS'A1018'
p3228
(dp3229
g3
(lp3230
g25
asg12
S'Page, W.'
p3231
ssS'A1019'
p3232
(dp3233
g3
(lp3234
S'botanical tree'
p3235
aS'logical tree'
p3236
aS'huge hierarchy'
p3237
aS'strands'
p3238
aS'tree visualization'
p3239
aS'directory tree'
p3240
aS'phyllotaxis'
p3241
asg12
S'Kleiberg, E.'
p3242
ssS'A1153'
p3243
(dp3244
g3
g1986
sg12
S'Cotture, P.'
p3245
ssS'A666'
p3246
(dp3247
g3
(lp3248
S'scale-free network'
p3249
aS'edge filtering'
p3250
aS'betweenness centrality'
p3251
aS'anisotropic shading'
p3252
asg12
S'Yuntao Jia'
p3253
ssS'A1014'
p3254
(dp3255
g3
g3230
sg12
S'Dantone, J.'
p3256
ssS'A1015'
p3257
(dp3258
g3
(lp3259
g25
asg12
S'Gershon, N.'
p3260
ssS'A1016'
p3261
(dp3262
g3
g3230
sg12
S'Dale, J.'
p3263
ssS'A1017'
p3264
(dp3265
g3
g3230
sg12
S'Hamburger, T.'
p3266
ssS'A1010'
p3267
(dp3268
g3
g2927
sg12
S'Ka-Ping Yee'
p3269
ssS'A1011'
p3270
(dp3271
g3
g2927
sg12
S'Dhamija, R.'
p3272
ssS'A1012'
p3273
(dp3274
g3
g2927
sg12
S'Hearst, M.'
p3275
ssS'A1013'
p3276
(dp3277
g3
g3230
sg12
S'Posdamer, J.L.'
p3278
ssS'A82'
p3279
(dp3280
g3
(lp3281
S'information visualization'
p3282
aS'interactivity'
p3283
aS'dimensionality reduction'
p3284
aS'multidimensional scaling'
p3285
asg12
S'Dork, M.'
p3286
ssS'A83'
p3287
(dp3288
g3
g3281
sg12
S'Muller, B.'
p3289
ssS'A80'
p3290
(dp3291
g3
g2698
sg12
S'Meyer, M.'
p3292
ssS'A81'
p3293
(dp3294
g3
g3281
sg12
S'Stahnke, J.'
p3295
ssS'A86'
p3296
(dp3297
g3
(lp3298
S'information visualization'
p3299
aS'systems'
p3300
aS'toolkits'
p3301
aS'declarative specification'
p3302
aS'optimization'
p3303
aS'interaction'
p3304
aS'streaming data'
p3305
asg12
S'Russell, R.'
p3306
ssS'A87'
p3307
(dp3308
g3
g3298
sg12
S'Hoffswell, J.'
p3309
ssS'A84'
p3310
(dp3311
g3
g3281
sg12
S'Thom, A.'
p3312
ssS'A85'
p3313
(dp3314
g3
g3298
sg12
S'Satyanarayan, A.'
p3315
ssS'A1038'
p3316
(dp3317
g3
g746
sg12
S'Strayer, D.'
p3318
ssS'A88'
p3319
(dp3320
g3
g1534
sg12
S'Cohe, A.'
p3321
ssS'A89'
p3322
(dp3323
g3
g1534
sg12
S'Liutkus, B.'
p3324
ssS'A660'
p3325
(dp3326
g3
(lp3327
S'interactive visual analysis'
p3328
aS'multidimensional multivariate data visualization'
p3329
aS'categorical data visualization'
p3330
aS'interactive visualization'
p3331
aS'focus+context visualization'
p3332
aS'multiple coordinated views'
p3333
asg12
S'Freiler, W.'
p3334
ssS'A920'
p3335
(dp3336
g3
(lp3337
g25
asg12
S'Mohammadi-Aragh, M.J.'
p3338
ssS'A921'
p3339
(dp3340
g3
(lp3341
S'information visualization'
p3342
aS'focus+context'
p3343
aS'radial graph layout'
p3344
aS'graph drawing'
p3345
asg12
S'Jankun-Kelly, T.J.'
p3346
ssS'A922'
p3347
(dp3348
g3
(lp3349
g25
asg12
S'Diep, E.'
p3350
ssS'A923'
p3351
(dp3352
g3
g3349
sg12
S'Jacob, R.'
p3353
ssS'A861'
p3354
(dp3355
g3
g416
sg12
S'Schneidewind, J.'
p3356
ssS'A925'
p3357
(dp3358
g3
(lp3359
g25
asg12
S'Levy, S.'
p3360
ssS'A926'
p3361
(dp3362
g3
g2482
sg12
S'Ahmed, A.'
p3363
ssS'A927'
p3364
(dp3365
g3
g2482
sg12
S'Murray, C.'
p3366
ssS'A928'
p3367
(dp3368
g3
g2482
sg12
S'Le Song'
p3369
ssS'A929'
p3370
(dp3371
g3
g2482
sg12
S'Ying Xin Wu'
p3372
ssS'A1057'
p3373
(dp3374
g3
(lp3375
S'information visualization'
p3376
aS'architecture'
p3377
aS'work materials'
p3378
aS'context'
p3379
aS'spatio-temporal order'
p3380
aS'electronic workspace'
p3381
asg12
S'Mogensen, P.'
p3382
ssS'A269'
p3383
(dp3384
g3
(lp3385
S'visual data mining'
p3386
aS'visualization'
p3387
aS'history'
p3388
aS'undo/redo'
p3389
asg12
S'Nocke, T.'
p3390
ssS'A1062'
p3391
(dp3392
g3
(lp3393
g25
asg12
S'Fujishiro, I.'
p3394
ssS'A1064'
p3395
(dp3396
g3
g3393
sg12
S'Furuhata, R.'
p3397
ssS'A268'
p3398
(dp3399
g3
(lp3400
S'inhomogeneous data'
p3401
aS'multiple coordinated views'
p3402
aS'multiform visualization'
p3403
asg12
S'Schulz, H.'
p3404
ssS'A1067'
p3405
(dp3406
g3
g3214
sg12
S'Yang-Pelaez, J.'
p3407
ssS'A1149'
p3408
(dp3409
g3
g238
sg12
S'Kolojejchick, J.'
p3410
ssS'A1170'
p3411
(dp3412
g3
g2244
sg12
S'Stein, C.'
p3413
ssS'A804'
p3414
(dp3415
g3
(lp3416
g25
asg12
S'Andrews, K.'
p3417
ssS'A1212'
p3418
(dp3419
g3
g1993
sg12
S'Wistrand, E.'
p3420
ssS'A1210'
p3421
(dp3422
g3
(lp3423
g25
asg12
S'Wood, A.M.'
p3424
ssS'A996'
p3425
(dp3426
g3
g1371
sg12
S'Conklin, N.'
p3427
ssS'A823'
p3428
(dp3429
g3
g2733
sg12
S'Boyd, D.'
p3430
ssS'A148'
p3431
(dp3432
g3
g2871
sg12
S'Sauka, F.'
p3433
ssS'A991'
p3434
(dp3435
g3
(lp3436
g25
asg12
S'Mei Chuah'
p3437
ssS'A149'
p3438
(dp3439
g3
g2871
sg12
S'Khot, R.A.'
p3440
ssS'A79'
p3441
(dp3442
g3
(lp3443
S'visualization in the humanities'
p3444
aS'design studies'
p3445
aS'text and document data'
p3446
aS'graph/network data'
p3447
asg12
S'Coles, K.'
p3448
ssS'A78'
p3449
(dp3450
g3
g3443
sg12
S'Lein, J.'
p3451
ssS'A77'
p3452
(dp3453
g3
g3443
sg12
S'McCurdy, N.'
p3454
ssS'A76'
p3455
(dp3456
g3
(lp3457
S'parallel coordinates'
p3458
aS'orientation-enhanced parallel coordinates'
p3459
aS'brushing'
p3460
aS'orientation-enhanced brushing'
p3461
aS'data readability'
p3462
aS'data selection'
p3463
asg12
S'Vilanova, A.'
p3464
ssS'A75'
p3465
(dp3466
g3
g3457
sg12
S'Eisemann, E.'
p3467
ssS'A74'
p3468
(dp3469
g3
g3457
sg12
S'Breeuwer, M.'
p3470
ssS'A73'
p3471
(dp3472
g3
g3457
sg12
S'Eisemann, M.'
p3473
ssS'A72'
p3474
(dp3475
g3
g3457
sg12
S'Raidou, R.G.'
p3476
ssS'A71'
p3477
(dp3478
g3
(lp3479
S'start plot'
p3480
aS'multivariate visualization'
p3481
aS'visual analytics'
p3482
asg12
S'Theisel, H.'
p3483
ssS'A70'
p3484
(dp3485
g3
g3479
sg12
S'Lehmann, D.J.'
p3486
ssS'A645'
p3487
(dp3488
g3
(lp3489
S'treemap'
p3490
aS'tree comparison'
p3491
aS'visualize changes'
p3492
aS'treemap layout algorithm'
p3493
asg12
S'Ying Tu'
p3494
ssS'A644'
p3495
(dp3496
g3
(lp3497
S'intellectual structure'
p3498
aS'paper-reference matrix'
p3499
aS'fp-tree'
p3500
aS'co-citation'
p3501
asg12
S'Jiexun Li'
p3502
ssS'A647'
p3503
(dp3504
g3
(lp3505
S'graph layout'
p3506
aS'systems biology visualization'
p3507
aS'small multiples'
p3508
aS'design study'
p3509
asg12
S'Barsky, A.'
p3510
ssS'A646'
p3511
(dp3512
g3
g3489
sg12
S'Han-Wei Shen'
p3513
ssS'A641'
p3514
(dp3515
g3
(lp3516
S'information visualization'
p3517
aS'hasse diagram'
p3518
aS'indexation'
p3519
aS'social photos'
p3520
aS'formal concept analysis'
p3521
aS'galois sub-hierarchy'
p3522
asg12
S'Villerd, J.'
p3523
ssS'A640'
p3524
(dp3525
g3
g3516
sg12
S'Ranwez, S.'
p3526
ssS'A643'
p3527
(dp3528
g3
g2772
sg12
S'Chen, C.'
p3529
ssS'A642'
p3530
(dp3531
g3
g3497
sg12
S'Jian Zhang'
p3532
ssS'A726'
p3533
(dp3534
g3
(lp3535
S'information visualization'
p3536
aS'graph visualization'
p3537
aS'graph clustering'
p3538
asg12
S'Neeraj Krishnan'
p3539
ssS'A727'
p3540
(dp3541
g3
(lp3542
S'detail in context'
p3543
aS'complex logarithm'
p3544
aS'conformal mappings'
p3545
aS'analytic functions'
p3546
aS'interaction'
p3547
asg12
S'Bottger, J.'
p3548
ssS'A724'
p3549
(dp3550
g3
g1774
sg12
S'Healey, C.'
p3551
ssS'A725'
p3552
(dp3553
g3
(lp3554
S'visualization'
p3555
aS'massive data sets'
p3556
aS'graphs'
p3557
aS'hierarchies'
p3558
aS'out-of-core algorithms'
p3559
asg12
S'Abello, J.'
p3560
ssS'A561'
p3561
(dp3562
g3
(lp3563
S'dot plots'
p3564
aS'parallel coordinate plots'
p3565
aS'multidimensional data'
p3566
aS'density-based visualization'
p3567
asg12
S'Tuan Nhon Dang'
p3568
ssS'A648'
p3569
(dp3570
g3
g3505
sg12
S'Gardy, J.'
p3571
ssS'A720'
p3572
(dp3573
g3
g1799
sg12
S'Kaur, I.'
p3574
ssS'A721'
p3575
(dp3576
g3
g1364
sg12
S'Hagh-Shenas, H.'
p3577
ssS'A106'
p3578
(dp3579
g3
g249
sg12
S'Conglei Shi'
p3580
ssS'A107'
p3581
(dp3582
g3
(lp3583
S'temporal data visualization'
p3584
aS'information visualization'
p3585
aS'multidimensional scaling'
p3586
asg12
S'Heulot, N.'
p3587
ssS'A104'
p3588
(dp3589
g3
(lp3590
g25
asg12
S'Fekete, J.'
p3591
ssS'A105'
p3592
(dp3593
g3
g3583
sg12
S'Bach, B.'
p3594
ssS'A102'
p3595
(dp3596
g3
(lp3597
S'suggested interactivity'
p3598
aS'perceived affordances'
p3599
aS'information visualization for the people'
p3600
aS'online visualization'
p3601
asg12
S'Eveillard, L.'
p3602
ssS'A103'
p3603
(dp3604
g3
g3597
sg12
S'Detienne, F.'
p3605
ssS'A100'
p3606
(dp3607
g3
g1490
sg12
S'Moynihan, B.'
p3608
ssS'A101'
p3609
(dp3610
g3
g2883
sg12
S'Boy, J.'
p3611
ssS'A515'
p3612
(dp3613
g3
g1676
sg12
S'Magnor, M.'
p3614
ssS'A514'
p3615
(dp3616
g3
g1676
sg12
S'Lowe, T.'
p3617
ssS'A517'
p3618
(dp3619
g3
g249
sg12
S'Yangqiu Song'
p3620
ssS'A516'
p3621
(dp3622
g3
g249
sg12
S'Li Tan'
p3623
ssS'A458'
p3624
(dp3625
g3
g1261
sg12
S'Freire, J.'
p3626
ssS'A459'
p3627
(dp3628
g3
g1865
sg12
S'Silva, C.T.'
p3629
ssS'A108'
p3630
(dp3631
g3
g3583
sg12
S'Madhyastha, T.'
p3632
ssS'A109'
p3633
(dp3634
g3
g3583
sg12
S'Grabowski, T.'
p3635
ssS'A1123'
p3636
(dp3637
g3
g1090
sg12
S'Pang, A.'
p3638
ssS'A391'
p3639
(dp3640
g3
g1328
sg12
S'Whitney, D.'
p3641
ssS'A1110'
p3642
(dp3643
g3
g713
sg12
S'Lucas, P.'
p3644
ssS'A992'
p3645
(dp3646
g3
(lp3647
g25
asg12
S'Kosslyn, S.M.'
p3648
ssS'A1031'
p3649
(dp3650
g3
(lp3651
S'graph drawing'
p3652
aS'graph visualization'
p3653
aS'force-directed drawing'
p3654
aS'orthogonal drawing'
p3655
aS'node grouping'
p3656
aS'experimental studies'
p3657
asg12
S'Tollis, I.G.'
p3658
ssS'A1112'
p3659
(dp3660
g3
g1427
sg12
S'Rosenblum, M.'
p3661
ssS'A1126'
p3662
(dp3663
g3
g2976
sg12
S'Haug, D.'
p3664
ssS'A1114'
p3665
(dp3666
g3
g449
sg12
S'Moses, Y.'
p3667
ssS'A421'
p3668
(dp3669
g3
(lp3670
S'informal science education'
p3671
aS'collaborative learning'
p3672
aS'large tree visualizations'
p3673
aS'multi-touch interaction'
p3674
asg12
S'Horn, M.S.'
p3675
ssS'A420'
p3676
(dp3677
g3
g3670
sg12
S'Block, F.'
p3678
ssS'A423'
p3679
(dp3680
g3
g3670
sg12
S'Diamond, J.'
p3681
ssS'A422'
p3682
(dp3683
g3
g3670
sg12
S'Phillips, B.C.'
p3684
ssS'A425'
p3685
(dp3686
g3
g3670
sg12
S'Chia Shen'
p3687
ssS'A424'
p3688
(dp3689
g3
g3670
sg12
S'Evans, E.M.'
p3690
ssS'A427'
p3691
(dp3692
g3
(lp3693
S'pen and touch'
p3694
aS'interaction'
p3695
aS'wizard of oz'
p3696
aS'whiteboard'
p3697
aS'data exploration'
p3698
asg12
S'Johns, P.'
p3699
ssS'A426'
p3700
(dp3701
g3
g16
sg12
S'Walny, J.'
p3702
ssS'A429'
p3703
(dp3704
g3
g1057
sg12
S"O'Brien, J."
p3705
ssS'A428'
p3706
(dp3707
g3
g2976
sg12
S'MacEachren, A.M.'
p3708
ssS'A580'
p3709
(dp3710
g3
(lp3711
g25
asg12
S'van Ham, F.'
p3712
ssS'A581'
p3713
(dp3714
g3
(lp3715
S'social networks'
p3716
aS'interactive graph visualization'
p3717
aS'attribute ranking'
p3718
aS'coordinated views'
p3719
aS'exploratory data analysis'
p3720
asg12
S'Perer, A.'
p3721
ssS'A586'
p3722
(dp3723
g3
g2345
sg12
S'Jackman, S.D.'
p3724
ssS'A587'
p3725
(dp3726
g3
g2345
sg12
S'Birol, I.'
p3727
ssS'A584'
p3728
(dp3729
g3
g1371
sg12
S'North, C.'
p3730
ssS'A585'
p3731
(dp3732
g3
g1045
sg12
S'Muigg, P.'
p3733
ssS'A1159'
p3734
(dp3735
g3
g3047
sg12
S'Muller, H.A.'
p3736
ssS'A1051'
p3737
(dp3738
g3
(lp3739
g25
asg12
S'Abdo, H.'
p3740
ssS'A579'
p3741
(dp3742
g3
g2182
sg12
S'Ruble, S.'
p3743
ssS'A1086'
p3744
(dp3745
g3
g3011
sg12
S'Okada, K.'
p3746
ssS'A212'
p3747
(dp3748
g3
(lp3749
S'space-filling techniques'
p3750
aS'treemaps'
p3751
aS'distance-similarity preservation'
p3752
asg12
S'Sikansi, F.'
p3753
ssS'A213'
p3754
(dp3755
g3
g3749
sg12
S'Fatore, F.M.'
p3756
ssS'A210'
p3757
(dp3758
g3
g831
sg12
S'Hadwiger, M.'
p3759
ssS'A211'
p3760
(dp3761
g3
g3749
sg12
S'Duarte, F.S.L.G.'
p3762
ssS'A216'
p3763
(dp3764
g3
(lp3765
S'graphs'
p3766
aS'networks'
p3767
aS'maps'
p3768
aS'scatter plots'
p3769
asg12
S'Saket, B.'
p3770
ssS'A217'
p3771
(dp3772
g3
g307
sg12
S'Kobourov, S.'
p3773
ssS'A214'
p3774
(dp3775
g3
g3749
sg12
S'Fadel, S.G.'
p3776
ssS'A215'
p3777
(dp3778
g3
(lp3779
S'text and document visualization'
p3780
aS'hierarchical multidimensional visualization'
p3781
aS'visual knowledge discovery'
p3782
aS'high-dimensional data'
p3783
asg12
S'Paulovich, F.V.'
p3784
ssS'A353'
p3785
(dp3786
g3
g1427
sg12
S'Hanrahan, P.'
p3787
ssS'A352'
p3788
(dp3789
g3
(lp3790
S'aspect ratio selection'
p3791
aS'banking to 45 degrees'
p3792
aS'orientation resolution'
p3793
asg12
S'Gerth, J.'
p3794
ssS'A218'
p3795
(dp3796
g3
(lp3797
g25
asg12
S'Borner, K.'
p3798
ssS'A219'
p3799
(dp3800
g3
g2142
sg12
S'Sadana, R.'
p3801
ssS'A357'
p3802
(dp3803
g3
g3065
sg12
S'Reppa, I.'
p3804
ssS'A356'
p3805
(dp3806
g3
g3065
sg12
S'Grant, P.W.'
p3807
ssS'A355'
p3808
(dp3809
g3
g3065
sg12
S'Mohamed, F.'
p3810
ssS'A354'
p3811
(dp3812
g3
g3065
sg12
S'Abdul-Rahman, A.'
p3813
ssS'A1050'
p3814
(dp3815
g3
g3739
sg12
S'Brewer, I.'
p3816
ssS'A814'
p3817
(dp3818
g3
g510
sg12
S'Yamamoto, M.'
p3819
ssS'A1052'
p3820
(dp3821
g3
g3739
sg12
S'Gundrum, J.'
p3822
ssS'A1053'
p3823
(dp3824
g3
g3739
sg12
S'Otto, G.'
p3825
ssS'A1054'
p3826
(dp3827
g3
g3375
sg12
S'Buscher, M.'
p3828
ssS'A1055'
p3829
(dp3830
g3
g3375
sg12
S'Shapiro, D.'
p3831
ssS'A1056'
p3832
(dp3833
g3
g3375
sg12
S'Christensen, M.'
p3834
ssS'A815'
p3835
(dp3836
g3
g510
sg12
S'Saito, H.'
p3837
ssS'A1058'
p3838
(dp3839
g3
g3375
sg12
S'Orbaek, P.'
p3840
ssS'A1059'
p3841
(dp3842
g3
g2373
sg12
S'Herman, I.'
p3843
ssS'A816'
p3844
(dp3845
g3
g510
sg12
S'Hoshiya, Y.'
p3846
ssS'A1119'
p3847
(dp3848
g3
(lp3849
g25
asg12
S'Riedl, J.'
p3850
ssS'A1118'
p3851
(dp3852
g3
g3849
sg12
S'Ed Huai-Hsin Chi'
p3853
ssS'A545'
p3854
(dp3855
g3
g3058
sg12
S'Raphael, B.J.'
p3856
ssS'A1111'
p3857
(dp3858
g3
(lp3859
S'world wide web'
p3860
aS'information visualization'
p3861
aS'user interface'
p3862
asg12
S'Sean, J.'
p3863
ssS'A810'
p3864
(dp3865
g3
(lp3866
S'information visualization'
p3867
aS'dynamic visualization'
p3868
aS'user interaction design'
p3869
aS'real-time updating'
p3870
asg12
S'Payne, D.A.'
p3871
ssS'A1113'
p3872
(dp3873
g3
g523
sg12
S'Whitney, P.'
p3874
ssS'A190'
p3875
(dp3876
g3
g1687
sg12
S'Hollerer, T.'
p3877
ssS'A1115'
p3878
(dp3879
g3
g449
sg12
S'Polunsky, Z.'
p3880
ssS'A571'
p3881
(dp3882
g3
(lp3883
g25
asg12
S'Zhang, E.'
p3884
ssS'A1117'
p3885
(dp3886
g3
(lp3887
g25
asg12
S'Wills, G.J.'
p3888
ssS'A811'
p3889
(dp3890
g3
g761
sg12
S'Turner, A.'
p3891
ssS'A1214'
p3892
(dp3893
g3
(lp3894
g25
asg12
S'Ernst, R.'
p3895
ssS'A570'
p3896
(dp3897
g3
g674
sg12
S'Ju, C.'
p3898
ssS'A537'
p3899
(dp3900
g3
(lp3901
S'pixel-based visualization'
p3902
aS'evaluation'
p3903
aS'user study'
p3904
aS'visual search'
p3905
aS'change detection'
p3906
asg12
S'Janicke, H.'
p3907
ssS'A812'
p3908
(dp3909
g3
g510
sg12
S'Saito, T.'
p3910
ssS'A932'
p3911
(dp3912
g3
(lp3913
S'program visualization'
p3914
aS'human subjects testing'
p3915
aS'visual program languages'
p3916
asg12
S'Summers, K.L.'
p3917
ssS'A813'
p3918
(dp3919
g3
g510
sg12
S'Miyamura, H.N.'
p3920
ssS'A1179'
p3921
(dp3922
g3
g1351
sg12
S'Wolf, P.'
p3923
ssS'A1222'
p3924
(dp3925
g3
g2762
sg12
S'Kamps, T.'
p3926
ssS'A569'
p3927
(dp3928
g3
g674
sg12
S'Hess, R.'
p3929
ssS'A1215'
p3930
(dp3931
g3
g786
sg12
S'Anupam, V.'
p3932
ssS'A1182'
p3933
(dp3934
g3
g713
sg12
S'Burks, M.B.'
p3935
ssS'A536'
p3936
(dp3937
g3
g3901
sg12
S'Proctor, K.'
p3938
ssS'A934'
p3939
(dp3940
g3
g3913
sg12
S'Kubica, S.'
p3941
ssS'A1180'
p3942
(dp3943
g3
g713
sg12
S'Senn, J.A.'
p3944
ssS'A1025'
p3945
(dp3946
g3
g2360
sg12
S'Davidson, G.'
p3947
ssS'A1024'
p3948
(dp3949
g3
(lp3950
g25
asg12
S'Tanasse, T.'
p3951
ssS'A1027'
p3952
(dp3953
g3
g2360
sg12
S'Boyack, K.W.'
p3954
ssS'A971'
p3955
(dp3956
g3
(lp3957
S'data visualization'
p3958
aS'information visualization'
p3959
aS'design'
p3960
aS'data points'
p3961
aS'data density'
p3962
aS'occlusion'
p3963
aS'identifiable points'
p3964
aS'jitter'
p3965
aS'neural networks'
p3966
asg12
S'Grinstein, G.'
p3967
ssS'A1021'
p3968
(dp3969
g3
g2976
sg12
S'Pickle, L.'
p3970
ssS'A1020'
p3971
(dp3972
g3
(lp3973
g25
asg12
S'Edsall, R.M.'
p3974
ssS'A1023'
p3975
(dp3976
g3
(lp3977
S'volume rendering'
p3978
aS'relational data'
p3979
aS'scatterplot'
p3980
aS'multivariate data'
p3981
aS'information visualization'
p3982
asg12
S'Becker, B.'
p3983
ssS'A1022'
p3984
(dp3985
g3
(lp3986
g25
asg12
S'Brainerd, J.'
p3987
ssS'A582'
p3988
(dp3989
g3
(lp3990
S'graph layout'
p3991
aS'network layout'
p3992
aS'automatic layout algorithms'
p3993
aS'user-generated layout'
p3994
aS'graph-drawing aesthetics'
p3995
asg12
S'Quinn, K.I.'
p3996
ssS'A828'
p3997
(dp3998
g3
g2048
sg12
S'Lin, X.'
p3999
ssS'A1029'
p4000
(dp4001
g3
(lp4002
S'visualization'
p4003
aS'web navigation'
p4004
aS'hierarchy'
p4005
aS'interactive tree'
p4006
aS'sitemap'
p4007
aS'3d graphics'
p4008
aS'vrml'
p4009
aS'xml'
p4010
asg12
S'Ebert, J.'
p4011
ssS'A939'
p4012
(dp4013
g3
(lp4014
S'ambient information visualization'
p4015
aS'informative art'
p4016
aS'ambient displays'
p4017
aS'calm technology'
p4018
asg12
S'Skog, T.'
p4019
ssS'A535'
p4020
(dp4021
g3
(lp4022
S'information interfaces and presentation'
p4023
aS'screen design'
p4024
aS'evaluation / methodology'
p4025
aS'user / machine systems'
p4026
aS'software psychology'
p4027
aS'landscape visualization'
p4028
asg12
S'Swindells, C.'
p4029
ssS'A1205'
p4030
(dp4031
g3
g3259
sg12
S'Pernicks, A.'
p4032
ssS'A678'
p4033
(dp4034
g3
(lp4035
S'document visualization'
p4036
aS'multi-resolution analysis'
p4037
aS'local fitting'
p4038
asg12
S'Lebanon, G.'
p4039
ssS'A679'
p4040
(dp4041
g3
(lp4042
g25
asg12
S'Cleveland, W.S.'
p4043
ssS'A674'
p4044
(dp4045
g3
(lp4046
S'information visualization'
p4047
aS'data integration'
p4048
aS'wikipedia'
p4049
aS'semantic web'
p4050
aS'search interfaces'
p4051
asg12
S'Chan, B.'
p4052
ssS'A675'
p4053
(dp4054
g3
g4046
sg12
S'Wu, L.'
p4055
ssS'A676'
p4056
(dp4057
g3
g1783
sg12
S'Cammarano, M.'
p4058
ssS'A677'
p4059
(dp4060
g3
(lp4061
S'partial rankings'
p4062
aS'incomplete rankings'
p4063
aS'multidimensional scaling'
p4064
asg12
S'Kidwell, P.'
p4065
ssS'A670'
p4066
(dp4067
g3
(lp4068
S'interactive labeling'
p4069
aS'dynamic labeling'
p4070
aS'automatic label placement'
p4071
aS'occlusion-free'
p4072
aS'information visualization'
p4073
asg12
S'Luboschik, M.'
p4074
ssS'A671'
p4075
(dp4076
g3
g4068
sg12
S'Cords, H.'
p4077
ssS'A672'
p4078
(dp4079
g3
(lp4080
S'network layout visualization'
p4081
aS'perceptual organization'
p4082
aS'graph layout'
p4083
aS'user studies'
p4084
asg12
S'Rogowitz, B.'
p4085
ssS'A673'
p4086
(dp4087
g3
(lp4088
S'streamgraph'
p4089
aS'themeriver'
p4090
aS'listening history'
p4091
aS'lastfm'
p4092
aS'aesthetics'
p4093
aS'communication-minded visualization'
p4094
aS'time series'
p4095
asg12
S'Byron, L.'
p4096
ssS'A970'
p4097
(dp4098
g3
g3957
sg12
S'Trutschl, M.'
p4099
ssS'A1151'
p4100
(dp4101
g3
g4
sg12
S'Beigel, R.'
p4102
ssS'A583'
p4103
(dp4104
g3
(lp4105
g25
asg12
S'Robertson, G.'
p4106
ssS'A1189'
p4107
(dp4108
g3
g742
sg12
S'Fenner, B.'
p4109
ssS'A1138'
p4110
(dp4111
g3
g2667
sg12
S'Ankerst, M.'
p4112
ssS'A980'
p4113
(dp4114
g3
(lp4115
S'conversations'
p4116
aS'discussions'
p4117
aS'electronic mail'
p4118
aS'email'
p4119
aS'information visualization'
p4120
aS'threads'
p4121
aS'tree structures'
p4122
aS'user interfaces'
p4123
asg12
S'Kerr, B.'
p4124
ssS'A773'
p4125
(dp4126
g3
(lp4127
S'graph label placement'
p4128
aS'dynamic animation'
p4129
aS'graph visualization'
p4130
aS'information visualization'
p4131
asg12
S'Mackey, P.'
p4132
ssS'A609'
p4133
(dp4134
g3
(lp4135
S'visualization'
p4136
aS'history'
p4137
aS'public space'
p4138
asg12
S'Viegas, F.B.'
p4139
ssS'A608'
p4140
(dp4141
g3
(lp4142
S'information visualization'
p4143
aS'meta-visualization'
p4144
aS'collaboration'
p4145
aS'coordination'
p4146
aS'co-located work'
p4147
aS'workspace awareness'
p4148
asg12
S'Tobiasz, M.'
p4149
ssS'A979'
p4150
(dp4151
g3
(lp4152
g25
asg12
S'Ware, C.'
p4153
ssS'A978'
p4154
(dp4155
g3
(lp4156
S'navigation'
p4157
aS'zooming'
p4158
aS'panning'
p4159
aS'scrolling'
p4160
aS'scale space'
p4161
asg12
S'Nuij, W.A.A.'
p4162
ssS'A601'
p4163
(dp4164
g3
g531
sg12
S'Ming Dong'
p4165
ssS'A600'
p4166
(dp4167
g3
g531
sg12
S'Lijun Wang'
p4168
ssS'A603'
p4169
(dp4170
g3
g1934
sg12
S'Conversy, S.'
p4171
ssS'A602'
p4172
(dp4173
g3
g1934
sg12
S'Tissoires, B.'
p4174
ssS'A605'
p4175
(dp4176
g3
g742
sg12
S'Hoffman, E.'
p4177
ssS'A604'
p4178
(dp4179
g3
g867
sg12
S'Knoblach, S.'
p4180
ssS'A607'
p4181
(dp4182
g3
(lp4183
S'dimensionality reduction'
p4184
aS'interactivity'
p4185
aS'quality metrics'
p4186
aS'variable ordering'
p4187
asg12
S'Johansson, S.'
p4188
ssS'A606'
p4189
(dp4190
g3
g353
sg12
S'McKeon, M.'
p4191
ssS'A418'
p4192
(dp4193
g3
g1942
sg12
S'Andrienko, G.'
p4194
ssS'A419'
p4195
(dp4196
g3
g1942
sg12
S'Andrienko, N.'
p4197
ssS'A1213'
p4198
(dp4199
g3
g3894
sg12
S'Luders, P.'
p4200
ssS'A410'
p4201
(dp4202
g3
(lp4203
S'network visualization'
p4204
aS'change management'
p4205
aS'traffic routing'
p4206
aS'traffic optimization'
p4207
aS'automotive'
p4208
aS'design study'
p4209
asg12
S'Frank, A.'
p4210
ssS'A411'
p4211
(dp4212
g3
(lp4213
S'interactive visual analysis'
p4214
aS'high-dimensional data analysis'
p4215
asg12
S'Lundervold, A.'
p4216
ssS'A412'
p4217
(dp4218
g3
g1068
sg12
S'Pileggi, H.'
p4219
ssS'A413'
p4220
(dp4221
g3
g1068
sg12
S'Boyle, J.M.'
p4222
ssS'A414'
p4223
(dp4224
g3
(lp4225
S'geovisualization'
p4226
aS'spatial data'
p4227
aS'text visualization'
p4228
aS'label placement'
p4229
asg12
S'Afzal, S.'
p4230
ssS'A415'
p4231
(dp4232
g3
g4225
sg12
S'Maciejewski, R.'
p4233
ssS'A416'
p4234
(dp4235
g3
g4225
sg12
S'Yun Jang'
p4236
ssS'A417'
p4237
(dp4238
g3
g149
sg12
S'Ebert, D.S.'
p4239
ssS'A788'
p4240
(dp4241
g3
(lp4242
S'sankey diagram'
p4243
aS'flow diagram'
p4244
asg12
S'Hanfler, M.'
p4245
ssS'A789'
p4246
(dp4247
g3
g4242
sg12
S'Froehlich, B.'
p4248
ssS'A1211'
p4249
(dp4250
g3
g3423
sg12
S'Beale, R.'
p4251
ssS'A1155'
p4252
(dp4253
g3
(lp4254
g25
asg12
S'Brath, R.'
p4255
ssS'A824'
p4256
(dp4257
g3
g2031
sg12
S'Ghoniem, M.'
p4258
ssS'A768'
p4259
(dp4260
g3
g2442
sg12
S'Vukovic, M.'
p4261
ssS'A781'
p4262
(dp4263
g3
g816
sg12
S'Yeh, R.'
p4264
ssS'A782'
p4265
(dp4266
g3
g2314
sg12
S'Grossman, R.'
p4267
ssS'A783'
p4268
(dp4269
g3
(lp4270
S'information visualization'
p4271
aS'text mining'
p4272
aS'event analysis'
p4273
aS'time-dependent visualization'
p4274
asg12
S'Fleischer, D.'
p4275
ssS'A784'
p4276
(dp4277
g3
g4270
sg12
S'Lerner, J.'
p4278
ssS'A785'
p4279
(dp4280
g3
g2212
sg12
S'Hao, M.C.'
p4281
ssS'A786'
p4282
(dp4283
g3
g2212
sg12
S'Dayal, U.'
p4284
ssS'A787'
p4285
(dp4286
g3
g4242
sg12
S'Riehmann, P.'
p4287
ssS'A20'
p4288
(dp4289
g3
(lp4290
S'visual ambiguity'
p4291
aS'visualization'
p4292
aS'node-link diagram'
p4293
aS'graph layout'
p4294
aS'graph visualization'
p4295
asg12
S'Min Zhu'
p4296
ssS'A21'
p4297
(dp4298
g3
g4290
sg12
S'Sixiao Yang'
p4299
ssS'A22'
p4300
(dp4301
g3
g1978
sg12
S'Huamin Qu'
p4302
ssS'A23'
p4303
(dp4304
g3
(lp4305
S'visualization'
p4306
aS'statistical graphics'
p4307
asg12
S'Anand, A.'
p4308
ssS'A24'
p4309
(dp4310
g3
g1783
sg12
S'Talbot, J.'
p4311
ssS'A25'
p4312
(dp4313
g3
g644
sg12
S'Borkin, M.'
p4314
ssS'A26'
p4315
(dp4316
g3
g2161
sg12
S'Bylinskii, Z.'
p4317
ssS'A27'
p4318
(dp4319
g3
g2706
sg12
S'Nam Wook Kim'
p4320
ssS'A28'
p4321
(dp4322
g3
g2706
sg12
S'Bainbridge, C.M.'
p4323
ssS'A29'
p4324
(dp4325
g3
(lp4326
S'provenance data'
p4327
aS'graph/network data'
p4328
aS'hierarchy data'
p4329
aS'quantitative evaluation'
p4330
aS'gender differences'
p4331
asg12
S'Yeh, C.S.'
p4332
ssS'A896'
p4333
(dp4334
g3
(lp4335
S'ryb'
p4336
aS'color mixing'
p4337
aS'perception'
p4338
asg12
S'Gossett, N.'
p4339
ssS'A897'
p4340
(dp4341
g3
g4335
sg12
S'Baoquan Chen'
p4342
ssS'A890'
p4343
(dp4344
g3
(lp4345
g25
asg12
S'Tzu-Wei Hsu'
p4346
ssS'A891'
p4347
(dp4348
g3
g4345
sg12
S'Inman, L.'
p4349
ssS'A892'
p4350
(dp4351
g3
g4345
sg12
S'McColgin, D.'
p4352
ssS'A893'
p4353
(dp4354
g3
g4345
sg12
S'Stamper, K.'
p4355
ssS'A775'
p4356
(dp4357
g3
g1568
sg12
S'Foote, H.'
p4358
ssS'A774'
p4359
(dp4360
g3
g2220
sg12
S'Perrine, K.'
p4361
ssS'A777'
p4362
(dp4363
g3
(lp4364
S'elastic hierarchies'
p4365
aS'treemaps'
p4366
aS'node-link diagrams'
p4367
aS'hybrids'
p4368
aS'combinations'
p4369
aS'overview+detail'
p4370
aS'multiple views'
p4371
aS'trees'
p4372
aS'interaction techniques'
p4373
aS'interactive visualization'
p4374
asg12
S'Shengdong Zhao'
p4375
ssS'A776'
p4376
(dp4377
g3
g145
sg12
S'Thomas, J.'
p4378
ssS'A771'
p4379
(dp4380
g3
g1466
sg12
S'Aggarwal, V.'
p4381
ssS'A770'
p4382
(dp4383
g3
g936
sg12
S'Fanea, E.'
p4384
ssS'A769'
p4385
(dp4386
g3
g1819
sg12
S'Kang Shi'
p4387
ssS'A772'
p4388
(dp4389
g3
g2297
sg12
S'Koren, Y.'
p4390
ssS'A568'
p4391
(dp4392
g3
g674
sg12
S'Pham, T.'
p4393
ssS'A822'
p4394
(dp4395
g3
(lp4396
S'graph visualization'
p4397
aS'data overlay'
p4398
aS'timeseries data analysis'
p4399
aS'usability experiments'
p4400
asg12
S'Lee, P.'
p4401
ssS'A779'
p4402
(dp4403
g3
g816
sg12
S'Doantam Phan'
p4404
ssS'A778'
p4405
(dp4406
g3
g4364
sg12
S'Chignell, M.H.'
p4407
ssS'A256'
p4408
(dp4409
g3
(lp4410
S'information visualization'
p4411
aS'lifelogging'
p4412
aS'design study'
p4413
aS'music'
p4414
aS'listening history'
p4415
aS'timelines'
p4416
aS'photos'
p4417
aS'calendars'
p4418
asg12
S'Sedlmair, M.'
p4419
ssS'A257'
p4420
(dp4421
g3
(lp4422
S'parameter space analysis'
p4423
aS'input-output model'
p4424
aS'simulation'
p4425
aS'task characterization'
p4426
aS'literature analysis'
p4427
asg12
S'Heinzl, C.'
p4428
ssS'A254'
p4429
(dp4430
g3
(lp4431
S'color schemes'
p4432
aS'statistical graphics'
p4433
aS'hierarchical data'
p4434
asg12
S'de Jonge, E.'
p4435
ssS'A255'
p4436
(dp4437
g3
g1951
sg12
S'Vuillemot, R.'
p4438
ssS'A252'
p4439
(dp4440
g3
g3058
sg12
S'Laidlaw, D.H.'
p4441
ssS'A253'
p4442
(dp4443
g3
g4431
sg12
S'Tennekes, M.'
p4444
ssS'A250'
p4445
(dp4446
g3
(lp4447
S'information visualization'
p4448
aS'graphical perception'
p4449
aS'size'
p4450
aS'layout'
p4451
asg12
S'Gramazio, C.'
p4452
ssS'A251'
p4453
(dp4454
g3
g4447
sg12
S'Schloss, K.B.'
p4455
ssS'A397'
p4456
(dp4457
g3
g1375
sg12
S'Brandes, U.'
p4458
ssS'A396'
p4459
(dp4460
g3
(lp4461
S'graph visualization'
p4462
aS'opengl'
p4463
aS'edge aggregation'
p4464
asg12
S'Zinsmaier, M.'
p4465
ssS'A395'
p4466
(dp4467
g3
g1045
sg12
S'Tominski, C.'
p4468
ssS'A394'
p4469
(dp4470
g3
(lp4471
S'graph layout'
p4472
aS'laplacian matrix'
p4473
aS'force directed layout'
p4474
aS'stress model'
p4475
aS'merging'
p4476
aS'editing'
p4477
aS'crowd sourcing'
p4478
asg12
S'Xin Zhang'
p4479
ssS'A393'
p4480
(dp4481
g3
g4471
sg12
S'Yifan Hu'
p4482
ssS'A392'
p4483
(dp4484
g3
g4471
sg12
S'Limei Che'
p4485
ssS'A258'
p4486
(dp4487
g3
g4422
sg12
S'Bruckner, S.'
p4488
ssS'A259'
p4489
(dp4490
g3
g1045
sg12
S'Piringer, H.'
p4491
ssS'A1094'
p4492
(dp4493
g3
(lp4494
S'visualization framework'
p4495
aS'life-cycle assessment'
p4496
aS'user tasks'
p4497
aS'computer-human interaction'
p4498
aS'domain analysis'
p4499
aS'economic input-output'
p4500
asg12
S'Espinosa, O.J.'
p4501
ssS'A1095'
p4502
(dp4503
g3
g4494
sg12
S'Hendrickson, C.'
p4504
ssS'A1096'
p4505
(dp4506
g3
g4494
sg12
S'Garrett, J.H.'
p4507
ssS'A1097'
p4508
(dp4509
g3
(lp4510
g25
asg12
S'Wilson, R.M.'
p4511
ssS'A159'
p4512
(dp4513
g3
g1997
sg12
S'Schulz, M.'
p4514
ssS'A158'
p4515
(dp4516
g3
g1997
sg12
S'Bhatele, A.'
p4517
ssS'A1092'
p4518
(dp4519
g3
g4105
sg12
S'Guimbretiere, F.'
p4520
ssS'A1093'
p4521
(dp4522
g3
(lp4523
S'evaluation'
p4524
aS'animation'
p4525
aS'real-time computer graphics'
p4526
aS'zoomable user interfaces (zuis)'
p4527
aS'multiscale interfaces'
p4528
aS'pad++'
p4529
asg12
S'Boltman, A.'
p4530
ssS'A155'
p4531
(dp4532
g3
g1997
sg12
S'Bremer, P.-T.'
p4533
ssS'A154'
p4534
(dp4535
g3
g1997
sg12
S'Isaacs, K.E.'
p4536
ssS'A157'
p4537
(dp4538
g3
g1997
sg12
S'Gamblin, T.'
p4539
ssS'A156'
p4540
(dp4541
g3
(lp4542
S'information visualization'
p4543
aS'software visualization'
p4544
aS'timelines'
p4545
aS'traces'
p4546
aS'performance analysis'
p4547
asg12
S'Jusufi, I.'
p4548
ssS'A151'
p4549
(dp4550
g3
(lp4551
S'visualization design'
p4552
aS'symmetries'
p4553
aS'visualization theory'
p4554
asg12
S'Kindlmann, G.'
p4555
ssS'A150'
p4556
(dp4557
g3
g4203
sg12
S'Butz, A.'
p4558
ssS'A153'
p4559
(dp4560
g3
g362
sg12
S'Wood, J.'
p4561
ssS'A152'
p4562
(dp4563
g3
(lp4564
S'depth of field'
p4565
aS'focus and context'
p4566
aS'information visualization'
p4567
asg12
S'Hauser, H.'
p4568
ssS'A994'
p4569
(dp4570
g3
g519
sg12
S'Schulman, R.'
p4571
ssS'A1101'
p4572
(dp4573
g3
(lp4574
g25
asg12
S'Rodden, K.'
p4575
ssS'A551'
p4576
(dp4577
g3
g3118
sg12
S'Yueh Lee'
p4578
ssS'A550'
p4579
(dp4580
g3
g3118
sg12
S'Kwock, L.'
p4581
ssS'A553'
p4582
(dp4583
g3
(lp4584
S'spatial data'
p4585
aS'temporal data'
p4586
aS'gene expression'
p4587
asg12
S'DePace, A.'
p4588
ssS'A552'
p4589
(dp4590
g3
g3118
sg12
S'Taylor, R.M.'
p4591
ssS'A555'
p4592
(dp4593
g3
g3145
sg12
S'Furu Wei'
p4594
ssS'A554'
p4595
(dp4596
g3
(lp4597
S'narrative visualization'
p4598
aS'storytelling'
p4599
aS'design methods'
p4600
aS'case study'
p4601
aS'journalism'
p4602
aS'social data analysis'
p4603
asg12
S'Segel, E.'
p4604
ssS'A557'
p4605
(dp4606
g3
g1978
sg12
S'Hong Zhou'
p4607
ssS'A556'
p4608
(dp4609
g3
g3145
sg12
S'Au, N.'
p4610
ssS'A559'
p4611
(dp4612
g3
g453
sg12
S'Kincaid, R.'
p4613
ssS'A558'
p4614
(dp4615
g3
g1865
sg12
S'Tuttle, C.'
p4616
ssS'A809'
p4617
(dp4618
g3
g145
sg12
S'Crow, V.'
p4619
ssS'A808'
p4620
(dp4621
g3
g523
sg12
S'Hetzler, E.'
p4622
ssS'A490'
p4623
(dp4624
g3
g1762
sg12
S'Ming-Te Chi'
p4625
ssS'A747'
p4626
(dp4627
g3
(lp4628
S'small screen'
p4629
aS'pda'
p4630
aS'scatterplot'
p4631
aS'zoom'
p4632
aS'fisheye'
p4633
aS'focus+context'
p4634
asg12
S'Yost, B.'
p4635
ssS'A491'
p4636
(dp4637
g3
(lp4638
S'evaluation'
p4639
aS'geovisualization'
p4640
aS'context of use'
p4641
aS'requirements'
p4642
aS'field study'
p4643
aS'prototypes'
p4644
aS'sketching'
p4645
aS'design'
p4646
asg12
S'Lloyd, D.'
p4647
ssS'A492'
p4648
(dp4649
g3
(lp4650
S'similarity trees'
p4651
aS'multidimensional projections'
p4652
aS'image classification'
p4653
asg12
S'Paiva, J.G.'
p4654
ssS'A322'
p4655
(dp4656
g3
(lp4657
S'concrete scale'
p4658
aS'scale cognition'
p4659
aS'visual comparison'
p4660
aS'graphic composition'
p4661
aS'visual notation'
p4662
asg12
S'Gali, G.'
p4663
ssS'A323'
p4664
(dp4665
g3
(lp4666
S'information visualization'
p4667
aS'design study'
p4668
aS'bioinformatics'
p4669
aS'genetic variants'
p4670
asg12
S'Ferstay, J.A.'
p4671
ssS'A320'
p4672
(dp4673
g3
g3179
sg12
S'Mengdie Hu'
p4674
ssS'A321'
p4675
(dp4676
g3
g3179
sg12
S'Mehrotra, H.'
p4677
ssS'A326'
p4678
(dp4679
g3
(lp4680
S'glyph-based techniques'
p4681
aS'taxonomies'
p4682
aS'design methodologies'
p4683
aS'bioinformatics visualization'
p4684
asg12
S'Rocca-Serra, P.'
p4685
ssS'A327'
p4686
(dp4687
g3
g4680
sg12
S'Sansone, S.-A.'
p4688
ssS'A324'
p4689
(dp4690
g3
g2345
sg12
S'Nielsen, C.B.'
p4691
ssS'A325'
p4692
(dp4693
g3
g4680
sg12
S'Maguire, E.'
p4694
ssS'A1152'
p4695
(dp4696
g3
g1986
sg12
S'Lunzer, A.'
p4697
ssS'A494'
p4698
(dp4699
g3
g4650
sg12
S'Pedrini, H.'
p4700
ssS'A328'
p4701
(dp4702
g3
g4680
sg12
S'Davies, J.'
p4703
ssS'A329'
p4704
(dp4705
g3
(lp4706
g25
asg12
S'Chen, M.'
p4707
ssS'A1122'
p4708
(dp4709
g3
g2953
sg12
S'Meads, D.'
p4710
ssS'A495'
p4711
(dp4712
g3
g4650
sg12
S'Telles, G.P.'
p4713
ssS'A348'
p4714
(dp4715
g3
g2174
sg12
S'Dong-Han Ham'
p4716
ssS'A855'
p4717
(dp4718
g3
g1624
sg12
S'Fischer, K.'
p4719
ssS'A496'
p4720
(dp4721
g3
g3779
sg12
S'Minghim, R.'
p4722
ssS'A349'
p4723
(dp4724
g3
g2174
sg12
S'Nguyen, P.H.'
p4725
ssS'A497'
p4726
(dp4727
g3
(lp4728
S'dynamic graph data'
p4729
aS'multiform visualization'
p4730
aS'multi-focus+context'
p4731
asg12
S'Hadlak, S.'
p4732
ssS'A1028'
p4733
(dp4734
g3
g4002
sg12
S'Dachselt, R.'
p4735
ssS'A1069'
p4736
(dp4737
g3
g184
sg12
S'Pu, P.'
p4738
ssS'A887'
p4739
(dp4740
g3
g3797
sg12
S'Viswanath, L.'
p4741
ssS'A1144'
p4742
(dp4743
g3
g3849
sg12
S'Barry, P.'
p4744
ssS'A1145'
p4745
(dp4746
g3
g3849
sg12
S'Konstan, J.'
p4747
ssS'A1142'
p4748
(dp4749
g3
(lp4750
g25
asg12
S'Appel, A.W.'
p4751
ssS'A1143'
p4752
(dp4753
g3
g3152
sg12
S'Frecon, E.'
p4754
ssS'A963'
p4755
(dp4756
g3
g1663
sg12
S'Hardisty, F.'
p4757
ssS'A886'
p4758
(dp4759
g3
g3797
sg12
S'Ke, W.'
p4760
ssS'A1061'
p4761
(dp4762
g3
(lp4763
g25
asg12
S'Skupin, A.'
p4764
ssS'A1060'
p4765
(dp4766
g3
g2373
sg12
S'Marshall, M.S.'
p4767
ssS'A1063'
p4768
(dp4769
g3
g3393
sg12
S'Ichikawa, Y.'
p4770
ssS'A196'
p4771
(dp4772
g3
g855
sg12
S'Jonghun Park'
p4773
ssS'A1065'
p4774
(dp4775
g3
g3393
sg12
S'Takeshima, Y.'
p4776
ssS'A885'
p4777
(dp4778
g3
g2842
sg12
S'Card, S.K.'
p4779
ssS'A451'
p4780
(dp4781
g3
(lp4782
S'network visualization'
p4783
aS'social networks'
p4784
aS'time series data'
p4785
aS'visual knolwedge discovery and representation'
p4786
aS'glyph-based techniques'
p4787
asg12
S'Nick, B.'
p4788
ssS'A1066'
p4789
(dp4790
g3
g1390
sg12
S'Woodruff, A.'
p4791
ssS'A883'
p4792
(dp4793
g3
(lp4794
g25
asg12
S'Gail Ahn'
p4795
ssS'A762'
p4796
(dp4797
g3
(lp4798
S'archaeology'
p4799
aS'astronomy'
p4800
aS'data mining'
p4801
asg12
S'Zotti, G.'
p4802
ssS'A882'
p4803
(dp4804
g3
g4794
sg12
S'Herring, R.'
p4805
ssS'A739'
p4806
(dp4807
g3
(lp4808
S'brushing'
p4809
aS'hierarchical representation'
p4810
aS'interactive selection'
p4811
aS'exploratory data analysis'
p4812
asg12
S'Rundensteiner, E.A.'
p4813
ssS'A933'
p4814
(dp4815
g3
g3913
sg12
S'Goldsmith, T.E.'
p4816
ssS'A700'
p4817
(dp4818
g3
(lp4819
S'social networks visualization'
p4820
aS'node-link diagrams'
p4821
aS'matrix-based representations'
p4822
aS'exploratory process'
p4823
aS'matrix ordering'
p4824
aS'interactive clustering'
p4825
aS'consensus'
p4826
asg12
S'Henry, N.'
p4827
ssS'A931'
p4828
(dp4829
g3
g1986
sg12
S'Chalmers, M.'
p4830
ssS'A930'
p4831
(dp4832
g3
g2544
sg12
S'Ross, G.'
p4833
ssS'A937'
p4834
(dp4835
g3
(lp4836
S'sequence analysis'
p4837
aS'comparative genomics'
p4838
aS'visualization'
p4839
aS'arc diagram'
p4840
aS'bard'
p4841
asg12
S'Brady, R.'
p4842
ssS'A936'
p4843
(dp4844
g3
g4836
sg12
S'Spell, R.'
p4845
ssS'A935'
p4846
(dp4847
g3
g3913
sg12
S'Caudell, T.P.'
p4848
ssS'A701'
p4849
(dp4850
g3
g4035
sg12
S'Yi Mao'
p4851
ssS'A763'
p4852
(dp4853
g3
g2442
sg12
S'Allendoerfer, K.'
p4854
ssS'A938'
p4855
(dp4856
g3
g4836
sg12
S'Dietrich, F.'
p4857
ssS'A702'
p4858
(dp4859
g3
g4035
sg12
S'Dillon, J.V.'
p4860
ssS'A703'
p4861
(dp4862
g3
(lp4863
S'spatialization'
p4864
aS'information landscape'
p4865
aS'user study'
p4866
aS'numerosity'
p4867
aS'3d'
p4868
aS'2d'
p4869
aS'colour'
p4870
aS'greyscale'
p4871
aS'surface'
p4872
aS'points'
p4873
asg12
S'Sprague, D.W.'
p4874
ssS'A346'
p4875
(dp4876
g3
g2174
sg12
S'Rooney, C.'
p4877
ssS'A445'
p4878
(dp4879
g3
(lp4880
S'parallel coordinates'
p4881
aS'metrics'
p4882
aS'display optimization'
p4883
aS'visualization models'
p4884
asg12
S'Dasgupta, A.'
p4885
ssS'A738'
p4886
(dp4887
g3
g2276
sg12
S'Ward, M.O.'
p4888
ssS'A704'
p4889
(dp4890
g3
g4863
sg12
S'Fuqu Wu'
p4891
ssS'A347'
p4892
(dp4893
g3
g2174
sg12
S'Passmore, P.'
p4894
ssS'A705'
p4895
(dp4896
g3
g4863
sg12
S'Wing Yan So'
p4897
ssS'A748'
p4898
(dp4899
g3
g433
sg12
S'Cortese, P.F.'
p4900
ssS'A706'
p4901
(dp4902
g3
g469
sg12
S'Jacko, J.A.'
p4903
ssS'A744'
p4904
(dp4905
g3
(lp4906
S'gis'
p4907
aS'geographic visualization'
p4908
aS'text and document visualization'
p4909
aS'information analytics'
p4910
aS'www data visualization'
p4911
aS'spidering'
p4912
aS'newspapers'
p4913
asg12
S'Li, X.'
p4914
ssS'A745'
p4915
(dp4916
g3
g4906
sg12
S'Wang, Y.'
p4917
ssS'A746'
p4918
(dp4919
g3
g4906
sg12
S'Skiena, S.'
p4920
ssS'A707'
p4921
(dp4922
g3
g416
sg12
S'North, S.C.'
p4923
ssS'A740'
p4924
(dp4925
g3
(lp4926
S'network visualization'
p4927
aS'semantic substrate'
p4928
aS'information visualization'
p4929
aS'graphical user interfaces'
p4930
asg12
S'Aris, A.'
p4931
ssS'A741'
p4932
(dp4933
g3
(lp4934
g25
asg12
S'Auber, D.'
p4935
ssS'A742'
p4936
(dp4937
g3
g4906
sg12
S'Mehler, A.'
p4938
ssS'A743'
p4939
(dp4940
g3
g4906
sg12
S'Bao, Y.'
p4941
ssS'A708'
p4942
(dp4943
g3
g565
sg12
S'Rexroad, B.'
p4944
ssS'A444'
p4945
(dp4946
g3
(lp4947
S'information visualization'
p4948
aS'information diffusion'
p4949
aS'contagion'
p4950
aS'social media'
p4951
aS'microblogging'
p4952
aS'spatiotemporal patterns'
p4953
asg12
S'Lazer, D.'
p4954
ssS'A709'
p4955
(dp4956
g3
g565
sg12
S'Sheleheda, D.'
p4957
ssS'A1192'
p4958
(dp4959
g3
(lp4960
g25
asg12
S'Hara, Y.'
p4961
ssS'A177'
p4962
(dp4963
g3
(lp4964
S'information visualization'
p4965
aS'collaboration'
p4966
aS'co-located work'
p4967
aS'hierarchical data comparison'
p4968
asg12
S'Isenberg, P.'
p4969
ssS'A68'
p4970
(dp4971
g3
g557
sg12
S'Bak, P.'
p4972
ssS'A69'
p4973
(dp4974
g3
(lp4975
S'visualization evaluation'
p4976
aS'radial layout design'
p4977
aS'composite indicator visualization'
p4978
aS'experiment'
p4979
asg12
S'Rafaeli, S.'
p4980
ssS'A176'
p4981
(dp4982
g3
(lp4983
S'information visualization'
p4984
aS'user interface toolkits'
p4985
aS'information foraging'
p4986
aS'social navigation'
p4987
aS'social data analysis'
p4988
asg12
S'Willett, W.'
p4989
ssS'A64'
p4990
(dp4991
g3
(lp4992
S'design study'
p4993
aS'design methodologies'
p4994
aS'time series data'
p4995
aS'task and requirements analysis'
p4996
aS'coordinated and multiple views'
p4997
asg12
S'Tate, K.'
p4998
ssS'A65'
p4999
(dp5000
g3
g742
sg12
S'Munzner, T.'
p5001
ssS'A66'
p5002
(dp5003
g3
g4975
sg12
S'Albo, Y.'
p5004
ssS'A67'
p5005
(dp5006
g3
g4975
sg12
S'Lanir, J.'
p5007
ssS'A60'
p5008
(dp5009
g3
g481
sg12
S'Han, P.K.J.'
p5010
ssS'A61'
p5011
(dp5012
g3
g346
sg12
S'Chang, R.'
p5013
ssS'A62'
p5014
(dp5015
g3
(lp5016
S'typology'
p5017
aS'visualization models'
p5018
aS'task and requirements analysis'
p5019
aS'qualitative evaluation'
p5020
asg12
S'Brehmer, M.'
p5021
ssS'A63'
p5022
(dp5023
g3
g4992
sg12
S'Ng, J.'
p5024
ssS'A630'
p5025
(dp5026
g3
g604
sg12
S'Roseman, D.'
p5027
ssS'A631'
p5028
(dp5029
g3
g604
sg12
S'Marchand, G.'
p5030
ssS'A632'
p5031
(dp5032
g3
g604
sg12
S'Mukherjee, V.'
p5033
ssS'A633'
p5034
(dp5035
g3
g604
sg12
S'Smith, M.'
p5036
ssS'A634'
p5037
(dp5038
g3
(lp5039
S'laboratory studies'
p5040
aS'visual knowledge representation'
p5041
aS'collaborative and distributed visualization'
p5042
aS'synchronous situated collaboration'
p5043
aS'group work'
p5044
aS'experiment'
p5045
aS'knowledge sharing'
p5046
asg12
S'Bresciani, S.'
p5047
ssS'A635'
p5048
(dp5049
g3
g5039
sg12
S'Eppler, M.J.'
p5050
ssS'A636'
p5051
(dp5052
g3
(lp5053
S'information visualization'
p5054
aS'graph layout'
p5055
aS'space filling curves'
p5056
asg12
S'Muelder, C.'
p5057
ssS'A637'
p5058
(dp5059
g3
(lp5060
S'information visualization'
p5061
aS'mpi profiling'
p5062
aS'scalability'
p5063
asg12
S'Gygi, F.'
p5064
ssS'A638'
p5065
(dp5066
g3
g3516
sg12
S'Crampes, M.'
p5067
ssS'A639'
p5068
(dp5069
g3
g3516
sg12
S'de Oliveira-Kumar, J.'
p5070
ssS'A733'
p5071
(dp5072
g3
(lp5073
S'network visualization'
p5074
aS'edge bundling'
p5075
aS'edge aggregation'
p5076
aS'edge concentration'
p5077
aS'curves'
p5078
aS'graph visualization'
p5079
aS'tree visualization'
p5080
aS'node-link diagrams'
p5081
aS'hierarchies'
p5082
aS'treemaps'
p5083
asg12
S'Holten, D.'
p5084
ssS'A732'
p5085
(dp5086
g3
g2420
sg12
S'Meyers, B.Robbins.'
p5087
ssS'A735'
p5088
(dp5089
g3
(lp5090
S'graph drawing'
p5091
aS'constraints'
p5092
aS'stress majorization'
p5093
aS'force directed algorithms'
p5094
aS'multidimensional scaling'
p5095
asg12
S'Gerken, J.'
p5096
ssS'A734'
p5097
(dp5098
g3
g5090
sg12
S'Buring, T.'
p5099
ssS'A737'
p5100
(dp5101
g3
(lp5102
S'metrics'
p5103
aS'clustering'
p5104
aS'sampling'
p5105
aS'multiresolution visualization'
p5106
asg12
S'Cui, Q.'
p5107
ssS'A736'
p5108
(dp5109
g3
g5090
sg12
S'Reiterer, H.'
p5110
ssS'A111'
p5111
(dp5112
g3
(lp5113
S'time-series exploration'
p5114
aS'focus+context'
p5115
aS'lens'
p5116
aS'interaction techniques'
p5117
asg12
S'Walker, J.'
p5118
ssS'A110'
p5119
(dp5120
g3
(lp5121
S'visual exploration'
p5122
aS'visual queries'
p5123
aS'visual analytics'
p5124
aS'navigation'
p5125
aS'multivariate data'
p5126
aS'interaction'
p5127
asg12
S'Dragicevic, P.'
p5128
ssS'A113'
p5129
(dp5130
g3
g573
sg12
S'Jones, M.W.'
p5131
ssS'A112'
p5132
(dp5133
g3
g3901
sg12
S'Borgo, R.'
p5134
ssS'A115'
p5135
(dp5136
g3
(lp5137
S'visual knowledge discovery'
p5138
aS'visual knowledge representation'
p5139
aS'sport analytics'
p5140
aS'visual aggregation'
p5141
asg12
S'Perin, C.'
p5142
ssS'A114'
p5143
(dp5144
g3
(lp5145
S'multi-dimensional data'
p5146
aS'temporal event sequences'
p5147
aS'electronic health records'
p5148
asg12
S'Loorak, M.H.'
p5149
ssS'A117'
p5150
(dp5151
g3
g5145
sg12
S'Hill, M.'
p5152
ssS'A116'
p5153
(dp5154
g3
g5145
sg12
S'Kamal, N.'
p5155
ssS'A292'
p5156
(dp5157
g3
(lp5158
S'pathway visualization'
p5159
aS'biological networks'
p5160
aS'subsets'
p5161
aS'graphs'
p5162
aS'biomolecular data'
p5163
asg12
S'Kalkofen, D.'
p5164
ssS'A118'
p5165
(dp5166
g3
g1891
sg12
S'Carpendale, S.'
p5167
ssS'A290'
p5168
(dp5169
g3
g2914
sg12
S'Tory, M.'
p5170
ssS'A291'
p5171
(dp5172
g3
g1007
sg12
S'Partl, C.'
p5173
ssS'A296'
p5174
(dp5175
g3
g4326
sg12
S'Macko, P.'
p5176
ssS'A297'
p5177
(dp5178
g3
g644
sg12
S'Gajos, K.'
p5179
ssS'A294'
p5180
(dp5181
g3
g1007
sg12
S'Schmalstieg, D.'
p5182
ssS'A295'
p5183
(dp5184
g3
g4326
sg12
S'Boyd, M.'
p5185
ssS'A1191'
p5186
(dp5187
g3
g4960
sg12
S'Hirata, K.'
p5188
ssS'A1128'
p5189
(dp5190
g3
g2267
sg12
S'Gross, M.'
p5191
ssS'A1193'
p5192
(dp5193
g3
(lp5194
g25
asg12
S'Gray, M.'
p5195
ssS'A534'
p5196
(dp5197
g3
(lp5198
g25
asg12
S'Hoi Ying Tsang'
p5199
ssS'A1195'
p5200
(dp5201
g3
g5194
sg12
S'Guzdial, M.'
p5202
ssS'A1194'
p5203
(dp5204
g3
g5194
sg12
S'Badre, A.'
p5205
ssS'A1197'
p5206
(dp5207
g3
(lp5208
g25
asg12
S'Johnston, L.J.'
p5209
ssS'A1196'
p5210
(dp5211
g3
g5208
sg12
S'Burton, C.A.'
p5212
ssS'A1199'
p5213
(dp5214
g3
g29
sg12
S'Mitchell, R.'
p5215
ssS'A533'
p5216
(dp5217
g3
g1007
sg12
S'Kashofer, K.'
p5218
ssS'A532'
p5219
(dp5220
g3
g1687
sg12
S'Legrady, G.'
p5221
ssS'A595'
p5222
(dp5223
g3
(lp5224
S'dendrogram'
p5225
aS'reorderable matrix'
p5226
aS'compound graphs'
p5227
aS'data abstraction quality metrics'
p5228
aS'hierarchical clusters'
p5229
asg12
S'Jin Chen'
p5230
ssS'A594'
p5231
(dp5232
g3
(lp5233
S'coordinated queries'
p5234
aS'coordination'
p5235
aS'exploratory visualization'
p5236
aS'multiple views'
p5237
aS'visual abstraction language'
p5238
asg12
S'Weaver, C.'
p5239
ssS'A597'
p5240
(dp5241
g3
g2715
sg12
S'Rohrdantz, C.'
p5242
ssS'A596'
p5243
(dp5244
g3
g5224
sg12
S'Peuquet, D.'
p5245
ssS'A591'
p5246
(dp5247
g3
(lp5248
S'clustering'
p5249
aS'spatial layout'
p5250
aS'graph visualization'
p5251
aS'tree visualization'
p5252
asg12
S'Penn, G.'
p5253
ssS'A531'
p5254
(dp5255
g3
(lp5256
S'axis labeling'
p5257
aS'nice numbers'
p5258
asg12
S'Lin, S.'
p5259
ssS'A593'
p5260
(dp5261
g3
g4022
sg12
S'Dreezer, R.'
p5262
ssS'A592'
p5263
(dp5264
g3
(lp5265
S'software visualization'
p5266
aS'organic information visualization'
p5267
aS'software development history and evolution'
p5268
asg12
S'Ogawa, M.'
p5269
ssS'A1209'
p5270
(dp5271
g3
g3423
sg12
S'Drew, N.S.'
p5272
ssS'A1208'
p5273
(dp5274
g3
g3423
sg12
S'Hendley, R.J.'
p5275
ssS'A530'
p5276
(dp5277
g3
(lp5278
S'information visualization'
p5279
aS'world wide web'
p5280
aS'information retrieval'
p5281
aS'exploratory search'
p5282
aS'visual information seeking'
p5283
asg12
S'Williamson, C.'
p5284
ssS'A599'
p5285
(dp5286
g3
g531
sg12
S'Yanhua Chen'
p5287
ssS'A598'
p5288
(dp5289
g3
g2715
sg12
S'Stoffel, A.'
p5290
ssS'A1129'
p5291
(dp5292
g3
g1113
sg12
S'Bielser, D.'
p5293
ssS'A849'
p5294
(dp5295
g3
g2548
sg12
S'Kienreich, W.'
p5296
ssS'A848'
p5297
(dp5298
g3
g2548
sg12
S'Granitzer, M.'
p5299
ssS'A179'
p5300
(dp5301
g3
(lp5302
S'graph-level operations'
p5303
aS'graph visualization'
p5304
aS'visualization technique specification'
p5305
aS'graph analysis'
p5306
aS'information visualization'
p5307
asg12
S'Kahng, M.'
p5308
ssS'A188'
p5309
(dp5310
g3
(lp5311
S'hierarchical topic visualization'
p5312
aS'evolutionary tree clustering'
p5313
aS'data transformation'
p5314
asg12
S'Hao Wei'
p5315
ssS'A189'
p5316
(dp5317
g3
g1171
sg12
S'Donghao Ren'
p5318
ssS'A186'
p5319
(dp5320
g3
g3145
sg12
S'Shixia Liu'
p5321
ssS'A187'
p5322
(dp5323
g3
g5311
sg12
S'Zhuofeng Wu'
p5324
ssS'A184'
p5325
(dp5326
g3
g5302
sg12
S'Duen Horng Chau'
p5327
ssS'A185'
p5328
(dp5329
g3
g1978
sg12
S'Weiwei Cui'
p5330
ssS'A182'
p5331
(dp5332
g3
g5302
sg12
S'Goel, A.'
p5333
ssS'A183'
p5334
(dp5335
g3
g2682
sg12
S'Stasko, J.'
p5336
ssS'A180'
p5337
(dp5338
g3
g5302
sg12
S'Zhiyuan Lin'
p5339
ssS'A181'
p5340
(dp5341
g3
g5302
sg12
S'Foerster, F.'
p5342
ssS'A366'
p5343
(dp5344
g3
(lp5345
S'network'
p5346
aS'gene regulation'
p5347
aS'scale-free'
p5348
aS'adjacency matrix'
p5349
asg12
S'Westenberg, M.A.'
p5350
ssS'A367'
p5351
(dp5352
g3
(lp5353
S'layout algorithm'
p5354
aS'timeline visualization'
p5355
aS'storyline visualization'
p5356
aS'design study'
p5357
asg12
S'Tanahashi, Y.'
p5358
ssS'A364'
p5359
(dp5360
g3
(lp5361
S'order optimization'
p5362
aS'fluctuation diagrams'
p5363
aS'classification'
p5364
aS'seriation'
p5365
asg12
S'Unwin, A.'
p5366
ssS'A365'
p5367
(dp5368
g3
g5345
sg12
S'Dinkla, K.'
p5369
ssS'A362'
p5370
(dp5371
g3
g5361
sg12
S'Pilhofer, A.'
p5372
ssS'A363'
p5373
(dp5374
g3
g5361
sg12
S'Gribov, A.'
p5375
ssS'A360'
p5376
(dp5377
g3
(lp5378
S'layout'
p5379
aS'visualization models'
p5380
aS'tables & tree layouts'
p5381
aS'grids'
p5382
aS'treemaps'
p5383
aS'mosaic plots'
p5384
aS'dimensional stacking'
p5385
asg12
S'Baudel, T.'
p5386
ssS'A361'
p5387
(dp5388
g3
g5378
sg12
S'Broeksema, B.'
p5389
ssS'A1140'
p5390
(dp5391
g3
(lp5392
S'information visualization'
p5393
aS'text visualization'
p5394
aS'procedural visualization'
p5395
aS'implicit surface modeling'
p5396
aS'blobby models'
p5397
aS'document clustering'
p5398
aS'information retrieval'
p5399
aS'graphics'
p5400
aS'user interfaces'
p5401
asg12
S'Rohrer, R.M.'
p5402
ssS'A981'
p5403
(dp5404
g3
g2297
sg12
S'Carmel, L.'
p5405
ssS'A368'
p5406
(dp5407
g3
g3341
sg12
S'Kwan-Liu Ma'
p5408
ssS'A369'
p5409
(dp5410
g3
g888
sg12
S'Gomez, S.R.'
p5411
ssS'A164'
p5412
(dp5413
g3
(lp5414
S'design'
p5415
aS'frameworks'
p5416
aS'process'
p5417
aS'cybersecurity'
p5418
aS'nested model'
p5419
aS'decisions'
p5420
aS'models'
p5421
aS'evaluation'
p5422
aS'visualization'
p5423
asg12
S'McKenna, S.'
p5424
ssS'A165'
p5425
(dp5426
g3
g5414
sg12
S'Mazur, D.'
p5427
ssS'A166'
p5428
(dp5429
g3
g746
sg12
S'Agutter, J.'
p5430
ssS'A167'
p5431
(dp5432
g3
(lp5433
S'time navigation'
p5434
aS'direct manipulation'
p5435
aS'information visualization'
p5436
asg12
S'Kondo, B.'
p5437
ssS'A160'
p5438
(dp5439
g3
g4542
sg12
S'Hamann, B.'
p5440
ssS'A208'
p5441
(dp5442
g3
g831
sg12
S'Kasthuri, N.'
p5443
ssS'A162'
p5444
(dp5445
g3
g1881
sg12
S'Burch, M.'
p5446
ssS'A163'
p5447
(dp5448
g3
g118
sg12
S'Weiskopf, D.'
p5449
ssS'A205'
p5450
(dp5451
g3
(lp5452
S'multivariate networks'
p5453
aS'selections of interest'
p5454
aS'interaction'
p5455
aS'direct manipulation'
p5456
asg12
S'van den Elzen, S.'
p5457
ssS'A204'
p5458
(dp5459
g3
(lp5460
S'movement visualization'
p5461
aS'visual analytics'
p5462
aS'bikeshare'
p5463
aS'impact'
p5464
aS'visualization models'
p5465
aS'design study'
p5466
asg12
S'Beecham, R.'
p5467
ssS'A207'
p5468
(dp5469
g3
g831
sg12
S'Beyer, J.'
p5470
ssS'A206'
p5471
(dp5472
g3
g831
sg12
S'Al-Awami, A.'
p5473
ssS'A201'
p5474
(dp5475
g3
g800
sg12
S'Oulasvirta, A.'
p5476
ssS'A169'
p5477
(dp5478
g3
g1014
sg12
S'Gratzl, S.'
p5479
ssS'A203'
p5480
(dp5481
g3
g800
sg12
S'Weinkauf, T.'
p5482
ssS'A202'
p5483
(dp5484
g3
g800
sg12
S'Seidel, H.-P.'
p5485
ssS'A1234'
p5486
(dp5487
g3
g1635
sg12
S'Sowizral, H.A.'
p5488
ssS'A1141'
p5489
(dp5490
g3
g5392
sg12
S'Sibert, J.L.'
p5491
ssS'A1108'
p5492
(dp5493
g3
(lp5494
S'information visualization'
p5495
aS'text visualization'
p5496
aS'visualization'
p5497
aS'knowledge management'
p5498
aS'information retrieval'
p5499
asg12
S'Rose, S.'
p5500
ssS'A1109'
p5501
(dp5502
g3
g3859
sg12
S'Higgins, M.'
p5503
ssS'A988'
p5504
(dp5505
g3
g33
sg12
S'Doleisch, H.'
p5506
ssS'A1102'
p5507
(dp5508
g3
g4574
sg12
S'Basalaj, W.'
p5509
ssS'A1103'
p5510
(dp5511
g3
g4574
sg12
S'Sinclair, D.'
p5512
ssS'A1100'
p5513
(dp5514
g3
g1628
sg12
S'Moore, A.'
p5515
ssS'A989'
p5516
(dp5517
g3
g4706
sg12
S'Ying Feng'
p5518
ssS'A1106'
p5519
(dp5520
g3
(lp5521
g25
asg12
S'Inselberg, A.'
p5522
ssS'A860'
p5523
(dp5524
g3
(lp5525
g25
asg12
S'Barro, H.'
p5526
ssS'A1104'
p5527
(dp5528
g3
g4574
sg12
S'Wood, K.'
p5529
ssS'A1105'
p5530
(dp5531
g3
g4808
sg12
S'Ying-Huey Fua'
p5532
ssS'A447'
p5533
(dp5534
g3
g754
sg12
S'Zhao Geng'
p5535
ssS'A446'
p5536
(dp5537
g3
g4564
sg12
S'Kosara, R.'
p5538
ssS'A731'
p5539
(dp5540
g3
g1228
sg12
S'Yap, C.'
p5541
ssS'A298'
p5542
(dp5543
g3
g4326
sg12
S'Seltzer, M.'
p5544
ssS'A1204'
p5545
(dp5546
g3
g3259
sg12
S'Croall, J.'
p5547
ssS'A299'
p5548
(dp5549
g3
g1289
sg12
S'Im, J.-F.'
p5550
ssS'A1139'
p5551
(dp5552
g3
g2667
sg12
S'Berchtold, S.'
p5553
ssS'A1200'
p5554
(dp5555
g3
g29
sg12
S'Day, D.'
p5556
ssS'A443'
p5557
(dp5558
g3
g4947
sg12
S'Xiaohua Sun'
p5559
ssS'A863'
p5560
(dp5561
g3
g4934
sg12
S'Domenger, J.'
p5562
ssS'A566'
p5563
(dp5564
g3
g4410
sg12
S'Seiffert, F.'
p5565
ssS'A442'
p5566
(dp5567
g3
g636
sg12
S'Yu-Ru Lin'
p5568
ssS'A1116'
p5569
(dp5570
g3
g449
sg12
S'Ulitsky, L.'
p5571
ssS'A1074'
p5572
(dp5573
g3
g156
sg12
S'Gros, P.'
p5574
ssS'A441'
p5575
(dp5576
g3
g636
sg12
S'Nan Cao'
p5577
ssS'A730'
p5578
(dp5579
g3
g1228
sg12
S'Daiches, E.'
p5580
ssS'A440'
p5581
(dp5582
g3
g2080
sg12
S'desJardins, M.'
p5583
ssS'A1036'
p5584
(dp5585
g3
g746
sg12
S'Westenskow, D.'
p5586
ssS'A119'
p5587
(dp5588
g3
g1280
sg12
S'Alsallakh, B.'
p5589
ssS'A524'
p5590
(dp5591
g3
(lp5592
S'graph visualization'
p5593
aS'multivariate visualization'
p5594
aS'interactive clustering'
p5595
aS'state spaces'
p5596
aS'transition systems'
p5597
aS'finite state machines'
p5598
asg12
S'Pretorius, A.J.'
p5599
ssS'A1035'
p5600
(dp5601
g3
g746
sg12
S'Drews, F.'
p5602
ssS'A1032'
p5603
(dp5604
g3
(lp5605
S'visualization'
p5606
aS'massive data sets'
p5607
aS'graphs'
p5608
aS'hierarchies'
p5609
asg12
S'Finocchi, I.'
p5610
ssS'A1033'
p5611
(dp5612
g3
g4750
sg12
S'Korn, J.'
p5613
ssS'A1030'
p5614
(dp5615
g3
g3651
sg12
S'Six, J.M.'
p5616
ssS'A293'
p5617
(dp5618
g3
g5158
sg12
S'Wassermann, A.M.'
p5619
ssS'A862'
p5620
(dp5621
g3
g4934
sg12
S'Delest, M.'
p5622
ssS'A567'
p5623
(dp5624
g3
g4410
sg12
S'Boring, S.'
p5625
ssS'A562'
p5626
(dp5627
g3
g4305
sg12
S'Wilkinson, L.'
p5628
ssS'A918'
p5629
(dp5630
g3
g778
sg12
S'Cox, K.C.'
p5631
ssS'A1039'
p5632
(dp5633
g3
g1568
sg12
S'Jurrus, E.'
p5634
ssS'A563'
p5635
(dp5636
g3
(lp5637
S'interactive graph drawing'
p5638
aS'network layout'
p5639
aS'attribute-driven layout'
p5640
aS'parallel coordinates'
p5641
aS'scatterplot matrix'
p5642
aS'radial menu'
p5643
asg12
S'Viau, C.'
p5644
ssS'A669'
p5645
(dp5646
g3
g3248
sg12
S'Hart, J.C.'
p5647
ssS'A668'
p5648
(dp5649
g3
g3248
sg12
S'Garland, M.'
p5650
ssS'A667'
p5651
(dp5652
g3
g3248
sg12
S'Hoberock, J.'
p5653
ssS'A564'
p5654
(dp5655
g3
(lp5656
S'small world networks'
p5657
aS'multiscale graphs'
p5658
aS'clustering metric'
p5659
aS'semantic zooming'
p5660
asg12
S'Chiricota, Y.'
p5661
ssS'A665'
p5662
(dp5663
g3
g346
sg12
S'Ribarsky, W.'
p5664
ssS'A664'
p5665
(dp5666
g3
(lp5667
S'multiple-view techniques'
p5668
aS'geospatial visualization'
p5669
aS'geospatial analysis'
p5670
aS'focus + context'
p5671
aS'probes'
p5672
asg12
S'Wartell, Z.'
p5673
ssS'A663'
p5674
(dp5675
g3
g5667
sg12
S'Wenwen Dou'
p5676
ssS'A662'
p5677
(dp5678
g3
g5667
sg12
S'Butkiewicz, T.'
p5679
ssS'A661'
p5680
(dp5681
g3
g596
sg12
S'Matkovic, K.'
p5682
ssS'A565'
p5683
(dp5684
g3
(lp5685
S'interactive graph drawing'
p5686
aS'network layout'
p5687
aS'radial menus'
p5688
aS'marking menus'
p5689
aS'hotbox'
p5690
aS'biological networks'
p5691
asg12
S'Jurisica, I.'
p5692
ssS'A525'
p5693
(dp5694
g3
g951
sg12
S'Bray, M.-A.P.'
p5695
ssS'A977'
p5696
(dp5697
g3
g5656
sg12
S'MelanAon, G.'
p5698
ssS'A493'
p5699
(dp5700
g3
g4650
sg12
S'Florian, L.'
p5701
ssS'A888'
p5702
(dp5703
g3
g5656
sg12
S'Jourdan, F.'
p5704
ssS'A449'
p5705
(dp5706
g3
g573
sg12
S'Laramee, R.S.'
p5707
ssS'A976'
p5708
(dp5709
g3
g5656
sg12
S'Aubert, D.'
p5710
ssS'A924'
p5711
(dp5712
g3
g3359
sg12
S'Surendran, D.'
p5713
ssS'A448'
p5714
(dp5715
g3
g754
sg12
S'ZhenMin Peng'
p5716
ssS'A975'
p5717
(dp5718
g3
(lp5719
S'nominal data'
p5720
aS'visualization'
p5721
aS'dimension reduction'
p5722
aS'correspondence analysis'
p5723
aS'quantification'
p5724
aS'clustering'
p5725
aS'classing'
p5726
asg12
S'Brown, D.C.'
p5727
ssS'A962'
p5728
(dp5729
g3
g1663
sg12
S'Xiping, D.'
p5730
ssS'A974'
p5731
(dp5732
g3
g5719
sg12
S'Rosario, G.E.'
p5733
ssS'A1190'
p5734
(dp5735
g3
g4960
sg12
S'Mukherjea, S.'
p5736
ssS'A973'
p5737
(dp5738
g3
(lp5739
S'dimension ordering'
p5740
aS'dimension spacing'
p5741
aS'dimension filtering'
p5742
aS'multidimensional visualization'
p5743
aS'high dimensional datasets'
p5744
asg12
S'Wei Peng'
p5745
ssS'A972'
p5746
(dp5747
g3
g3957
sg12
S'Cvek, U.'
p5748
ssS'A948'
p5749
(dp5750
g3
g1364
sg12
S'Kim, S.'
p5751
ssS'A949'
p5752
(dp5753
g3
g374
sg12
S'Craig, P.'
p5754
ssS'A864'
p5755
(dp5756
g3
g2499
sg12
S'Mandic, M.'
p5757
ssS'A942'
p5758
(dp5759
g3
(lp5760
S'causal relations'
p5761
aS'information visualization'
p5762
aS'interactive animation'
p5763
asg12
S'Tsigas, P.'
p5764
ssS'A943'
p5765
(dp5766
g3
(lp5767
S'brushing'
p5768
aS'selection'
p5769
aS'dynamic graphics'
p5770
aS'data visualization'
p5771
aS'higraph'
p5772
aS'visual programming'
p5773
aS'dynamic query'
p5774
asg12
S'Hong Chen'
p5775
ssS'A940'
p5776
(dp5777
g3
g4014
sg12
S'Ljungblad, S.'
p5778
ssS'A941'
p5779
(dp5780
g3
g2996
sg12
S'Holmquist, L.E.'
p5781
ssS'A946'
p5782
(dp5783
g3
(lp5784
S'information visualization'
p5785
aS'collage'
p5786
asg12
S'Hauptmann, A.G.'
p5787
ssS'A947'
p5788
(dp5789
g3
g5784
sg12
S'Wactlar, H.D.'
p5790
ssS'A944'
p5791
(dp5792
g3
(lp5793
g25
asg12
S'Derthick, M.'
p5794
ssS'A945'
p5795
(dp5796
g3
g5784
sg12
S'Christel, M.G.'
p5797
ssS'A409'
p5798
(dp5799
g3
(lp5800
S'time-series data'
p5801
aS'ranking change'
p5802
aS'themeriver'
p5803
aS'interaction techniques'
p5804
asg12
S'Wei Chen'
p5805
ssS'A408'
p5806
(dp5807
g3
g5800
sg12
S'Panpan Xu'
p5808
ssS'A403'
p5809
(dp5810
g3
(lp5811
S'network diagrams'
p5812
aS'graph layout'
p5813
aS'perceptual theories'
p5814
aS'visual features'
p5815
aS'diagram recall'
p5816
aS'experiment'
p5817
asg12
S'Goncu, C.'
p5818
ssS'A402'
p5819
(dp5820
g3
g5811
sg12
S'Purchase, H.'
p5821
ssS'A401'
p5822
(dp5823
g3
g1099
sg12
S'Frazier, J.'
p5824
ssS'A400'
p5825
(dp5826
g3
g1099
sg12
S'Liao, I.'
p5827
ssS'A407'
p5828
(dp5829
g3
(lp5830
S'information visualization'
p5831
aS'interactivity'
p5832
aS'node-link diagrams'
p5833
aS'animation'
p5834
aS'information seeking'
p5835
aS'exploratory search'
p5836
asg12
S'Dumais, S.'
p5837
ssS'A406'
p5838
(dp5839
g3
(lp5840
S'set visualization'
p5841
aS'clustering'
p5842
aS'faceted data visualization'
p5843
aS'graph visualization'
p5844
asg12
S'Ramos, G.'
p5845
ssS'A405'
p5846
(dp5847
g3
g5278
sg12
S'Dork, M.'
p5848
ssS'A404'
p5849
(dp5850
g3
(lp5851
S'search results'
p5852
aS'mental map'
p5853
aS'voronoi treemaps'
p5854
aS'dynamic graph layout'
p5855
aS'multidimensional scaling'
p5856
aS'edge bundling'
p5857
asg12
S'Nocaj, A.'
p5858
ssS'A799'
p5859
(dp5860
g3
g2080
sg12
S'Poonam Shanbhag'
p5861
ssS'A798'
p5862
(dp5863
g3
g1386
sg12
S'Lind, M.'
p5864
ssS'A1198'
p5865
(dp5866
g3
g5208
sg12
S'Sonenberg, E.A.'
p5867
ssS'A793'
p5868
(dp5869
g3
(lp5870
S'focus+context'
p5871
aS'information visualization'
p5872
aS'real time rendering'
p5873
aS'progressive rendering'
p5874
asg12
S'Slack, J.'
p5875
ssS'A792'
p5876
(dp5877
g3
(lp5878
S'categorical data'
p5879
aS'meta information'
p5880
aS'interaction'
p5881
asg12
S'Bendix, F.'
p5882
ssS'A791'
p5883
(dp5884
g3
(lp5885
S'information visualization'
p5886
aS'multivariate visualization'
p5887
aS'distribution'
p5888
aS'aggregated data'
p5889
asg12
S'Chlan, E.B.'
p5890
ssS'A790'
p5891
(dp5892
g3
(lp5893
S'information visualization'
p5894
aS'analytic gap'
p5895
aS'theory'
p5896
aS'framework'
p5897
aS'evaluation'
p5898
aS'knowledge tasks'
p5899
asg12
S'Amar, R.'
p5900
ssS'A797'
p5901
(dp5902
g3
g2723
sg12
S'Seipel, S.'
p5903
ssS'A796'
p5904
(dp5905
g3
(lp5906
S'parallel coordinates'
p5907
aS'clustering'
p5908
aS'transfer function'
p5909
aS'feature animation'
p5910
asg12
S'Jern, M.'
p5911
ssS'A795'
p5912
(dp5913
g3
g214
sg12
S'Ljung, P.'
p5914
ssS'A794'
p5915
(dp5916
g3
g5870
sg12
S'Hildebrand, K.'
p5917
ssS'A15'
p5918
(dp5919
g3
g5760
sg12
S'Elmqvist, N.'
p5920
ssS'A14'
p5921
(dp5922
g3
(lp5923
S'multi-valued attributes'
p5924
aS'sets'
p5925
aS'visualization'
p5926
aS'set visualization'
p5927
aS'data exploration'
p5928
aS'interaction'
p5929
aS'design'
p5930
aS'scalability'
p5931
asg12
S'Yalcin, M.A.'
p5932
ssS'A17'
p5933
(dp5934
g3
g4290
sg12
S'Yong Wang'
p5935
ssS'A16'
p5936
(dp5937
g3
g4523
sg12
S'Bederson, B.B.'
p5938
ssS'A11'
p5939
(dp5940
g3
(lp5941
S'visual design'
p5942
aS'taxonomies'
p5943
aS'illustrative visualization'
p5944
aS'design methodologies'
p5945
asg12
S'Byrne, L.'
p5946
ssS'A10'
p5947
(dp5948
g3
g1270
sg12
S'Scheidegger, C.E.'
p5949
ssS'A13'
p5950
(dp5951
g3
g5941
sg12
S'Wiles, J.'
p5952
ssS'A12'
p5953
(dp5954
g3
g5941
sg12
S'Angus, D.'
p5955
ssS'A498'
p5956
(dp5957
g3
g1858
sg12
S'Joia, P.'
p5958
ssS'A499'
p5959
(dp5960
g3
g1858
sg12
S'Coimbra, D.'
p5961
ssS'A520'
p5962
(dp5963
g3
g2781
sg12
S'Liang Gou'
p5964
ssS'A884'
p5965
(dp5966
g3
g214
sg12
S'Lindgren, D.'
p5967
ssS'A19'
p5968
(dp5969
g3
g4290
sg12
S'Zhiguang Zhou'
p5970
ssS'A18'
p5971
(dp5972
g3
g4290
sg12
S'Qiaomu Shen'
p5973
ssS'A881'
p5974
(dp5975
g3
g4794
sg12
S'Subramanian, K.R.'
p5976
ssS'A880'
p5977
(dp5978
g3
g4794
sg12
S'Foster, J.'
p5979
ssS'A1'
p5980
(dp5981
g3
(lp5982
S'radviz'
p5983
aS'star coordinates'
p5984
aS'exploratory data analysis'
p5985
aS'cluster analysis'
p5986
aS'classification'
p5987
aS'outlier detection'
p5988
asg12
S'Raya, L.'
p5989
ssS'A0'
p5990
(dp5991
g3
(lp5992
S'star coordinates'
p5993
aS'radviz'
p5994
aS'biplots'
p5995
aS'axis calibration'
p5996
aS'attribute value estimation'
p5997
aS'data centering'
p5998
aS'orthographic projection'
p5999
asg12
S'Rubio-Sanchez, M.'
p6000
ssS'A3'
p6001
(dp6002
g3
g5992
sg12
S'Sanchez, A.'
p6003
ssS'A2'
p6004
(dp6005
g3
g5982
sg12
S'Diaz, F.'
p6006
ssS'A5'
p6007
(dp6008
g3
(lp6009
S'linguistics'
p6010
aS'natural language processing'
p6011
aS'semantics'
p6012
aS'color names'
p6013
aS'categorical color'
p6014
aS'google n-grams'
p6015
aS'wordnet'
p6016
aS'xkcd'
p6017
asg12
S'Stone, M.C.'
p6018
ssS'A4'
p6019
(dp6020
g3
(lp6021
S'graphical perception'
p6022
aS'bar charts'
p6023
asg12
S'Setlur, V.'
p6024
ssS'A7'
p6025
(dp6026
g3
g1304
sg12
S'Hornbaek, K.'
p6027
ssS'A6'
p6028
(dp6029
g3
(lp6030
S'information visualization'
p6031
aS'interaction model'
p6032
aS'notational system'
p6033
aS'physical visualization'
p6034
asg12
S'Jansen, Y.'
p6035
ssS'A9'
p6036
(dp6037
g3
(lp6038
S'graph and network visualization'
p6039
aS'financial data visualization'
p6040
aS'hierarchy visualization'
p6041
aS'time series data'
p6042
asg12
S'Archambault, D.'
p6043
ssS'A8'
p6044
(dp6045
g3
g3765
sg12
S'Simonetto, P.'
p6046
ssS'A241'
p6047
(dp6048
g3
g1355
sg12
S'Zhicheng Liu'
p6049
ssS'A240'
p6050
(dp6051
g3
g69
sg12
S'Ye Zhao'
p6052
ssS'A243'
p6053
(dp6054
g3
g1434
sg12
S'Bezerianos, A.'
p6055
ssS'A242'
p6056
(dp6057
g3
(lp6058
S'glyphs'
p6059
aS'star glyphs'
p6060
aS'contours'
p6061
aS'perception'
p6062
aS'quantitative evaluation'
p6063
aS'similarity detection'
p6064
aS'visual comparison'
p6065
asg12
S'Fuchs, J.'
p6066
ssS'A245'
p6067
(dp6068
g3
g1702
sg12
S'Chevalier, F.'
p6069
ssS'A244'
p6070
(dp6071
g3
g6058
sg12
S'Fischer, F.'
p6072
ssS'A247'
p6073
(dp6074
g3
(lp6075
S'persuasive visualization'
p6076
aS'elaboration likelihood model'
p6077
aS'evaluation'
p6078
asg12
S'Manivannan, A.'
p6079
ssS'A246'
p6080
(dp6081
g3
g6075
sg12
S'Pandey, A.V.'
p6082
ssS'A249'
p6083
(dp6084
g3
g6075
sg12
S'Satterthwaite, M.'
p6085
ssS'A248'
p6086
(dp6087
g3
g6075
sg12
S'Nov, O.'
p6088
ssS'A1203'
p6089
(dp6090
g3
g3259
sg12
S'Winstead, J.'
p6091
ssS'A539'
p6092
(dp6093
g3
g3901
sg12
S'Thornton, I.M.'
p6094
ssS'A538'
p6095
(dp6096
g3
g3901
sg12
S'Murray, T.'
p6097
ssS'A128'
p6098
(dp6099
g3
(lp6100
S'visual memento'
p6101
aS'memories'
p6102
aS'personal visualization'
p6103
aS'movement data'
p6104
aS'world wide web'
p6105
asg12
S'Thudt, A.'
p6106
ssS'A129'
p6107
(dp6108
g3
g4410
sg12
S'Baur, D.'
p6109
ssS'A1202'
p6110
(dp6111
g3
g3259
sg12
S'LeVasseur, J.'
p6112
ssS'A120'
p6113
(dp6114
g3
(lp6115
S'biology visualization'
p6116
aS'protein isoforms'
p6117
aS'mrna-seq'
p6118
aS'directed acyclic graphs'
p6119
aS'multivariate networks'
p6120
asg12
S'Botros, J.'
p6121
ssS'A121'
p6122
(dp6123
g3
g6115
sg12
S'Peterson, B.'
p6124
ssS'A122'
p6125
(dp6126
g3
g6115
sg12
S'Borowsky, M.'
p6127
ssS'A123'
p6128
(dp6129
g3
g1007
sg12
S'Lex, A.'
p6130
ssS'A124'
p6131
(dp6132
g3
(lp6133
S'uncertainty'
p6134
aS'temporal intervals'
p6135
aS'visualization'
p6136
asg12
S'Gschwandtner, T.'
p6137
ssS'A125'
p6138
(dp6139
g3
g6133
sg12
S'Bogl, M.'
p6140
ssS'A126'
p6141
(dp6142
g3
g6133
sg12
S'Federico, P.'
p6143
ssS'A127'
p6144
(dp6145
g3
g4564
sg12
S'Miksch, S.'
p6146
ssS'A1207'
p6147
(dp6148
g3
(lp6149
g25
asg12
S'Rhyne, T.M.'
p6150
ssS'A522'
p6151
(dp6152
g3
g16
sg12
S'Venolia, G.'
p6153
ssS'A1216'
p6154
(dp6155
g3
g786
sg12
S'Dar, S.'
p6156
ssS'A802'
p6157
(dp6158
g3
g1847
sg12
S'Voinea, L.'
p6159
ssS'A1206'
p6160
(dp6161
g3
g3259
sg12
S'Ruh, W.'
p6162
ssS'A832'
p6163
(dp6164
g3
(lp6165
g25
asg12
S'Newbern, C.'
p6166
ssS'A833'
p6167
(dp6168
g3
g6165
sg12
S'Kalghatgi, N.'
p6169
ssS'A830'
p6170
(dp6171
g3
g2055
sg12
S'Duca, K.'
p6172
ssS'A831'
p6173
(dp6174
g3
g6165
sg12
S'Darling, E.'
p6175
ssS'A836'
p6176
(dp6177
g3
(lp6178
g25
asg12
S'Gainant, G.'
p6179
ssS'A837'
p6180
(dp6181
g3
g4135
sg12
S'Perry, E.'
p6182
ssS'A834'
p6183
(dp6184
g3
g6165
sg12
S'Burgman, A.'
p6185
ssS'A835'
p6186
(dp6187
g3
g6165
sg12
S'Recktenwald, K.'
p6188
ssS'A838'
p6189
(dp6190
g3
g4135
sg12
S'Howe, E.'
p6191
ssS'A839'
p6192
(dp6193
g3
g4135
sg12
S'Donath, J.'
p6194
ss.