(dp0
I0
(dp1
S'dataID'
p2
I18435
sS'nodetrixID'
p3
I0
sS'name'
p4
S'pediment'
p5
ssI1
(dp6
g2
I38917
sg3
I1
sg4
S'mesosphere'
p7
ssI2
(dp8
g2
I57350
sg3
I2
sg4
S'#bulge'
p9
ssI3
(dp10
g2
I36871
sg3
I3
sg4
S'Galapagos_Islands'
p11
ssI4
(dp12
g2
I14344
sg3
I4
sg4
S'city_hall'
p13
ssI5
(dp14
g2
I14345
sg3
I5
sg4
S'city_university'
p15
ssI6
(dp16
g2
I18775
sg3
I6
sg4
S'polyconic_projection'
p17
ssI7
(dp18
g2
I36876
sg3
I7
sg4
S'Fiji_Islands'
p19
ssI8
(dp20
g2
I20493
sg3
I8
sg4
S'strongroom'
p21
ssI9
(dp22
g2
I36878
sg3
I9
sg4
S'Vanua_Levu'
p23
ssI10
(dp24
g2
I20496
sg3
I10
sg4
S'#structure'
p25
ssI11
(dp26
g2
I36498
sg3
I11
sg4
S'Torrid_Zone'
p27
ssI12
(dp28
g2
I20500
sg3
I12
sg4
S'student_union'
p29
ssI13
(dp30
g2
I16409
sg3
I13
sg4
S'#hall'
p31
ssI14
(dp32
g2
I16410
sg3
I14
sg4
S'Hall_of_Fame'
p33
ssI15
(dp34
g2
I36896
sg3
I15
sg4
S'Crete'
p35
ssI16
(dp36
g2
I14369
sg3
I16
sg4
S'clean_room'
p37
ssI17
(dp38
g2
I36898
sg3
I17
sg4
S'#Ithaca'
p39
ssI18
(dp40
g2
I36899
sg3
I18
sg4
S'Egadi_Islands'
p41
ssI19
(dp42
g2
I18472
sg3
I19
sg4
S'penny_arcade'
p43
ssI20
(dp44
g2
I34858
sg3
I20
sg4
S'foreign_office'
p45
ssI21
(dp46
g2
I34859
sg3
I21
sg4
S'French_foreign_office'
p47
ssI22
(dp48
g2
I14389
sg3
I22
sg4
S'#cloakroom'
p49
ssI23
(dp50
g2
I36921
sg3
I23
sg4
S'Lemnos'
p51
ssI24
(dp52
g2
I18495
sg3
I24
sg4
S'peristyle'
p53
ssI25
(dp54
g2
I14406
sg3
I25
sg4
S'#closet'
p55
ssI26
(dp56
g2
I57417
sg3
I26
sg4
S'verticil'
p57
ssI27
(dp58
g2
I36940
sg3
I27
sg4
S'Wailing_Wall'
p59
ssI28
(dp60
g2
I36877
sg3
I28
sg4
S'Viti_Levu'
p61
ssI29
(dp62
g2
I16466
sg3
I29
sg4
S'hank'
p63
ssI30
(dp64
g2
I19643
sg3
I30
sg4
S'second_balcony'
p65
ssI31
(dp66
g2
I20567
sg3
I31
sg4
S'sun_parlor'
p67
ssI32
(dp68
g2
I14427
sg3
I32
sg4
S'clubhouse'
p69
ssI33
(dp70
g2
I14428
sg3
I33
sg4
S'clubroom'
p71
ssI34
(dp72
g2
I17424
sg3
I34
sg4
S'lumber_room'
p73
ssI35
(dp74
g2
I20578
sg3
I35
sg4
S'superstructure'
p75
ssI36
(dp76
g2
I36963
sg3
I36
sg4
S'Capri'
p77
ssI37
(dp78
g2
I36964
sg3
I37
sg4
S'Ischia'
p79
ssI38
(dp80
g2
I16488
sg3
I38
sg4
S'Harvard_University'
p81
ssI39
(dp82
g2
I37223
sg3
I39
sg4
S'Hadrians_Wall'
p83
ssI40
(dp84
g2
I8304
sg3
I40
sg4
S'hypodermis'
p85
ssI41
(dp86
g2
I39026
sg3
I41
sg4
S'ozone_layer'
p87
ssI42
(dp88
g2
I25278
sg3
I42
sg4
S'precentral_gyrus'
p89
ssI43
(dp90
g2
I18550
sg3
I43
sg4
S'phrontistery'
p91
ssI44
(dp92
g2
I16503
sg3
I44
sg4
S'haven'
p93
ssI45
(dp94
g2
I36984
sg3
I45
sg4
S'#Sardinia'
p95
ssI46
(dp96
g2
I36985
sg3
I46
sg4
S'#Sicily'
p97
ssI47
(dp98
g2
I20603
sg3
I47
sg4
S'#surgery'
p99
ssI48
(dp100
g2
I14464
sg3
I48
sg4
S'#cockpit'
p101
ssI49
(dp102
g2
I14467
sg3
I49
sg4
S'cocktail_lounge'
p103
ssI50
(dp104
g2
I24713
sg3
I50
sg4
S'glans'
p105
ssI51
(dp106
g2
I24714
sg3
I51
sg4
S'glans_clitoridis'
p107
ssI52
(dp108
g2
I24715
sg3
I52
sg4
S'glans_penis'
p109
ssI53
(dp110
g2
I18574
sg3
I53
sg4
S'pied-a-terre'
p111
ssI54
(dp112
g2
I24487
sg3
I54
sg4
S'middle_ear'
p113
ssI55
(dp114
g2
I37016
sg3
I55
sg4
S'Greenland'
p115
ssI56
(dp116
g2
I37017
sg3
I56
sg4
S'Baffin_Island'
p117
ssI57
(dp118
g2
I49306
sg3
I57
sg4
S'whorled_aster'
p119
ssI58
(dp120
g2
I49307
sg3
I58
sg4
S'#heath_aster'
p121
ssI59
(dp122
g2
I49308
sg3
I59
sg4
S'heart-leaved_aster'
p123
ssI60
(dp124
g2
I20506
sg3
I60
sg4
S'#study'
p125
ssI61
(dp126
g2
I49310
sg3
I61
sg4
S'bushy_aster'
p127
ssI62
(dp128
g2
I49311
sg3
I62
sg4
S'white_prairie_aster'
p129
ssI63
(dp130
g2
I49312
sg3
I63
sg4
S'stiff_aster'
p131
ssI64
(dp132
g2
I49313
sg3
I64
sg4
S'goldilocks'
p133
ssI65
(dp134
g2
I49314
sg3
I65
sg4
S'large-leaved_aster'
p135
ssI66
(dp136
g2
I49315
sg3
I66
sg4
S'New_England_aster'
p137
ssI67
(dp138
g2
I49316
sg3
I67
sg4
S'Michaelmas_daisy'
p139
ssI68
(dp140
g2
I49317
sg3
I68
sg4
S'upland_white_aster'
p141
ssI69
(dp142
g2
I49318
sg3
I69
sg4
S'Shorts_aster'
p143
ssI70
(dp144
g2
I37031
sg3
I70
sg4
S'Vancouver_Island'
p145
ssI71
(dp146
g2
I49320
sg3
I71
sg4
S'prairie_aster'
p147
ssI72
(dp148
g2
I49321
sg3
I72
sg4
S'annual_salt-marsh_aster'
p149
ssI73
(dp150
g2
I49322
sg3
I73
sg4
S'aromatic_aster'
p151
ssI74
(dp152
g2
I49323
sg3
I74
sg4
S'arrow_leaved_aster'
p153
ssI75
(dp154
g2
I49324
sg3
I75
sg4
S'azure_aster'
p155
ssI76
(dp156
g2
I49325
sg3
I76
sg4
S'bog_aster'
p157
ssI77
(dp158
g2
I49326
sg3
I77
sg4
S'crooked-stemmed_aster'
p159
ssI78
(dp160
g2
I13341
sg3
I78
sg4
S'belfry'
p161
ssI79
(dp162
g2
I18608
sg3
I79
sg4
S'pilothouse'
p163
ssI80
(dp164
g2
I19144
sg3
I80
sg4
S'#rathole'
p165
ssI81
(dp166
g2
I49330
sg3
I81
sg4
S'panicled_aster'
p167
ssI82
(dp168
g2
I49331
sg3
I82
sg4
S'perennial_salt_marsh_aster'
p169
ssI83
(dp170
g2
I49332
sg3
I83
sg4
S'purple-stemmed_aster'
p171
ssI84
(dp172
g2
I49333
sg3
I84
sg4
S'rough-leaved_aster'
p173
ssI85
(dp174
g2
I49334
sg3
I85
sg4
S'rush_aster'
p175
ssI86
(dp176
g2
I49335
sg3
I86
sg4
S'Schreibers_aster'
p177
ssI87
(dp178
g2
I49336
sg3
I87
sg4
S'small_white_aster'
p179
ssI88
(dp180
g2
I49337
sg3
I88
sg4
S'smooth_aster'
p181
ssI89
(dp182
g2
I49338
sg3
I89
sg4
S'southern_aster'
p183
ssI90
(dp184
g2
I49339
sg3
I90
sg4
S'starved_aster'
p185
ssI91
(dp186
g2
I49340
sg3
I91
sg4
S'tradescants_aster'
p187
ssI92
(dp188
g2
I49341
sg3
I92
sg4
S'wavy-leaved_aster'
p189
ssI93
(dp190
g2
I49342
sg3
I93
sg4
S'Western_silvery_aster'
p191
ssI94
(dp192
g2
I49343
sg3
I94
sg4
S'willow_aster'
p193
ssI95
(dp194
g2
I14368
sg3
I95
sg4
S'cleaning_pad'
p195
ssI96
(dp196
g2
I20675
sg3
I96
sg4
S'table_mat'
p197
ssI97
(dp198
g2
I36491
sg3
I97
sg4
S'South_Temperate_Zone'
p199
ssI98
(dp200
g2
I16585
sg3
I98
sg4
S'hideaway'
p201
ssI99
(dp202
g2
I16587
sg3
I99
sg4
S'high_altar'
p203
ssI100
(dp204
g2
I37068
sg3
I100
sg4
S'#Tasmania'
p205
ssI101
(dp206
g2
I14545
sg3
I101
sg4
S'#compartment'
p207
ssI102
(dp208
g2
I13347
sg3
I102
sg4
S'bell_cote'
p209
ssI103
(dp210
g2
I21540
sg3
I103
sg4
S'#ways'
p211
ssI104
(dp212
g2
I37084
sg3
I104
sg4
S'Guam'
p213
ssI105
(dp214
g2
I37085
sg3
I105
sg4
S'Wake_Island'
p215
ssI106
(dp216
g2
I27344
sg3
I106
sg4
S'computer_science'
p217
ssI107
(dp218
g2
I37092
sg3
I107
sg4
S'Gilbert_and_Ellice_Islands'
p219
ssI108
(dp220
g2
I37093
sg3
I108
sg4
S'#Nauru'
p221
ssI109
(dp222
g2
I16300
sg3
I109
sg4
S'greenroom'
p223
ssI110
(dp224
g2
I14570
sg3
I110
sg4
S'concert_hall'
p225
ssI111
(dp226
g2
I37101
sg3
I111
sg4
S'Borneo'
p227
ssI112
(dp228
g2
I37102
sg3
I112
sg4
S'#Bougainville'
p229
ssI113
(dp230
g2
I37103
sg3
I113
sg4
S'New_Britain'
p231
ssI114
(dp232
g2
I24816
sg3
I114
sg4
S'hypochondrium'
p233
ssI115
(dp234
g2
I14577
sg3
I115
sg4
S'#condominium'
p235
ssI116
(dp236
g2
I24819
sg3
I116
sg4
S'hepatic_lobe'
p237
ssI117
(dp238
g2
I37108
sg3
I117
sg4
S'New_Ireland'
p239
ssI118
(dp240
g2
I14584
sg3
I118
sg4
S'conference_room'
p241
ssI119
(dp242
g2
I14586
sg3
I119
sg4
S'confessional'
p243
ssI120
(dp244
g2
I24827
sg3
I120
sg4
S'alveolar_bed'
p245
ssI121
(dp246
g2
I24828
sg3
I121
sg4
S'lobe_of_the_lung'
p247
ssI122
(dp248
g2
I14590
sg3
I122
sg4
S'conic_projection'
p249
ssI123
(dp250
g2
I24832
sg3
I123
sg4
S'pleural_cavity'
p251
ssI124
(dp252
g2
I16646
sg3
I124
sg4
S'homolosine_projection'
p253
ssI125
(dp254
g2
I24843
sg3
I125
sg4
S'area_of_cardiac_dullness'
p255
ssI126
(dp256
g2
I26946
sg3
I126
sg4
S'gray_area'
p257
ssI127
(dp258
g2
I24848
sg3
I127
sg4
S'cranial_cavity'
p259
ssI128
(dp260
g2
I27352
sg3
I128
sg4
S'mechanical_engineering'
p261
ssI129
(dp262
g2
I14612
sg3
I129
sg4
S'control_room'
p263
ssI130
(dp264
g2
I24860
sg3
I130
sg4
S'epigastrium'
p265
ssI131
(dp266
g2
I37594
sg3
I131
sg4
S'French_Polynesia'
p267
ssI132
(dp268
g2
I16773
sg3
I132
sg4
S'ice_hockey_rink'
p269
ssI133
(dp270
g2
I14625
sg3
I133
sg4
S'cookhouse'
p271
ssI134
(dp272
g2
I19718
sg3
I134
sg4
S'sewing_room'
p273
ssI135
(dp274
g2
I19163
sg3
I135
sg4
S'read/write_head'
p275
ssI136
(dp276
g2
I37157
sg3
I136
sg4
S'British_Isles'
p277
ssI137
(dp278
g2
I37158
sg3
I137
sg4
S'Great_Britain'
p279
ssI138
(dp280
g2
I37159
sg3
I138
sg4
S'#Ireland'
p281
ssI139
(dp282
g2
I14634
sg3
I139
sg4
S'Cooper_Union'
p283
ssI140
(dp284
g2
I24877
sg3
I140
sg4
S'amniotic_cavity'
p285
ssI141
(dp286
g2
I27357
sg3
I141
sg4
S'rocketry'
p287
ssI142
(dp288
g2
I20784
sg3
I142
sg4
S'telephone_booth'
p289
ssI143
(dp290
g2
I18737
sg3
I143
sg4
S'#ply'
p291
ssI144
(dp292
g2
I16691
sg3
I144
sg4
S'hospital_room'
p293
ssI145
(dp294
g2
I39221
sg3
I145
sg4
S'South_Sea_Islands'
p295
ssI146
(dp296
g2
I14646
sg3
I146
sg4
S'corbie_gable'
p297
ssI147
(dp298
g2
I37176
sg3
I147
sg4
S'Houses_of_Parliament'
p299
ssI148
(dp300
g2
I13854
sg3
I148
sg4
S'#cabin'
p301
ssI149
(dp302
g2
I16699
sg3
I149
sg4
S'#hotel-casino'
p303
ssI150
(dp304
g2
I16700
sg3
I150
sg4
S'hotel_room'
p305
ssI151
(dp306
g2
I24896
sg3
I151
sg4
S'lacrimal_apparatus'
p307
ssI152
(dp308
g2
I14658
sg3
I152
sg4
S'Cornell_University'
p309
ssI153
(dp310
g2
I26947
sg3
I153
sg4
S'#territory'
p311
ssI154
(dp312
g2
I20807
sg3
I154
sg4
S'television_room'
p313
ssI155
(dp314
g2
I14664
sg3
I155
sg4
S'#cornice'
p315
ssI156
(dp316
g2
I16713
sg3
I156
sg4
S'#house_of_cards'
p317
ssI157
(dp318
g2
I16717
sg3
I157
sg4
S'#housing'
p319
ssI158
(dp320
g2
I12622
sg3
I158
sg4
S'#academy'
p321
ssI159
(dp322
g2
I39247
sg3
I159
sg4
S'stratosphere'
p323
ssI160
(dp324
g2
I18770
sg3
I160
sg4
S'polling_booth'
p325
ssI161
(dp326
g2
I20823
sg3
I161
sg4
S'tenon'
p327
ssI162
(dp328
g2
I16728
sg3
I162
sg4
S'#hull'
p329
ssI163
(dp330
g2
I14681
sg3
I163
sg4
S'cote'
p331
ssI164
(dp332
g2
I16737
sg3
I164
sg4
S'hut'
p333
ssI165
(dp334
g2
I14690
sg3
I165
sg4
S'couchette'
p335
ssI166
(dp336
g2
I18791
sg3
I166
sg4
S'poolroom'
p337
ssI167
(dp338
g2
I37225
sg3
I167
sg4
S'Man'
p339
ssI168
(dp340
g2
I18795
sg3
I168
sg4
S'poorhouse'
p341
ssI169
(dp342
g2
I39281
sg3
I169
sg4
S'thermosphere'
p343
ssI170
(dp344
g2
I63858
sg3
I170
sg4
S'screen_off'
p345
ssI171
(dp346
g2
I20851
sg3
I171
sg4
S'tester'
p347
ssI172
(dp348
g2
I18804
sg3
I172
sg4
S'porch'
p349
ssI173
(dp350
g2
I20855
sg3
I173
sg4
S'test_room'
p351
ssI174
(dp352
g2
I14712
sg3
I174
sg4
S'coverlet'
p353
ssI175
(dp354
g2
I12666
sg3
I175
sg4
S'adjoining_room'
p355
ssI176
(dp356
g2
I18813
sg3
I176
sg4
S'#porte-cochere'
p357
ssI177
(dp358
g2
I37246
sg3
I177
sg4
S'Mull'
p359
ssI178
(dp360
g2
I18815
sg3
I178
sg4
S'portico'
p361
ssI179
(dp362
g2
I39301
sg3
I179
sg4
S'tropopause'
p363
ssI180
(dp364
g2
I37254
sg3
I180
sg4
S'Anglesey'
p365
ssI181
(dp366
g2
I12680
sg3
I181
sg4
S'afghan'
p367
ssI182
(dp368
g2
I18825
sg3
I182
sg4
S'post_and_lintel'
p369
ssI183
(dp370
g2
I16779
sg3
I183
sg4
S'ice_rink'
p371
ssI184
(dp372
g2
I14732
sg3
I184
sg4
S'crankcase'
p373
ssI185
(dp374
g2
I18834
sg3
I185
sg4
S'post-office_box'
p375
ssI186
(dp376
g2
I39315
sg3
I186
sg4
S'upper_mantle'
p377
ssI187
(dp378
g2
I24981
sg3
I187
sg4
S'peritoneal_cavity'
p379
ssI188
(dp380
g2
I24982
sg3
I188
sg4
S'bursa_omentalis'
p381
ssI189
(dp382
g2
I16791
sg3
I189
sg4
S'ignition_coil'
p383
ssI190
(dp384
g2
I18840
sg3
I190
sg4
S'potholder'
p385
ssI191
(dp386
g2
I24987
sg3
I191
sg4
S'pericardial_cavity'
p387
ssI192
(dp388
g2
I51613
sg3
I192
sg4
S'sarsaparilla_root'
p389
ssI193
(dp390
g2
I12703
sg3
I193
sg4
S'airdock'
p391
ssI194
(dp392
g2
I59810
sg3
I194
sg4
S'clear_and_present_danger'
p393
ssI195
(dp394
g2
I16795
sg3
I195
sg4
S'imaret'
p395
ssI196
(dp396
g2
I16790
sg3
I196
sg4
S'igloo'
p397
ssI197
(dp398
g2
I59815
sg3
I197
sg4
S'riskiness'
p399
ssI198
(dp400
g2
I59816
sg3
I198
sg4
S'speculativeness'
p401
ssI199
(dp402
g2
I18154
sg3
I199
sg4
S'operating_room'
p403
ssI200
(dp404
g2
I20909
sg3
I200
sg4
S'threshing_floor'
p405
ssI201
(dp406
g2
I37300
sg3
I201
sg4
S'Bali'
p407
ssI202
(dp408
g2
I37301
sg3
I202
sg4
S'Timor'
p409
ssI203
(dp410
g2
I37302
sg3
I203
sg4
S'Sumatra'
p411
ssI204
(dp412
g2
I37303
sg3
I204
sg4
S'Celebes'
p413
ssI205
(dp414
g2
I37304
sg3
I205
sg4
S'Moluccas'
p415
ssI206
(dp416
g2
I15092
sg3
I206
sg4
S'dining_area'
p417
ssI207
(dp418
g2
I16827
sg3
I207
sg4
S'induction_coil'
p419
ssI208
(dp420
g2
I18878
sg3
I208
sg4
S'#prefab'
p421
ssI209
(dp422
g2
I18879
sg3
I209
sg4
S'presbytery'
p423
ssI210
(dp424
g2
I18881
sg3
I210
sg4
S'presence_chamber'
p425
ssI211
(dp426
g2
I18883
sg3
I211
sg4
S'press_gallery'
p427
ssI212
(dp428
g2
I18886
sg3
I212
sg4
S'pressure_cabin'
p429
ssI213
(dp430
g2
I20935
sg3
I213
sg4
S'tickler_coil'
p431
ssI214
(dp432
g2
I20940
sg3
I214
sg4
S'#tier'
p433
ssI215
(dp434
g2
I18896
sg3
I215
sg4
S'primary_coil'
p435
ssI216
(dp436
g2
I22994
sg3
I216
sg4
S'#computer_architecture'
p437
ssI217
(dp438
g2
I59811
sg3
I217
sg4
S'hazardousness'
p439
ssI218
(dp440
g2
I22996
sg3
I218
sg4
S'reduced_instruction_set_computing'
p441
ssI219
(dp442
g2
I22997
sg3
I219
sg4
S'cytoarchitecture'
p443
ssI220
(dp444
g2
I12759
sg3
I220
sg4
S'#altar'
p445
ssI221
(dp446
g2
I25051
sg3
I221
sg4
S'centromere'
p447
ssI222
(dp448
g2
I37341
sg3
I222
sg4
S'Hokkaido'
p449
ssI223
(dp450
g2
I37342
sg3
I223
sg4
S'Honshu'
p451
ssI224
(dp452
g2
I37343
sg3
I224
sg4
S'Kyushu'
p453
ssI225
(dp454
g2
I37344
sg3
I225
sg4
S'Shikoku'
p455
ssI226
(dp456
g2
I24315
sg3
I226
sg4
S'eye_socket'
p457
ssI227
(dp458
g2
I25060
sg3
I227
sg4
S'#aster'
p459
ssI228
(dp460
g2
I25065
sg3
I228
sg4
S'vacuole'
p461
ssI229
(dp462
g2
I14826
sg3
I229
sg4
S'cubbyhole'
p463
ssI230
(dp464
g2
I16875
sg3
I230
sg4
S'interlayer'
p465
ssI231
(dp466
g2
I20972
sg3
I231
sg4
S'tine'
p467
ssI232
(dp468
g2
I18926
sg3
I232
sg4
S'#projection'
p469
ssI233
(dp470
g2
I18856
sg3
I233
sg4
S'powderpuff'
p471
ssI234
(dp472
g2
I18931
sg3
I234
sg4
S'prompt_box'
p473
ssI235
(dp474
g2
I18933
sg3
I235
sg4
S'prong'
p475
ssI236
(dp476
g2
I12794
sg3
I236
sg4
S'amusement_arcade'
p477
ssI237
(dp478
g2
I37375
sg3
I237
sg4
S'Ile-St-Louis'
p479
ssI238
(dp480
g2
I18944
sg3
I238
sg4
S'#proscenium'
p481
ssI239
(dp482
g2
I61955
sg3
I239
sg4
S'notepad'
p483
ssI240
(dp484
g2
I61956
sg3
I240
sg4
S'scratch_pad'
p485
ssI241
(dp486
g2
I35335
sg3
I241
sg4
S'Ashcan_School'
p487
ssI242
(dp488
g2
I35336
sg3
I242
sg4
S'deconstructivism'
p489
ssI243
(dp490
g2
I35337
sg3
I243
sg4
S'historical_school'
p491
ssI244
(dp492
g2
I64010
sg3
I244
sg4
S'restructure'
p493
ssI245
(dp494
g2
I35340
sg3
I245
sg4
S'junior_school'
p495
ssI246
(dp496
g2
I35341
sg3
I246
sg4
S'infant_school'
p497
ssI247
(dp498
g2
I35342
sg3
I247
sg4
S'correspondence_school'
p499
ssI248
(dp500
g2
I35343
sg3
I248
sg4
S'dancing_school'
p501
ssI249
(dp502
g2
I35344
sg3
I249
sg4
S'direct-grant_school'
p503
ssI250
(dp504
g2
I35345
sg3
I250
sg4
S'driving_school'
p505
ssI251
(dp506
g2
I35346
sg3
I251
sg4
S'police_academy'
p507
ssI252
(dp508
g2
I35347
sg3
I252
sg4
S'military_academy'
p509
ssI253
(dp510
g2
I35348
sg3
I253
sg4
S'naval_academy'
p511
ssI254
(dp512
g2
I35349
sg3
I254
sg4
S'air_force_academy'
p513
ssI255
(dp514
g2
I35350
sg3
I255
sg4
S'Platos_Academy'
p515
ssI256
(dp516
g2
I35351
sg3
I256
sg4
S'French_Academy'
p517
ssI257
(dp518
g2
I18968
sg3
I257
sg4
S'public_works'
p519
ssI258
(dp520
g2
I35353
sg3
I258
sg4
S'Royal_Academy'
p521
ssI259
(dp522
g2
I35354
sg3
I259
sg4
S'Royal_Society'
p523
ssI260
(dp524
g2
I25116
sg3
I260
sg4
S'fovea'
p525
ssI261
(dp526
g2
I25117
sg3
I261
sg4
S'parafovea'
p527
ssI262
(dp528
g2
I21022
sg3
I262
sg4
S'tollbooth'
p529
ssI263
(dp530
g2
I14879
sg3
I263
sg4
S'cutting_room'
p531
ssI264
(dp532
g2
I35362
sg3
I264
sg4
S'graduate_school'
p533
ssI265
(dp534
g2
I35363
sg3
I265
sg4
S'language_school'
p535
ssI266
(dp536
g2
I35364
sg3
I266
sg4
S'law_school'
p537
ssI267
(dp538
g2
I35365
sg3
I267
sg4
S'medical_school'
p539
ssI268
(dp540
g2
I35366
sg3
I268
sg4
S'nursing_school'
p541
ssI269
(dp542
g2
I35368
sg3
I269
sg4
S'riding_school'
p543
ssI270
(dp544
g2
I35369
sg3
I270
sg4
S'secondary_school'
p545
ssI271
(dp546
g2
I35370
sg3
I271
sg4
S'secretarial_school'
p547
ssI272
(dp548
g2
I35372
sg3
I272
sg4
S'technical_school'
p549
ssI273
(dp550
g2
I35373
sg3
I273
sg4
S'polytechnic_institute'
p551
ssI274
(dp552
g2
I35374
sg3
I274
sg4
S'trade_school'
p553
ssI275
(dp554
g2
I35376
sg3
I275
sg4
S'training_school'
p555
ssI276
(dp556
g2
I35377
sg3
I276
sg4
S'multiversity'
p557
ssI277
(dp558
g2
I35378
sg3
I277
sg4
S'Open_University'
p559
ssI278
(dp560
g2
I35379
sg3
I278
sg4
S'veterinary_school'
p561
ssI279
(dp562
g2
I14918
sg3
I279
sg4
S'darkroom'
p563
ssI280
(dp564
g2
I19017
sg3
I280
sg4
S'#pyramid'
p565
ssI281
(dp566
g2
I16970
sg3
I281
sg4
S'Johns_Hopkins'
p567
ssI282
(dp568
g2
I25015
sg3
I282
sg4
S'nucleolus_organizer'
p569
ssI283
(dp570
g2
I20571
sg3
I283
sg4
S'suntrap'
p571
ssI284
(dp572
g2
I37455
sg3
I284
sg4
S'#Faroe_Islands'
p573
ssI285
(dp574
g2
I19025
sg3
I285
sg4
S'#quad'
p575
ssI286
(dp576
g2
I16981
sg3
I286
sg4
S'journal_box'
p577
ssI287
(dp578
g2
I16984
sg3
I287
sg4
S'jungle_gym'
p579
ssI288
(dp580
g2
I14937
sg3
I288
sg4
S'day_nursery'
p581
ssI289
(dp582
g2
I14938
sg3
I289
sg4
S'#day_school'
p583
ssI290
(dp584
g2
I19042
sg3
I290
sg4
S'#quilt'
p585
ssI291
(dp586
g2
I19043
sg3
I291
sg4
S'quilted_bedspread'
p587
ssI292
(dp588
g2
I14948
sg3
I292
sg4
S'deathtrap'
p589
ssI293
(dp590
g2
I21094
sg3
I293
sg4
S'traffic_island'
p591
ssI294
(dp592
g2
I14952
sg3
I294
sg4
S'deck-house'
p593
ssI295
(dp594
g2
I12910
sg3
I295
sg4
S'#arcade'
p595
ssI296
(dp596
g2
I25704
sg3
I296
sg4
S'#groin'
p597
ssI297
(dp598
g2
I37492
sg3
I297
sg4
S'#Madagascar'
p599
ssI298
(dp600
g2
I12918
sg3
I298
sg4
S'#area'
p601
ssI299
(dp602
g2
I25705
sg3
I299
sg4
S'#quick'
p603
ssI300
(dp604
g2
I21114
sg3
I300
sg4
S'transept'
p605
ssI301
(dp606
g2
I12926
sg3
I301
sg4
S'armature'
p607
ssI302
(dp608
g2
I37505
sg3
I302
sg4
S'#Maldives'
p609
ssI303
(dp610
g2
I37510
sg3
I303
sg4
S'#Malta'
p611
ssI304
(dp612
g2
I14983
sg3
I304
sg4
S'den'
p613
ssI305
(dp614
g2
I37514
sg3
I305
sg4
S'#Mauritius'
p615
ssI306
(dp616
g2
I49327
sg3
I306
sg4
S'Eastern_silvery_aster'
p617
ssI307
(dp618
g2
I14996
sg3
I307
sg4
S'departure_lounge'
p619
ssI308
(dp620
g2
I51863
sg3
I308
sg4
S'licorice_root'
p621
ssI309
(dp622
g2
I19097
sg3
I309
sg4
S'radome'
p623
ssI310
(dp624
g2
I25118
sg3
I310
sg4
S'macula'
p625
ssI311
(dp626
g2
I37531
sg3
I311
sg4
S'#New_Zealand'
p627
ssI312
(dp628
g2
I25244
sg3
I312
sg4
S'hypophyseal_stalk'
p629
ssI313
(dp630
g2
I21156
sg3
I313
sg4
S'trestlework'
p631
ssI314
(dp632
g2
I25254
sg3
I314
sg4
S'cortical_area'
p633
ssI315
(dp634
g2
I25255
sg3
I315
sg4
S'association_area'
p635
ssI316
(dp636
g2
I25259
sg3
I316
sg4
S'auditory_area'
p637
ssI317
(dp638
g2
I25261
sg3
I317
sg4
S'Brodmanns_area'
p639
ssI318
(dp640
g2
I25262
sg3
I318
sg4
S'frontal_area'
p641
ssI319
(dp642
g2
I25263
sg3
I319
sg4
S'language_area'
p643
ssI320
(dp644
g2
I25264
sg3
I320
sg4
S'motor_area'
p645
ssI321
(dp646
g2
I25265
sg3
I321
sg4
S'sensorimotor_area'
p647
ssI322
(dp648
g2
I25266
sg3
I322
sg4
S'visual_area'
p649
ssI323
(dp650
g2
I12979
sg3
I323
sg4
S'assembly_hall'
p651
ssI324
(dp652
g2
I12981
sg3
I324
sg4
S'astatic_coils'
p653
ssI325
(dp654
g2
I37561
sg3
I325
sg4
S'#Cebu'
p655
ssI326
(dp656
g2
I37562
sg3
I326
sg4
S'Luzon'
p657
ssI327
(dp658
g2
I37563
sg3
I327
sg4
S'Mindoro'
p659
ssI328
(dp660
g2
I25276
sg3
I328
sg4
S'gyrus'
p661
ssI329
(dp662
g2
I25277
sg3
I329
sg4
S'central_gyrus'
p663
ssI330
(dp664
g2
I37566
sg3
I330
sg4
S'Visayan_Islands'
p665
ssI331
(dp666
g2
I25280
sg3
I331
sg4
S'postcentral_gyrus'
p667
ssI332
(dp668
g2
I25281
sg3
I332
sg4
S'lobule'
p669
ssI333
(dp670
g2
I25282
sg3
I333
sg4
S'frontal_lobe'
p671
ssI334
(dp672
g2
I25283
sg3
I334
sg4
S'prefrontal_lobe'
p673
ssI335
(dp674
g2
I25284
sg3
I335
sg4
S'parietal_lobe'
p675
ssI336
(dp676
g2
I25285
sg3
I336
sg4
S'occipital_lobe'
p677
ssI337
(dp678
g2
I25286
sg3
I337
sg4
S'temporal_lobe'
p679
ssI338
(dp680
g2
I37576
sg3
I338
sg4
S'Azores'
p681
ssI339
(dp682
g2
I37577
sg3
I339
sg4
S'Madeira_Islands'
p683
ssI340
(dp684
g2
I27338
sg3
I340
sg4
S'#biotechnology'
p685
ssI341
(dp686
g2
I27339
sg3
I341
sg4
S'genetic_engineering'
p687
ssI342
(dp688
g2
I27340
sg3
I342
sg4
S'civil_engineering'
p689
ssI343
(dp690
g2
I27341
sg3
I343
sg4
S'hydraulic_engineering'
p691
ssI344
(dp692
g2
I13008
sg3
I344
sg4
S'#attic'
p693
ssI345
(dp694
g2
I37585
sg3
I345
sg4
S'Saint_Christopher'
p695
ssI346
(dp696
g2
I37587
sg3
I346
sg4
S'Nevis'
p697
ssI347
(dp698
g2
I37588
sg3
I347
sg4
S'Sombrero'
p699
ssI348
(dp700
g2
I37589
sg3
I348
sg4
S'#Saint_Lucia'
p701
ssI349
(dp702
g2
I27350
sg3
I349
sg4
S'architectural_engineering'
p703
ssI350
(dp704
g2
I27351
sg3
I350
sg4
S'industrial_engineering'
p705
ssI351
(dp706
g2
I37592
sg3
I351
sg4
S'Saint_Vincent'
p707
ssI352
(dp708
g2
I27353
sg3
I352
sg4
S'nanotechnology'
p709
ssI353
(dp710
g2
I27354
sg3
I353
sg4
S'tribology'
p711
ssI354
(dp712
g2
I27355
sg3
I354
sg4
S'nuclear_engineering'
p713
ssI355
(dp714
g2
I27356
sg3
I355
sg4
S'naval_engineering'
p715
ssI356
(dp716
g2
I13021
sg3
I356
sg4
S'auditorium'
p717
ssI357
(dp718
g2
I37602
sg3
I357
sg4
S'#Samoa'
p719
ssI358
(dp720
g2
I37609
sg3
I358
sg4
S'Principe'
p721
ssI359
(dp722
g2
I17133
sg3
I359
sg4
S'lamphouse'
p723
ssI360
(dp724
g2
I17136
sg3
I360
sg4
S'lanai'
p725
ssI361
(dp726
g2
I37617
sg3
I361
sg4
S'#Seychelles'
p727
ssI362
(dp728
g2
I19186
sg3
I362
sg4
S'recovery_room'
p729
ssI363
(dp730
g2
I22995
sg3
I363
sg4
S'complex_instruction_set_computing'
p731
ssI364
(dp732
g2
I37620
sg3
I364
sg4
S'#Singapore'
p733
ssI365
(dp734
g2
I19189
sg3
I365
sg4
S'recreation_room'
p735
ssI366
(dp736
g2
I24469
sg3
I366
sg4
S'bony_labyrinth'
p737
ssI367
(dp738
g2
I19193
sg3
I367
sg4
S'redbrick_university'
p739
ssI368
(dp740
g2
I13050
sg3
I368
sg4
S'aviary'
p741
ssI369
(dp742
g2
I13052
sg3
I369
sg4
S'awning'
p743
ssI370
(dp744
g2
I18901
sg3
I370
sg4
S'Princeton_University'
p745
ssI371
(dp746
g2
I13442
sg3
I371
sg4
S'birdhouse'
p747
ssI372
(dp748
g2
I19219
sg3
I372
sg4
S'refuge'
p749
ssI373
(dp750
g2
I15124
sg3
I373
sg4
S'disco'
p751
ssI374
(dp752
g2
I13084
sg3
I374
sg4
S'back_porch'
p753
ssI375
(dp754
g2
I13085
sg3
I375
sg4
S'back_room'
p755
ssI376
(dp756
g2
I25742
sg3
I376
sg4
S'zona_pellucida'
p757
ssI377
(dp758
g2
I37667
sg3
I377
sg4
S'Novaya_Zemlya'
p759
ssI378
(dp760
g2
I25734
sg3
I378
sg4
S'celom'
p761
ssI379
(dp762
g2
I25387
sg3
I379
sg4
S'uterine_cavity'
p763
ssI380
(dp764
g2
I17196
sg3
I380
sg4
S'lawcourt'
p765
ssI381
(dp766
g2
I21295
sg3
I381
sg4
S'underfelt'
p767
ssI382
(dp768
g2
I17201
sg3
I382
sg4
S'layby'
p769
ssI383
(dp770
g2
I15155
sg3
I383
sg4
S'distributor_housing'
p771
ssI384
(dp772
g2
I21305
sg3
I384
sg4
S'#university'
p773
ssI385
(dp774
g2
I19258
sg3
I385
sg4
S'rest_house'
p775
ssI386
(dp776
g2
I24305
sg3
I386
sg4
S'pulp_cavity'
p777
ssI387
(dp778
g2
I19261
sg3
I387
sg4
S'retaining_wall'
p779
ssI388
(dp780
g2
I17214
sg3
I388
sg4
S'lean-to'
p781
ssI389
(dp782
g2
I13121
sg3
I389
sg4
S'baldachin'
p783
ssI390
(dp784
g2
I52052
sg3
I390
sg4
S'feather_palm'
p785
ssI391
(dp786
g2
I52053
sg3
I391
sg4
S'fan_palm'
p787
ssI392
(dp788
g2
I15190
sg3
I392
sg4
S'dolmen'
p789
ssI393
(dp790
g2
I50007
sg3
I393
sg4
S'Hottentot_bread'
p791
ssI394
(dp792
g2
I25432
sg3
I394
sg4
S'nasal_cavity'
p793
ssI395
(dp794
g2
I52057
sg3
I395
sg4
S'grugru'
p795
ssI396
(dp796
g2
I25434
sg3
I396
sg4
S'oropharynx'
p797
ssI397
(dp798
g2
I52059
sg3
I397
sg4
S'areca'
p799
ssI398
(dp800
g2
I37724
sg3
I398
sg4
S'Majorca'
p801
ssI399
(dp802
g2
I21306
sg3
I399
sg4
S'University_of_Chicago'
p803
ssI400
(dp804
g2
I52064
sg3
I400
sg4
S'piassava_palm'
p805
ssI401
(dp806
g2
I21345
sg3
I401
sg4
S'vaulting'
p807
ssI402
(dp808
g2
I52067
sg3
I402
sg4
S'palmyra'
p809
ssI403
(dp810
g2
I52070
sg3
I403
sg4
S'lawyer_cane'
p811
ssI404
(dp812
g2
I31889
sg3
I404
sg4
S'Fall_of_Man'
p813
ssI405
(dp814
g2
I52072
sg3
I405
sg4
S'fishtail_palm'
p815
ssI406
(dp816
g2
I52075
sg3
I406
sg4
S'wax_palm'
p817
ssI407
(dp818
g2
I37741
sg3
I407
sg4
S'Tenerife'
p819
ssI408
(dp820
g2
I52079
sg3
I408
sg4
S'carnauba'
p821
ssI409
(dp822
g2
I52081
sg3
I409
sg4
S'caranday'
p823
ssI410
(dp824
g2
I19314
sg3
I410
sg4
S'rink'
p825
ssI411
(dp826
g2
I52083
sg3
I411
sg4
S'corozo'
p827
ssI412
(dp828
g2
I21364
sg3
I412
sg4
S'veranda'
p829
ssI413
(dp830
g2
I25406
sg3
I413
sg4
S'vestibule_of_the_vagina'
p831
ssI414
(dp832
g2
I52086
sg3
I414
sg4
S'latanier'
p833
ssI415
(dp834
g2
I14825
sg3
I415
sg4
S'cubby'
p835
ssI416
(dp836
g2
I35705
sg3
I416
sg4
S'alma_mater'
p837
ssI417
(dp838
g2
I52090
sg3
I417
sg4
S'African_oil_palm'
p839
ssI418
(dp840
g2
I25467
sg3
I418
sg4
S'cecum'
p841
ssI419
(dp842
g2
I52093
sg3
I419
sg4
S'#cabbage_palm'
p843
ssI420
(dp844
g2
I19328
sg3
I420
sg4
S'roadhouse'
p845
ssI421
(dp846
g2
I52098
sg3
I421
sg4
S'nipa_palm'
p847
ssI422
(dp848
g2
I37595
sg3
I422
sg4
S'Tahiti'
p849
ssI423
(dp850
g2
I52100
sg3
I423
sg4
S'babassu'
p851
ssI424
(dp852
g2
I25477
sg3
I424
sg4
S'perineum'
p853
ssI425
(dp854
g2
I37766
sg3
I425
sg4
S'Zanzibar'
p855
ssI426
(dp856
g2
I52103
sg3
I426
sg4
S'cohune_palm'
p857
ssI427
(dp858
g2
I21384
sg3
I427
sg4
S'#vestry'
p859
ssI428
(dp860
g2
I18170
sg3
I428
sg4
S'orchestra_pit'
p861
ssI429
(dp862
g2
I52107
sg3
I429
sg4
S'date_palm'
p863
ssI430
(dp864
g2
I52109
sg3
I430
sg4
S'ivory_palm'
p865
ssI431
(dp866
g2
I17296
sg3
I431
sg4
S'Lincoln_Memorial'
p867
ssI432
(dp868
g2
I25489
sg3
I432
sg4
S'frontal_eminence'
p869
ssI433
(dp870
g2
I35730
sg3
I433
sg4
S'senior_high_school'
p871
ssI434
(dp872
g2
I35731
sg3
I434
sg4
S'junior_high_school'
p873
ssI435
(dp874
g2
I25492
sg3
I435
sg4
S'occipital_protuberance'
p875
ssI436
(dp876
g2
I52117
sg3
I436
sg4
S'lady_palm'
p877
ssI437
(dp878
g2
I35734
sg3
I437
sg4
S'#public_school'
p879
ssI438
(dp880
g2
I52119
sg3
I438
sg4
S'reed_rhapis'
p881
ssI439
(dp882
g2
I35736
sg3
I439
sg4
S'Winchester_College'
p883
ssI440
(dp884
g2
I52121
sg3
I440
sg4
S'royal_palm'
p885
ssI441
(dp886
g2
I52123
sg3
I441
sg4
S'cabbage_palmetto'
p887
ssI442
(dp888
g2
I35741
sg3
I442
sg4
S'night_school'
p889
ssI443
(dp890
g2
I13214
sg3
I443
sg4
S'bascule'
p891
ssI444
(dp892
g2
I52127
sg3
I444
sg4
S'thatch_palm'
p893
ssI445
(dp894
g2
I52128
sg3
I445
sg4
S'key_palm'
p895
ssI446
(dp896
g2
I35745
sg3
I446
sg4
S'Sunday_school'
p897
ssI447
(dp898
g2
I19363
sg3
I447
sg4
S'Roman_building'
p899
ssI448
(dp900
g2
I35748
sg3
I448
sg4
S'grade_school'
p901
ssI449
(dp902
g2
I35749
sg3
I449
sg4
S'grammar_school'
p903
ssI450
(dp904
g2
I35750
sg3
I450
sg4
S'secondary_modern_school'
p905
ssI451
(dp906
g2
I15271
sg3
I451
sg4
S'dressing_room'
p907
ssI452
(dp908
g2
I19370
sg3
I452
sg4
S'#room'
p909
ssI453
(dp910
g2
I19371
sg3
I453
sg4
S'roomette'
p911
ssI454
(dp912
g2
I25518
sg3
I454
sg4
S'tubular_cavity'
p913
ssI455
(dp914
g2
I49309
sg3
I455
sg4
S'white_wood_aster'
p915
ssI456
(dp916
g2
I25520
sg3
I456
sg4
S'armpit'
p917
ssI457
(dp918
g2
I64435
sg3
I457
sg4
S'memorize'
p919
ssI458
(dp920
g2
I14489
sg3
I458
sg4
S'#coil'
p921
ssI459
(dp922
g2
I21433
sg3
I459
sg4
S'voting_booth'
p923
ssI460
(dp924
g2
I15291
sg3
I460
sg4
S'#dripstone'
p925
ssI461
(dp926
g2
I25532
sg3
I461
sg4
S'chest_cavity'
p927
ssI462
(dp928
g2
I18250
sg3
I462
sg4
S'Oxbridge'
p929
ssI463
(dp930
g2
I37822
sg3
I463
sg4
S'Admiralty_Island'
p931
ssI464
(dp932
g2
I25538
sg3
I464
sg4
S'#areola'
p933
ssI465
(dp934
g2
I17347
sg3
I465
sg4
S'locker_room'
p935
ssI466
(dp936
g2
I25541
sg3
I466
sg4
S'#middle'
p937
ssI467
(dp938
g2
I13254
sg3
I467
sg4
S'bathroom'
p939
ssI468
(dp940
g2
I25543
sg3
I468
sg4
S'wasp_waist'
p941
ssI469
(dp942
g2
I21451
sg3
I469
sg4
S'#walk-up'
p943
ssI470
(dp944
g2
I21453
sg3
I470
sg4
S'#wall'
p945
ssI471
(dp946
g2
I25550
sg3
I471
sg4
S'abdominal_cavity'
p947
ssI472
(dp948
g2
I25551
sg3
I472
sg4
S'pubes'
p949
ssI473
(dp950
g2
I17361
sg3
I473
sg4
S'log_cabin'
p951
ssI474
(dp952
g2
I17363
sg3
I474
sg4
S'loggia'
p953
ssI475
(dp954
g2
I24057
sg3
I475
sg4
S'cauda'
p955
ssI476
(dp956
g2
I51371
sg3
I476
sg4
S'orrisroot'
p957
ssI477
(dp958
g2
I25567
sg3
I477
sg4
S'#palm'
p959
ssI478
(dp960
g2
I25568
sg3
I478
sg4
S'thenar'
p961
ssI479
(dp962
g2
I8358
sg3
I479
sg4
S'apodeme'
p963
ssI480
(dp964
g2
I37862
sg3
I480
sg4
S'Santa_Catalina'
p965
ssI481
(dp966
g2
I36348
sg3
I481
sg4
S'no-go_area'
p967
ssI482
(dp968
g2
I19434
sg3
I482
sg4
S'rumpus_room'
p969
ssI483
(dp970
g2
I49319
sg3
I483
sg4
S'sea_aster'
p971
ssI484
(dp972
g2
I15344
sg3
I484
sg4
S'dugout'
p973
ssI485
(dp974
g2
I24061
sg3
I485
sg4
S'concha'
p975
ssI486
(dp976
g2
I17392
sg3
I486
sg4
S'#lounge'
p977
ssI487
(dp978
g2
I25428
sg3
I487
sg4
S'spermatic_cord'
p979
ssI488
(dp980
g2
I13315
sg3
I488
sg4
S'bedclothes'
p981
ssI489
(dp982
g2
I15364
sg3
I489
sg4
S'durbar'
p983
ssI490
(dp984
g2
I17413
sg3
I490
sg4
S'#lug'
p985
ssI491
(dp986
g2
I19463
sg3
I491
sg4
S'safehold'
p987
ssI492
(dp988
g2
I17417
sg3
I492
sg4
S'luggage_compartment'
p989
ssI493
(dp990
g2
I13324
sg3
I493
sg4
S'bedroll'
p991
ssI494
(dp992
g2
I13325
sg3
I494
sg4
S'bedroom'
p993
ssI495
(dp994
g2
I13328
sg3
I495
sg4
S'bedspread'
p995
ssI496
(dp996
g2
I52056
sg3
I496
sg4
S'coyol'
p997
ssI497
(dp998
g2
I37909
sg3
I497
sg4
S'Waikiki'
p999
ssI498
(dp1000
g2
I25433
sg3
I498
sg4
S'nasopharynx'
p1001
ssI499
(dp1002
g2
I37912
sg3
I499
sg4
S'Kauai'
p1003
ssI500
(dp1004
g2
I37913
sg3
I500
sg4
S'Lanai'
p1005
ssI501
(dp1006
g2
I37914
sg3
I501
sg4
S'Maui'
p1007
ssI502
(dp1008
g2
I37915
sg3
I502
sg4
S'Molokai'
p1009
ssI503
(dp1010
g2
I37916
sg3
I503
sg4
S'Nihau'
p1011
ssI504
(dp1012
g2
I37917
sg3
I504
sg4
S'Oahu'
p1013
ssI505
(dp1014
g2
I15547
sg3
I505
sg4
S'#establishment'
p1015
ssI506
(dp1016
g2
I49328
sg3
I506
sg4
S'flat-topped_white_aster'
p1017
ssI507
(dp1018
g2
I25435
sg3
I507
sg4
S'laryngopharynx'
p1019
ssI508
(dp1020
g2
I25636
sg3
I508
sg4
S'horny_structure'
p1021
ssI509
(dp1022
g2
I25637
sg3
I509
sg4
S'#half-moon'
p1023
ssI510
(dp1024
g2
I13350
sg3
I510
sg4
S'bell_gable'
p1025
ssI511
(dp1026
g2
I53425
sg3
I511
sg4
S'mandrake_root'
p1027
ssI512
(dp1028
g2
I25745
sg3
I512
sg4
S'beta_receptor'
p1029
ssI513
(dp1030
g2
I52060
sg3
I513
sg4
S'betel_palm'
p1031
ssI514
(dp1032
g2
I37725
sg3
I514
sg4
S'Canary_Islands'
p1033
ssI515
(dp1034
g2
I13363
sg3
I515
sg4
S'belvedere'
p1035
ssI516
(dp1036
g2
I15421
sg3
I516
sg4
S'electric_blanket'
p1037
ssI517
(dp1038
g2
I19518
sg3
I517
sg4
S'sanitary_napkin'
p1039
ssI518
(dp1040
g2
I21574
sg3
I518
sg4
S'#wellhead'
p1041
ssI519
(dp1042
g2
I11766
sg3
I519
sg4
S'gill_slit'
p1043
ssI520
(dp1044
g2
I12813
sg3
I520
sg4
S'anechoic_chamber'
p1045
ssI521
(dp1046
g2
I25683
sg3
I521
sg4
S'costa'
p1047
ssI522
(dp1048
g2
I54356
sg3
I522
sg4
S'taproot'
p1049
ssI523
(dp1050
g2
I54357
sg3
I523
sg4
S'adventitious_root'
p1051
ssI524
(dp1052
g2
I54360
sg3
I524
sg4
S'rootlet'
p1053
ssI525
(dp1054
g2
I20324
sg3
I525
sg4
S'standing_room'
p1055
ssI526
(dp1056
g2
I54362
sg3
I526
sg4
S'prop_root'
p1057
ssI527
(dp1058
g2
I19541
sg3
I527
sg4
S'sauna'
p1059
ssI528
(dp1060
g2
I27152
sg3
I528
sg4
S'orthopedics'
p1061
ssI529
(dp1062
g2
I25699
sg3
I529
sg4
S'#pelvis'
p1063
ssI530
(dp1064
g2
I25700
sg3
I530
sg4
S'pelvic_cavity'
p1065
ssI531
(dp1066
g2
I37992
sg3
I531
sg4
S'Marthas_Vineyard'
p1067
ssI532
(dp1068
g2
I37993
sg3
I532
sg4
S'Nantucket'
p1069
ssI533
(dp1070
g2
I13418
sg3
I533
sg4
S'billet'
p1071
ssI534
(dp1072
g2
I13421
sg3
I534
sg4
S'billiard_room'
p1073
ssI535
(dp1074
g2
I17597
sg3
I535
sg4
S'mattress_pad'
p1075
ssI536
(dp1076
g2
I21616
sg3
I536
sg4
S'whorehouse'
p1077
ssI537
(dp1078
g2
I13428
sg3
I537
sg4
S'binnacle'
p1079
ssI538
(dp1080
g2
I19573
sg3
I538
sg4
S'#school'
p1081
ssI539
(dp1082
g2
I52054
sg3
I539
sg4
S'palmetto'
p1083
ssI540
(dp1084
g2
I15480
sg3
I540
sg4
S'emergency_room'
p1085
ssI541
(dp1086
g2
I19578
sg3
I541
sg4
S'school_system'
p1087
ssI542
(dp1088
g2
I17531
sg3
I542
sg4
S'manor_hall'
p1089
ssI543
(dp1090
g2
I25725
sg3
I543
sg4
S'abdominal_wall'
p1091
ssI544
(dp1092
g2
I25727
sg3
I544
sg4
S'rotator_cuff'
p1093
ssI545
(dp1094
g2
I35970
sg3
I545
sg4
S'Antarctic'
p1095
ssI546
(dp1096
g2
I17542
sg3
I546
sg4
S'map_projection'
p1097
ssI547
(dp1098
g2
I25735
sg3
I547
sg4
S'cornu'
p1099
ssI548
(dp1100
g2
I19592
sg3
I548
sg4
S'scouring_pad'
p1101
ssI549
(dp1102
g2
I35979
sg3
I549
sg4
S'Arctic'
p1103
ssI550
(dp1104
g2
I15502
sg3
I550
sg4
S'#engineering'
p1105
ssI551
(dp1106
g2
I25743
sg3
I551
sg4
S'receptor'
p1107
ssI552
(dp1108
g2
I25744
sg3
I552
sg4
S'alpha_receptor'
p1109
ssI553
(dp1110
g2
I35352
sg3
I553
sg4
S'National_Academy_of_Sciences'
p1111
ssI554
(dp1112
g2
I35986
sg3
I554
sg4
S'bedground'
p1113
ssI555
(dp1114
g2
I17556
sg3
I555
sg4
S'marquee'
p1115
ssI556
(dp1116
g2
I15511
sg3
I556
sg4
S'entablature'
p1117
ssI557
(dp1118
g2
I25753
sg3
I557
sg4
S'#zone'
p1119
ssI558
(dp1120
g2
I25754
sg3
I558
sg4
S'zonule'
p1121
ssI559
(dp1122
g2
I13467
sg3
I559
sg4
S'#blanket'
p1123
ssI560
(dp1124
g2
I21662
sg3
I560
sg4
S'wind_tunnel'
p1125
ssI561
(dp1126
g2
I48288
sg3
I561
sg4
S'corolla'
p1127
ssI562
(dp1128
g2
I48289
sg3
I562
sg4
S'calyx'
p1129
ssI563
(dp1130
g2
I19618
sg3
I563
sg4
S'scullery'
p1131
ssI564
(dp1132
g2
I48292
sg3
I564
sg4
S'pappus'
p1133
ssI565
(dp1134
g2
I48293
sg3
I565
sg4
S'thistledown'
p1135
ssI566
(dp1136
g2
I15527
sg3
I566
sg4
S'equal-area_projection'
p1137
ssI567
(dp1138
g2
I35356
sg3
I567
sg4
S'business_school'
p1139
ssI568
(dp1140
g2
I17579
sg3
I568
sg4
S'master_bedroom'
p1141
ssI569
(dp1142
g2
I15532
sg3
I569
sg4
S'#erection'
p1143
ssI570
(dp1144
g2
I35357
sg3
I570
sg4
S'dental_school'
p1145
ssI571
(dp1146
g2
I13338
sg3
I571
sg4
S'beer_hall'
p1147
ssI572
(dp1148
g2
I35358
sg3
I572
sg4
S'finishing_school'
p1149
ssI573
(dp1150
g2
I31927
sg3
I573
sg4
S'intravenous_drip'
p1151
ssI574
(dp1152
g2
I54456
sg3
I574
sg4
S'lily_pad'
p1153
ssI575
(dp1154
g2
I23737
sg3
I575
sg4
S'acreage'
p1155
ssI576
(dp1156
g2
I19642
sg3
I576
sg4
S'secondary_coil'
p1157
ssI577
(dp1158
g2
I35359
sg3
I577
sg4
S'flying_school'
p1159
ssI578
(dp1160
g2
I17596
sg3
I578
sg4
S'mattress_cover'
p1161
ssI579
(dp1162
g2
I38077
sg3
I579
sg4
S'Ellis_Island'
p1163
ssI580
(dp1164
g2
I52085
sg3
I580
sg4
S'gebang_palm'
p1165
ssI581
(dp1166
g2
I19649
sg3
I581
sg4
S'#security_blanket'
p1167
ssI582
(dp1168
g2
I13506
sg3
I582
sg4
S'boardroom'
p1169
ssI583
(dp1170
g2
I39302
sg3
I583
sg4
S'troposphere'
p1171
ssI584
(dp1172
g2
I36043
sg3
I584
sg4
S'broadcast_area'
p1173
ssI585
(dp1174
g2
I38097
sg3
I585
sg4
S'Long_Island'
p1175
ssI586
(dp1176
g2
I28195
sg3
I586
sg4
S'#erasure'
p1177
ssI587
(dp1178
g2
I21716
sg3
I587
sg4
S'workroom'
p1179
ssI588
(dp1180
g2
I52089
sg3
I588
sg4
S'oil_palm'
p1181
ssI589
(dp1182
g2
I15580
sg3
I589
sg4
S'exhibition_hall'
p1183
ssI590
(dp1184
g2
I13178
sg3
I590
sg4
S'barbette'
p1185
ssI591
(dp1186
g2
I13861
sg3
I591
sg4
S'cable_car'
p1187
ssI592
(dp1188
g2
I19680
sg3
I592
sg4
S'sentry_box'
p1189
ssI593
(dp1190
g2
I52091
sg3
I593
sg4
S'American_oil_palm'
p1191
ssI594
(dp1192
g2
I17637
sg3
I594
sg4
S'#memorial'
p1193
ssI595
(dp1194
g2
I17644
sg3
I595
sg4
S'menhir'
p1195
ssI596
(dp1196
g2
I13553
sg3
I596
sg4
S'bomb_shelter'
p1197
ssI597
(dp1198
g2
I19546
sg3
I597
sg4
S'sawdust_saloon'
p1199
ssI598
(dp1200
g2
I19701
sg3
I598
sg4
S'#set_back'
p1201
ssI599
(dp1202
g2
I17658
sg3
I599
sg4
S'Mercator_projection'
p1203
ssI600
(dp1204
g2
I6065
sg3
I600
sg4
S'archenteron'
p1205
ssI601
(dp1206
g2
I31890
sg3
I601
sg4
S'road_to_Damascus'
p1207
ssI602
(dp1208
g2
I13576
sg3
I602
sg4
S'#booth'
p1209
ssI603
(dp1210
g2
I15629
sg3
I603
sg4
S'fallout_shelter'
p1211
ssI604
(dp1212
g2
I15633
sg3
I604
sg4
S'family_room'
p1213
ssI605
(dp1214
g2
I36115
sg3
I605
sg4
S'disaster_area'
p1215
ssI606
(dp1216
g2
I15642
sg3
I606
sg4
S'fantail'
p1217
ssI607
(dp1218
g2
I15644
sg3
I607
sg4
S'fan_vaulting'
p1219
ssI608
(dp1220
g2
I38175
sg3
I608
sg4
S'Galveston_Island'
p1221
ssI609
(dp1222
g2
I13601
sg3
I609
sg4
S'boudoir'
p1223
ssI610
(dp1224
g2
I62765
sg3
I610
sg4
S'first_quarter'
p1225
ssI611
(dp1226
g2
I62766
sg3
I611
sg4
S'last_quarter'
p1227
ssI612
(dp1228
g2
I38109
sg3
I612
sg4
S'Hatteras_Island'
p1229
ssI613
(dp1230
g2
I36145
sg3
I613
sg4
S'dude_ranch'
p1231
ssI614
(dp1232
g2
I17434
sg3
I614
sg4
S'lyceum'
p1233
ssI615
(dp1234
g2
I24390
sg3
I615
sg4
S'buccal_cavity'
p1235
ssI616
(dp1236
g2
I15669
sg3
I616
sg4
S'feedlot'
p1237
ssI617
(dp1238
g2
I57351
sg3
I617
sg4
S'caput'
p1239
ssI618
(dp1240
g2
I17632
sg3
I618
sg4
S'megalith'
p1241
ssI619
(dp1242
g2
I19780
sg3
I619
sg4
S'shipping_room'
p1243
ssI620
(dp1244
g2
I37416
sg3
I620
sg4
S'Martinique'
p1245
ssI621
(dp1246
g2
I15389
sg3
I621
sg4
S'eaves'
p1247
ssI622
(dp1248
g2
I15698
sg3
I622
sg4
S'field_coil'
p1249
ssI623
(dp1250
g2
I14222
sg3
I623
sg4
S'checkroom'
p1251
ssI624
(dp1252
g2
I36192
sg3
I624
sg4
S'Frigid_Zone'
p1253
ssI625
(dp1254
g2
I52112
sg3
I625
sg4
S'raffia_palm'
p1255
ssI626
(dp1256
g2
I17763
sg3
I626
sg4
S'#ministry'
p1257
ssI627
(dp1258
g2
I36196
sg3
I627
sg4
S'gathering_place'
p1259
ssI628
(dp1260
g2
I52114
sg3
I628
sg4
S'jupati'
p1261
ssI629
(dp1262
g2
I52115
sg3
I629
sg4
S'bamboo_palm'
p1263
ssI630
(dp1264
g2
I20164
sg3
I630
sg4
S'spark_coil'
p1265
ssI631
(dp1266
g2
I36215
sg3
I631
sg4
S'#haunt'
p1267
ssI632
(dp1268
g2
I13204
sg3
I632
sg4
S'barrelhouse'
p1269
ssI633
(dp1270
g2
I36218
sg3
I633
sg4
S'#hunting_ground'
p1271
ssI634
(dp1272
g2
I31637
sg3
I634
sg4
S'#devastation'
p1273
ssI635
(dp1274
g2
I17573
sg3
I635
sg4
S'Massachusetts_Institute_of_Technology'
p1275
ssI636
(dp1276
g2
I19842
sg3
I636
sg4
S'shower_room'
p1277
ssI637
(dp1278
g2
I19843
sg3
I637
sg4
S'shower_stall'
p1279
ssI638
(dp1280
g2
I19844
sg3
I638
sg4
S'showroom'
p1281
ssI639
(dp1282
g2
I52118
sg3
I639
sg4
S'miniature_fan_palm'
p1283
ssI640
(dp1284
g2
I13705
sg3
I640
sg4
S'#brim'
p1285
ssI641
(dp1286
g2
I35735
sg3
I641
sg4
S'Eton_College'
p1287
ssI642
(dp1288
g2
I50578
sg3
I642
sg4
S'briarroot'
p1289
ssI643
(dp1290
g2
I19860
sg3
I643
sg4
S'sickbay'
p1291
ssI644
(dp1292
g2
I19863
sg3
I644
sg4
S'sickroom'
p1293
ssI645
(dp1294
g2
I15768
sg3
I645
sg4
S'firetrap'
p1295
ssI646
(dp1296
g2
I37104
sg3
I646
sg4
S'New_Caledonia'
p1297
ssI647
(dp1298
g2
I35739
sg3
I647
sg4
S'dance_school'
p1299
ssI648
(dp1300
g2
I21062
sg3
I648
sg4
S'torture_chamber'
p1301
ssI649
(dp1302
g2
I37105
sg3
I649
sg4
S'New_Guinea'
p1303
ssI650
(dp1304
g2
I36764
sg3
I650
sg4
S'#Cuba'
p1305
ssI651
(dp1306
g2
I17837
sg3
I651
sg4
S'morgue'
p1307
ssI652
(dp1308
g2
I36271
sg3
I652
sg4
S'#salient'
p1309
ssI653
(dp1310
g2
I17852
sg3
I653
sg4
S'motel_room'
p1311
ssI654
(dp1312
g2
I36085
sg3
I654
sg4
S'climatic_zone'
p1313
ssI655
(dp1314
g2
I13761
sg3
I655
sg4
S'#building'
p1315
ssI656
(dp1316
g2
I6049
sg3
I656
sg4
S'blastoderm'
p1317
ssI657
(dp1318
g2
I17865
sg3
I657
sg4
S'#mound'
p1319
ssI658
(dp1320
g2
I13211
sg3
I658
sg4
S'barroom'
p1321
ssI659
(dp1322
g2
I61630
sg3
I659
sg4
S'message_pad'
p1323
ssI660
(dp1324
g2
I25542
sg3
I660
sg4
S'waist'
p1325
ssI661
(dp1326
g2
I19922
sg3
I661
sg4
S'sinusoidal_projection'
p1327
ssI662
(dp1328
g2
I19875
sg3
I662
sg4
S'#sidewall'
p1329
ssI663
(dp1330
g2
I12879
sg3
I663
sg4
S'apadana'
p1331
ssI664
(dp1332
g2
I21754
sg3
I664
sg4
S'Yale_university'
p1333
ssI665
(dp1334
g2
I19934
sg3
I665
sg4
S'skein'
p1335
ssI666
(dp1336
g2
I24486
sg3
I666
sg4
S'mediastinum'
p1337
ssI667
(dp1338
g2
I37457
sg3
I667
sg4
S'#Iceland'
p1339
ssI668
(dp1340
g2
I14588
sg3
I668
sg4
S'conformal_projection'
p1341
ssI669
(dp1342
g2
I35751
sg3
I669
sg4
S'comprehensive_school'
p1343
ssI670
(dp1344
g2
I13804
sg3
I670
sg4
S'burial_mound'
p1345
ssI671
(dp1346
g2
I56814
sg3
I671
sg4
S'square_root'
p1347
ssI672
(dp1348
g2
I56815
sg3
I672
sg4
S'cube_root'
p1349
ssI673
(dp1350
g2
I24049
sg3
I673
sg4
S'erogenous_zone'
p1351
ssI674
(dp1352
g2
I13812
sg3
I674
sg4
S'#burr'
p1353
ssI675
(dp1354
g2
I24053
sg3
I675
sg4
S'carina'
p1355
ssI676
(dp1356
g2
I24054
sg3
I676
sg4
S'carina_fornicis'
p1357
ssI677
(dp1358
g2
I11767
sg3
I677
sg4
S'gill_arch'
p1359
ssI678
(dp1360
g2
I11768
sg3
I678
sg4
S'#peristome'
p1361
ssI679
(dp1362
g2
I11769
sg3
I679
sg4
S'syrinx'
p1363
ssI680
(dp1364
g2
I24058
sg3
I680
sg4
S'chiasma'
p1365
ssI681
(dp1366
g2
I24059
sg3
I681
sg4
S'cingulum'
p1367
ssI682
(dp1368
g2
I24060
sg3
I682
sg4
S'optic_chiasma'
p1369
ssI683
(dp1370
g2
I36349
sg3
I683
sg4
S'no-mans-land'
p1371
ssI684
(dp1372
g2
I24063
sg3
I684
sg4
S'germ'
p1373
ssI685
(dp1374
g2
I24064
sg3
I685
sg4
S'infundibulum'
p1375
ssI686
(dp1376
g2
I14592
sg3
I686
sg4
S'connecting_room'
p1377
ssI687
(dp1378
g2
I19973
sg3
I687
sg4
S'skyscraper'
p1379
ssI688
(dp1380
g2
I26121
sg3
I688
sg4
S'configuration'
p1381
ssI689
(dp1382
g2
I14254
sg3
I689
sg4
S'chimney_breast'
p1383
ssI690
(dp1384
g2
I38424
sg3
I690
sg4
S'asthenosphere'
p1385
ssI691
(dp1386
g2
I48665
sg3
I691
sg4
S'#calamus'
p1387
ssI692
(dp1388
g2
I52125
sg3
I692
sg4
S'saw_palmetto'
p1389
ssI693
(dp1390
g2
I49329
sg3
I693
sg4
S'late_purple_aster'
p1391
ssI694
(dp1392
g2
I24096
sg3
I694
sg4
S'limbus'
p1393
ssI695
(dp1394
g2
I24097
sg3
I695
sg4
S'radicle'
p1395
ssI696
(dp1396
g2
I38435
sg3
I696
sg4
S'barrier_island'
p1397
ssI697
(dp1398
g2
I17957
sg3
I697
sg4
S'National_Baseball_Hall_of_Fame'
p1399
ssI698
(dp1400
g2
I17958
sg3
I698
sg4
S'national_monument'
p1401
ssI699
(dp1402
g2
I36785
sg3
I699
sg4
S'Trinidad'
p1403
ssI700
(dp1404
g2
I13146
sg3
I700
sg4
S'ballroom'
p1405
ssI701
(dp1406
g2
I9773
sg3
I701
sg4
S'calyculus'
p1407
ssI702
(dp1408
g2
I9774
sg3
I702
sg4
S'optic_cup'
p1409
ssI703
(dp1410
g2
I14510
sg3
I703
sg4
S'colonnade'
p1411
ssI704
(dp1412
g2
I17969
sg3
I704
sg4
S'nave'
p1413
ssI705
(dp1414
g2
I36412
sg3
I705
sg4
S'staging_area'
p1415
ssI706
(dp1416
g2
I36789
sg3
I706
sg4
S'#Cyprus'
p1417
ssI707
(dp1418
g2
I36427
sg3
I707
sg4
S'resort'
p1419
ssI708
(dp1420
g2
I13900
sg3
I708
sg4
S'Cambridge_University'
p1421
ssI709
(dp1422
g2
I20045
sg3
I709
sg4
S'smoking_room'
p1423
ssI710
(dp1424
g2
I15288
sg3
I710
sg4
S'#drip'
p1425
ssI711
(dp1426
g2
I36435
sg3
I711
sg4
S'#danger'
p1427
ssI712
(dp1428
g2
I36675
sg3
I712
sg4
S'Great_Wall_of_China'
p1429
ssI713
(dp1430
g2
I20063
sg3
I713
sg4
S'snowbank'
p1431
ssI714
(dp1432
g2
I17339
sg3
I714
sg4
S'#lobe'
p1433
ssI715
(dp1434
g2
I11375
sg3
I715
sg4
S'#pad'
p1435
ssI716
(dp1436
g2
I24172
sg3
I716
sg4
S'ethmoid_sinus'
p1437
ssI717
(dp1438
g2
I24173
sg3
I717
sg4
S'frontal_sinus'
p1439
ssI718
(dp1440
g2
I24174
sg3
I718
sg4
S'maxillary_sinus'
p1441
ssI719
(dp1442
g2
I24175
sg3
I719
sg4
S'paranasal_sinus'
p1443
ssI720
(dp1444
g2
I20081
sg3
I720
sg4
S'soap_pad'
p1445
ssI721
(dp1446
g2
I24178
sg3
I721
sg4
S'#lumen'
p1447
ssI722
(dp1448
g2
I36768
sg3
I722
sg4
S'Guadeloupe'
p1449
ssI723
(dp1450
g2
I13944
sg3
I723
sg4
S'#canopy'
p1451
ssI724
(dp1452
g2
I54908
sg3
I724
sg4
S'trust_territory'
p1453
ssI725
(dp1454
g2
I24171
sg3
I725
sg4
S'sinus'
p1455
ssI726
(dp1456
g2
I36487
sg3
I726
sg4
S'tank_farm'
p1457
ssI727
(dp1458
g2
I56968
sg3
I727
sg4
S'breathing_room'
p1459
ssI728
(dp1460
g2
I56969
sg3
I728
sg4
S'houseroom'
p1461
ssI729
(dp1462
g2
I36490
sg3
I729
sg4
S'North_Temperate_Zone'
p1463
ssI730
(dp1464
g2
I38539
sg3
I730
sg4
S'chromosphere'
p1465
ssI731
(dp1466
g2
I16018
sg3
I731
sg4
S'front_porch'
p1467
ssI732
(dp1468
g2
I13973
sg3
I732
sg4
S'caravansary'
p1469
ssI733
(dp1470
g2
I36463
sg3
I733
sg4
S'ski_resort'
p1471
ssI734
(dp1472
g2
I24220
sg3
I734
sg4
S'fundus'
p1473
ssI735
(dp1474
g2
I24221
sg3
I735
sg4
S'funiculus'
p1475
ssI736
(dp1476
g2
I16032
sg3
I736
sg4
S'funeral_home'
p1477
ssI737
(dp1478
g2
I18081
sg3
I737
sg4
S'nursery'
p1479
ssI738
(dp1480
g2
I19398
sg3
I738
sg4
S'#rotunda'
p1481
ssI739
(dp1482
g2
I24177
sg3
I739
sg4
S'locule'
p1483
ssI740
(dp1484
g2
I16042
sg3
I740
sg4
S'furnace_room'
p1485
ssI741
(dp1486
g2
I18034
sg3
I741
sg4
S'Nissen_hut'
p1487
ssI742
(dp1488
g2
I36527
sg3
I742
sg4
S'watering_place'
p1489
ssI743
(dp1490
g2
I20424
sg3
I743
sg4
S'stockroom'
p1491
ssI744
(dp1492
g2
I14003
sg3
I744
sg4
S'Carnegie-Mellon_University'
p1493
ssI745
(dp1494
g2
I18102
sg3
I745
sg4
S'observatory'
p1495
ssI746
(dp1496
g2
I16059
sg3
I746
sg4
S'gable'
p1497
ssI747
(dp1498
g2
I14014
sg3
I747
sg4
S'carpet_pad'
p1499
ssI748
(dp1500
g2
I18112
sg3
I748
sg4
S'office_building'
p1501
ssI749
(dp1502
g2
I36545
sg3
I749
sg4
S'winners_circle'
p1503
ssI750
(dp1504
g2
I20107
sg3
I750
sg4
S'solenoid'
p1505
ssI751
(dp1506
g2
I16074
sg3
I751
sg4
S'gambling_house'
p1507
ssI752
(dp1508
g2
I20172
sg3
I752
sg4
S'speakeasy'
p1509
ssI753
(dp1510
g2
I36559
sg3
I753
sg4
S'#combat_zone'
p1511
ssI754
(dp1512
g2
I36560
sg3
I754
sg4
S'beachhead'
p1513
ssI755
(dp1514
g2
I36561
sg3
I755
sg4
S'danger_zone'
p1515
ssI756
(dp1516
g2
I36562
sg3
I756
sg4
S'drop_zone'
p1517
ssI757
(dp1518
g2
I36565
sg3
I757
sg4
S'tidal_zone'
p1519
ssI758
(dp1520
g2
I36566
sg3
I758
sg4
S'time_zone'
p1521
ssI759
(dp1522
g2
I36815
sg3
I759
sg4
S'Bioko'
p1523
ssI760
(dp1524
g2
I27337
sg3
I760
sg4
S'bionics'
p1525
ssI761
(dp1526
g2
I36818
sg3
I761
sg4
S'Spitsbergen'
p1527
ssI762
(dp1528
g2
I18159
sg3
I762
sg4
S'opium_den'
p1529
ssI763
(dp1530
g2
I38641
sg3
I763
sg4
S'exosphere'
p1531
ssI764
(dp1532
g2
I31429
sg3
I764
sg4
S'merestone'
p1533
ssI765
(dp1534
g2
I36596
sg3
I765
sg4
S'Aran_Islands'
p1535
ssI766
(dp1536
g2
I36598
sg3
I766
sg4
S'Cayman_Islands'
p1537
ssI767
(dp1538
g2
I36601
sg3
I767
sg4
S'Antigua'
p1539
ssI768
(dp1540
g2
I36602
sg3
I768
sg4
S'Atlantis'
p1541
ssI769
(dp1542
g2
I36603
sg3
I769
sg4
S'Barbuda'
p1543
ssI770
(dp1544
g2
I36604
sg3
I770
sg4
S'Redonda'
p1545
ssI771
(dp1546
g2
I36607
sg3
I771
sg4
S'Bermuda'
p1547
ssI772
(dp1548
g2
I36609
sg3
I772
sg4
S'Bermuda_Triangle'
p1549
ssI773
(dp1550
g2
I36610
sg3
I773
sg4
S'Montserrat'
p1551
ssI774
(dp1552
g2
I38662
sg3
I774
sg4
S'footwall'
p1553
ssI775
(dp1554
g2
I14087
sg3
I775
sg4
S'catchment'
p1555
ssI776
(dp1556
g2
I36769
sg3
I776
sg4
S'Hispaniola'
p1557
ssI777
(dp1558
g2
I16343
sg3
I777
sg4
S'guestroom'
p1559
ssI778
(dp1560
g2
I12608
sg3
I778
sg4
S'abattoir'
p1561
ssI779
(dp1562
g2
I24065
sg3
I779
sg4
S'#landmark'
p1563
ssI780
(dp1564
g2
I12881
sg3
I780
sg4
S'apartment_building'
p1565
ssI781
(dp1566
g2
I36634
sg3
I781
sg4
S'Sao_Tiago_Island'
p1567
ssI782
(dp1568
g2
I36635
sg3
I782
sg4
S'Falkland_Islands'
p1569
ssI783
(dp1570
g2
I36638
sg3
I783
sg4
S'Ceylon'
p1571
ssI784
(dp1572
g2
I16159
sg3
I784
sg4
S'gazebo'
p1573
ssI785
(dp1574
g2
I36644
sg3
I785
sg4
S'Chiloe'
p1575
ssI786
(dp1576
g2
I17129
sg3
I786
sg4
S'laminar_flow_clean_room'
p1577
ssI787
(dp1578
g2
I20272
sg3
I787
sg4
S'#squadroom'
p1579
ssI788
(dp1580
g2
I18229
sg3
I788
sg4
S'#overhang'
p1581
ssI789
(dp1582
g2
I36489
sg3
I789
sg4
S'Temperate_Zone'
p1583
ssI790
(dp1584
g2
I14137
sg3
I790
sg4
S'cenotaph'
p1585
ssI791
(dp1586
g2
I16187
sg3
I791
sg4
S'gildhall'
p1587
ssI792
(dp1588
g2
I56970
sg3
I792
sg4
S'living_space'
p1589
ssI793
(dp1590
g2
I19765
sg3
I793
sg4
S'#shelter'
p1591
ssI794
(dp1592
g2
I14110
sg3
I794
sg4
S'cavity_wall'
p1593
ssI795
(dp1594
g2
I56971
sg3
I795
sg4
S'sea_room'
p1595
ssI796
(dp1596
g2
I36676
sg3
I796
sg4
S'#Taiwan'
p1597
ssI797
(dp1598
g2
I16694
sg3
I797
sg4
S'#hostel'
p1599
ssI798
(dp1600
g2
I15815
sg3
I798
sg4
S'flange'
p1601
ssI799
(dp1602
g2
I36680
sg3
I799
sg4
S'Macao'
p1603
ssI800
(dp1604
g2
I24393
sg3
I800
sg4
S'#cavity'
p1605
ssI801
(dp1606
g2
I24394
sg3
I801
sg4
S'antrum'
p1607
ssI802
(dp1608
g2
I24395
sg3
I802
sg4
S'vestibule'
p1609
ssI803
(dp1610
g2
I24396
sg3
I803
sg4
S'vestibule_of_the_ear'
p1611
ssI804
(dp1612
g2
I38733
sg3
I804
sg4
S'hanging_wall'
p1613
ssI805
(dp1614
g2
I18254
sg3
I805
sg4
S'Oxford_University'
p1615
ssI806
(dp1616
g2
I16210
sg3
I806
sg4
S'glove_compartment'
p1617
ssI807
(dp1618
g2
I37911
sg3
I807
sg4
S'Kahoolawe'
p1619
ssI808
(dp1620
g2
I16218
sg3
I808
sg4
S'goalmouth'
p1621
ssI809
(dp1622
g2
I24412
sg3
I809
sg4
S'#root'
p1623
ssI810
(dp1624
g2
I38755
sg3
I810
sg4
S'hydrosphere'
p1625
ssI811
(dp1626
g2
I37247
sg3
I811
sg4
S'Staffa'
p1627
ssI812
(dp1628
g2
I19430
sg3
I812
sg4
S'#ruin'
p1629
ssI813
(dp1630
g2
I20327
sg3
I813
sg4
S'Stanford_University'
p1631
ssI814
(dp1632
g2
I36717
sg3
I814
sg4
S'Panama_Canal_Zone'
p1633
ssI815
(dp1634
g2
I65391
sg3
I815
sg4
S'circumvallate'
p1635
ssI816
(dp1636
g2
I14193
sg3
I816
sg4
S'chancel'
p1637
ssI817
(dp1638
g2
I14197
sg3
I817
sg4
S'chandlery'
p1639
ssI818
(dp1640
g2
I20342
sg3
I818
sg4
S'stateroom'
p1641
ssI819
(dp1642
g2
I20353
sg3
I819
sg4
S'steam_bath'
p1643
ssI820
(dp1644
g2
I21483
sg3
I820
sg4
S'Washington_Monument'
p1645
ssI821
(dp1646
g2
I24454
sg3
I821
sg4
S'uvea'
p1647
ssI822
(dp1648
g2
I36749
sg3
I822
sg4
S'Guadalupe_Island'
p1649
ssI823
(dp1650
g2
I36750
sg3
I823
sg4
S'Caribbean_Island'
p1651
ssI824
(dp1652
g2
I13226
sg3
I824
sg4
S'#basilica'
p1653
ssI825
(dp1654
g2
I36755
sg3
I825
sg4
S'Netherlands_Antilles'
p1655
ssI826
(dp1656
g2
I36756
sg3
I826
sg4
S'Aruba'
p1657
ssI827
(dp1658
g2
I36757
sg3
I827
sg4
S'Bonaire'
p1659
ssI828
(dp1660
g2
I36758
sg3
I828
sg4
S'Curacao'
p1661
ssI829
(dp1662
g2
I36759
sg3
I829
sg4
S'Saba'
p1663
ssI830
(dp1664
g2
I36760
sg3
I830
sg4
S'Saint_Eustatius'
p1665
ssI831
(dp1666
g2
I36762
sg3
I831
sg4
S'Saint_Martin'
p1667
ssI832
(dp1668
g2
I18331
sg3
I832
sg4
S'pantry'
p1669
ssI833
(dp1670
g2
I16909
sg3
I833
sg4
S'#island'
p1671
ssI834
(dp1672
g2
I30621
sg3
I834
sg4
S'major_lobe'
p1673
ssI835
(dp1674
g2
I24479
sg3
I835
sg4
S'earlobe'
p1675
ssI836
(dp1676
g2
I6048
sg3
I836
sg4
S'blastocoel'
p1677
ssI837
(dp1678
g2
I38817
sg3
I837
sg4
S'Kodiak'
p1679
ssI838
(dp1680
g2
I36507
sg3
I838
sg4
S'subtropics'
p1681
ssI839
(dp1682
g2
I16294
sg3
I839
sg4
S'great_hall'
p1683
ssI840
(dp1684
g2
I36775
sg3
I840
sg4
S'#Puerto_Rico'
p1685
ssI841
(dp1686
g2
I36777
sg3
I841
sg4
S'#Jamaica'
p1687
ssI842
(dp1688
g2
I14251
sg3
I842
sg4
S'childs_room'
p1689
ssI843
(dp1690
g2
I36780
sg3
I843
sg4
S'Virgin_Islands'
p1691
ssI844
(dp1692
g2
I36781
sg3
I844
sg4
S'British_Virgin_Islands'
p1693
ssI845
(dp1694
g2
I36782
sg3
I845
sg4
S'United_States_Virgin_Islands'
p1695
ssI846
(dp1696
g2
I36783
sg3
I846
sg4
S'#Barbados'
p1697
ssI847
(dp1698
g2
I19885
sg3
I847
sg4
S'signal_box'
p1699
ssI848
(dp1700
g2
I36786
sg3
I848
sg4
S'Tobago'
p1701
ssI849
(dp1702
g2
I6067
sg3
I849
sg4
S'#layer'
p1703
ssI850
(dp1704
g2
I20405
sg3
I850
sg4
S'stillroom'
p1705
ssI851
(dp1706
g2
I18359
sg3
I851
sg4
S'Paris_University'
p1707
ssI852
(dp1708
g2
I35732
sg3
I852
sg4
S'preparatory_school'
p1709
ssI853
(dp1710
g2
I36805
sg3
I853
sg4
S'Zealand'
p1711
ssI854
(dp1712
g2
I18376
sg3
I854
sg4
S'#partition'
p1713
ssI855
(dp1714
g2
I36811
sg3
I855
sg4
S'#Dominica'
p1715
ssI856
(dp1716
g2
I18380
sg3
I856
sg4
S'party_wall'
p1717
ssI857
(dp1718
g2
I14286
sg3
I857
sg4
S'#choir'
p1719
ssI858
(dp1720
g2
I38863
sg3
I858
sg4
S'lithosphere'
p1721
ssI859
(dp1722
g2
I16337
sg3
I859
sg4
S'#guardroom'
p1723
ssI860
(dp1724
g2
I52087
sg3
I860
sg4
S'talipot'
p1725
ssI861
(dp1726
g2
I16718
sg3
I861
sg4
S'hovel'
p1727
ssI862
(dp1728
g2
I67542
sg3
I862
sg4
S'#protuberate'
p1729
ssI863
(dp1730
g2
I13305
sg3
I863
sg4
S'bearing_wall'
p1731
ssI864
(dp1732
g2
I35733
sg3
I864
sg4
S'choir_school'
p1733
ssI865
(dp1734
g2
I24468
sg3
I865
sg4
S'membranous_labyrinth'
p1735
ssI866
(dp1736
g2
I16347
sg3
I866
sg4
S'guildhall'
p1737
ssI867
(dp1738
g2
I13767
sg3
I867
sg4
S'bulkhead'
p1739
ssI868
(dp1740
g2
I38878
sg3
I868
sg4
S'lower_mantle'
p1741
ssI869
(dp1742
g2
I13989
sg3
I869
sg4
S'cardroom'
p1743
ssI870
(dp1744
g2
I20448
sg3
I870
sg4
S'storeroom'
p1745
ssI871
(dp1746
g2
I20449
sg3
I871
sg4
S'storm_cellar'
p1747
ssI872
(dp1748
g2
I36834
sg3
I872
sg4
S'Saxony'
p1749
ssI873
(dp1750
g2
I18405
sg3
I873
sg4
S'patio'
p1751
ssI874
(dp1752
g2
I27482
sg3
I874
sg4
S'#syntax'
p1753
ssI875
(dp1754
g2
I20818
sg3
I875
sg4
S'tenement'
p1755
ssI876
(dp1756
g2
I49305
sg3
I876
sg4
S'wood_aster'
p1757
ss.