(dp0
I18435
S'pediment'
p1
sI38917
S'mesosphere'
p2
sI57350
S'#bulge'
p3
sI36871
S'Galapagos_Islands'
p4
sI14344
S'city_hall'
p5
sI14345
S'city_university'
p6
sI18775
S'polyconic_projection'
p7
sI36876
S'Fiji_Islands'
p8
sI20493
S'strongroom'
p9
sI36878
S'Vanua_Levu'
p10
sI20496
S'#structure'
p11
sI13315
S'bedclothes'
p12
sI20500
S'student_union'
p13
sI16409
S'#hall'
p14
sI16410
S'Hall_of_Fame'
p15
sI36896
S'Crete'
p16
sI14369
S'clean_room'
p17
sI36898
S'#Ithaca'
p18
sI36899
S'Egadi_Islands'
p19
sI18472
S'penny_arcade'
p20
sI34858
S'foreign_office'
p21
sI34859
S'French_foreign_office'
p22
sI14389
S'#cloakroom'
p23
sI36921
S'Lemnos'
p24
sI18495
S'peristyle'
p25
sI17392
S'#lounge'
p26
sI14406
S'#closet'
p27
sI16737
S'hut'
p28
sI57417
S'verticil'
p29
sI36940
S'Wailing_Wall'
p30
sI36877
S'Viti_Levu'
p31
sI16466
S'hank'
p32
sI20567
S'sun_parlor'
p33
sI14427
S'clubhouse'
p34
sI14428
S'clubroom'
p35
sI13328
S'bedspread'
p36
sI20578
S'superstructure'
p37
sI36963
S'Capri'
p38
sI36964
S'Ischia'
p39
sI16488
S'Harvard_University'
p40
sI37223
S'Hadrians_Wall'
p41
sI8304
S'hypodermis'
p42
sI39026
S'ozone_layer'
p43
sI37566
S'Visayan_Islands'
p44
sI18550
S'phrontistery'
p45
sI16503
S'haven'
p46
sI36984
S'#Sardinia'
p47
sI36985
S'#Sicily'
p48
sI20603
S'#surgery'
p49
sI14464
S'#cockpit'
p50
sI14467
S'cocktail_lounge'
p51
sI24713
S'glans'
p52
sI24714
S'glans_clitoridis'
p53
sI24715
S'glans_penis'
p54
sI18574
S'pied-a-terre'
p55
sI37016
S'Greenland'
p56
sI37017
S'Baffin_Island'
p57
sI49306
S'whorled_aster'
p58
sI49307
S'#heath_aster'
p59
sI49308
S'heart-leaved_aster'
p60
sI37914
S'Maui'
p61
sI49310
S'bushy_aster'
p62
sI49311
S'white_prairie_aster'
p63
sI49312
S'stiff_aster'
p64
sI49313
S'goldilocks'
p65
sI49314
S'large-leaved_aster'
p66
sI49315
S'New_England_aster'
p67
sI49316
S'Michaelmas_daisy'
p68
sI37341
S'Hokkaido'
p69
sI49318
S'Shorts_aster'
p70
sI37031
S'Vancouver_Island'
p71
sI49320
S'prairie_aster'
p72
sI49321
S'annual_salt-marsh_aster'
p73
sI49322
S'aromatic_aster'
p74
sI49323
S'arrow_leaved_aster'
p75
sI49324
S'azure_aster'
p76
sI49325
S'bog_aster'
p77
sI49326
S'crooked-stemmed_aster'
p78
sI37917
S'Oahu'
p79
sI18608
S'pilothouse'
p80
sI37576
S'Azores'
p81
sI49330
S'panicled_aster'
p82
sI49331
S'perennial_salt_marsh_aster'
p83
sI49332
S'purple-stemmed_aster'
p84
sI49333
S'rough-leaved_aster'
p85
sI49334
S'rush_aster'
p86
sI49335
S'Schreibers_aster'
p87
sI49336
S'small_white_aster'
p88
sI49337
S'smooth_aster'
p89
sI49338
S'southern_aster'
p90
sI49339
S'starved_aster'
p91
sI49340
S'tradescants_aster'
p92
sI49341
S'wavy-leaved_aster'
p93
sI49342
S'Western_silvery_aster'
p94
sI49343
S'willow_aster'
p95
sI14368
S'cleaning_pad'
p96
sI20675
S'table_mat'
p97
sI16585
S'hideaway'
p98
sI16587
S'high_altar'
p99
sI37068
S'#Tasmania'
p100
sI14545
S'#compartment'
p101
sI25636
S'horny_structure'
p102
sI37084
S'Guam'
p103
sI37085
S'Wake_Island'
p104
sI13008
S'#attic'
p105
sI37092
S'Gilbert_and_Ellice_Islands'
p106
sI37093
S'#Nauru'
p107
sI14570
S'concert_hall'
p108
sI37101
S'Borneo'
p109
sI37102
S'#Bougainville'
p110
sI37103
S'New_Britain'
p111
sI24816
S'hypochondrium'
p112
sI14577
S'#condominium'
p113
sI24819
S'hepatic_lobe'
p114
sI37108
S'New_Ireland'
p115
sI14584
S'conference_room'
p116
sI14586
S'confessional'
p117
sI24827
S'alveolar_bed'
p118
sI24828
S'lobe_of_the_lung'
p119
sI14590
S'conic_projection'
p120
sI24832
S'pleural_cavity'
p121
sI38539
S'chromosphere'
p122
sI16646
S'homolosine_projection'
p123
sI24843
S'area_of_cardiac_dullness'
p124
sI24848
S'cranial_cavity'
p125
sI37592
S'Saint_Vincent'
p126
sI14612
S'control_room'
p127
sI24860
S'epigastrium'
p128
sI27354
S'tribology'
p129
sI16773
S'ice_hockey_rink'
p130
sI14625
S'cookhouse'
p131
sI27355
S'nuclear_engineering'
p132
sI37157
S'British_Isles'
p133
sI37158
S'Great_Britain'
p134
sI37159
S'#Ireland'
p135
sI37741
S'Tenerife'
p136
sI14634
S'Cooper_Union'
p137
sI24877
S'amniotic_cavity'
p138
sI13021
S'auditorium'
p139
sI20784
S'telephone_booth'
p140
sI18737
S'#ply'
p141
sI16691
S'hospital_room'
p142
sI54362
S'prop_root'
p143
sI39221
S'South_Sea_Islands'
p144
sI14646
S'corbie_gable'
p145
sI37176
S'Houses_of_Parliament'
p146
sI16699
S'#hotel-casino'
p147
sI16700
S'hotel_room'
p148
sI24896
S'lacrimal_apparatus'
p149
sI14658
S'Cornell_University'
p150
sI26947
S'#territory'
p151
sI20807
S'television_room'
p152
sI14664
S'#cornice'
p153
sI16713
S'#house_of_cards'
p154
sI16717
S'#housing'
p155
sI12622
S'#academy'
p156
sI39247
S'stratosphere'
p157
sI18770
S'polling_booth'
p158
sI27352
S'mechanical_engineering'
p159
sI20823
S'tenon'
p160
sI16728
S'#hull'
p161
sI14681
S'cote'
p162
sI49317
S'upland_white_aster'
p163
sI14690
S'couchette'
p164
sI18791
S'poolroom'
p165
sI37225
S'Man'
p166
sI18795
S'poorhouse'
p167
sI39281
S'thermosphere'
p168
sI63858
S'screen_off'
p169
sI20851
S'tester'
p170
sI18804
S'porch'
p171
sI20855
S'test_room'
p172
sI14712
S'coverlet'
p173
sI12666
S'adjoining_room'
p174
sI18813
S'#porte-cochere'
p175
sI37246
S'Mull'
p176
sI18815
S'portico'
p177
sI39301
S'tropopause'
p178
sI37254
S'Anglesey'
p179
sI12680
S'afghan'
p180
sI18825
S'post_and_lintel'
p181
sI16779
S'ice_rink'
p182
sI14732
S'crankcase'
p183
sI18834
S'post-office_box'
p184
sI39315
S'upper_mantle'
p185
sI52090
S'African_oil_palm'
p186
sI24981
S'peritoneal_cavity'
p187
sI24982
S'bursa_omentalis'
p188
sI16791
S'ignition_coil'
p189
sI18840
S'potholder'
p190
sI24987
S'pericardial_cavity'
p191
sI49319
S'sea_aster'
p192
sI12703
S'airdock'
p193
sI38817
S'Kodiak'
p194
sI59810
S'clear_and_present_danger'
p195
sI16795
S'imaret'
p196
sI16790
S'igloo'
p197
sI38641
S'exosphere'
p198
sI18856
S'powderpuff'
p199
sI20909
S'threshing_floor'
p200
sI51613
S'sarsaparilla_root'
p201
sI37300
S'Bali'
p202
sI37301
S'Timor'
p203
sI37302
S'Sumatra'
p204
sI25015
S'nucleolus_organizer'
p205
sI37304
S'Moluccas'
p206
sI37620
S'#Singapore'
p207
sI16827
S'induction_coil'
p208
sI18878
S'#prefab'
p209
sI18879
S'presbytery'
p210
sI18881
S'presence_chamber'
p211
sI18883
S'press_gallery'
p212
sI18886
S'pressure_cabin'
p213
sI20935
S'tickler_coil'
p214
sI20940
S'#tier'
p215
sI18896
S'primary_coil'
p216
sI22994
S'#computer_architecture'
p217
sI59811
S'hazardousness'
p218
sI22996
S'reduced_instruction_set_computing'
p219
sI22997
S'cytoarchitecture'
p220
sI12759
S'#altar'
p221
sI52117
S'lady_palm'
p222
sI25051
S'centromere'
p223
sI36602
S'Atlantis'
p224
sI37342
S'Honshu'
p225
sI37343
S'Kyushu'
p226
sI37344
S'Shikoku'
p227
sI36603
S'Barbuda'
p228
sI25060
S'#aster'
p229
sI25065
S'vacuole'
p230
sI14826
S'cubbyhole'
p231
sI16875
S'interlayer'
p232
sI20972
S'tine'
p233
sI18926
S'#projection'
p234
sI59816
S'speculativeness'
p235
sI18931
S'prompt_box'
p236
sI18933
S'prong'
p237
sI12794
S'amusement_arcade'
p238
sI37375
S'Ile-St-Louis'
p239
sI18944
S'#proscenium'
p240
sI36638
S'Ceylon'
p241
sI61955
S'notepad'
p242
sI61956
S'scratch_pad'
p243
sI35335
S'Ashcan_School'
p244
sI35336
S'deconstructivism'
p245
sI35337
S'historical_school'
p246
sI64010
S'restructure'
p247
sI35340
S'junior_school'
p248
sI35341
S'infant_school'
p249
sI35342
S'correspondence_school'
p250
sI35343
S'dancing_school'
p251
sI35344
S'direct-grant_school'
p252
sI35345
S'driving_school'
p253
sI35346
S'police_academy'
p254
sI35347
S'military_academy'
p255
sI35348
S'naval_academy'
p256
sI35349
S'air_force_academy'
p257
sI35350
S'Platos_Academy'
p258
sI35351
S'French_Academy'
p259
sI18968
S'public_works'
p260
sI35353
S'Royal_Academy'
p261
sI35354
S'Royal_Society'
p262
sI25116
S'fovea'
p263
sI25117
S'parafovea'
p264
sI21022
S'tollbooth'
p265
sI14879
S'cutting_room'
p266
sI35362
S'graduate_school'
p267
sI35363
S'language_school'
p268
sI35364
S'law_school'
p269
sI35365
S'medical_school'
p270
sI35366
S'nursing_school'
p271
sI35368
S'riding_school'
p272
sI35369
S'secondary_school'
p273
sI35370
S'secretarial_school'
p274
sI35372
S'technical_school'
p275
sI35373
S'polytechnic_institute'
p276
sI35374
S'trade_school'
p277
sI35376
S'training_school'
p278
sI35377
S'multiversity'
p279
sI35378
S'Open_University'
p280
sI35379
S'veterinary_school'
p281
sI52052
S'feather_palm'
p282
sI14918
S'darkroom'
p283
sI19017
S'#pyramid'
p284
sI16970
S'Johns_Hopkins'
p285
sI37303
S'Celebes'
p286
sI37455
S'#Faroe_Islands'
p287
sI19025
S'#quad'
p288
sI16981
S'journal_box'
p289
sI16984
S'jungle_gym'
p290
sI14937
S'day_nursery'
p291
sI14938
S'#day_school'
p292
sI19042
S'#quilt'
p293
sI19043
S'quilted_bedspread'
p294
sI14948
S'deathtrap'
p295
sI21094
S'traffic_island'
p296
sI14952
S'deck-house'
p297
sI12910
S'#arcade'
p298
sI37992
S'Marthas_Vineyard'
p299
sI37492
S'#Madagascar'
p300
sI12918
S'#area'
p301
sI37993
S'Nantucket'
p302
sI21114
S'transept'
p303
sI12926
S'armature'
p304
sI37505
S'#Maldives'
p305
sI37510
S'#Malta'
p306
sI14983
S'den'
p307
sI37514
S'#Mauritius'
p308
sI52123
S'cabbage_palmetto'
p309
sI36775
S'#Puerto_Rico'
p310
sI14996
S'departure_lounge'
p311
sI51863
S'licorice_root'
p312
sI19097
S'radome'
p313
sI37531
S'#New_Zealand'
p314
sI25244
S'hypophyseal_stalk'
p315
sI21156
S'trestlework'
p316
sI25254
S'cortical_area'
p317
sI25255
S'association_area'
p318
sI25259
S'auditory_area'
p319
sI25261
S'Brodmanns_area'
p320
sI25262
S'frontal_area'
p321
sI25263
S'language_area'
p322
sI25264
S'motor_area'
p323
sI25265
S'sensorimotor_area'
p324
sI25266
S'visual_area'
p325
sI12979
S'assembly_hall'
p326
sI12981
S'astatic_coils'
p327
sI37561
S'#Cebu'
p328
sI37562
S'Luzon'
p329
sI37563
S'Mindoro'
p330
sI25276
S'gyrus'
p331
sI25277
S'central_gyrus'
p332
sI25278
S'precentral_gyrus'
p333
sI19573
S'#school'
p334
sI25280
S'postcentral_gyrus'
p335
sI25281
S'lobule'
p336
sI25282
S'frontal_lobe'
p337
sI25283
S'prefrontal_lobe'
p338
sI25284
S'parietal_lobe'
p339
sI25285
S'occipital_lobe'
p340
sI25286
S'temporal_lobe'
p341
sI19144
S'#rathole'
p342
sI37577
S'Madeira_Islands'
p343
sI27338
S'#biotechnology'
p344
sI27339
S'genetic_engineering'
p345
sI27340
S'civil_engineering'
p346
sI27341
S'hydraulic_engineering'
p347
sI52057
S'grugru'
p348
sI27344
S'computer_science'
p349
sI37585
S'Saint_Christopher'
p350
sI37587
S'Nevis'
p351
sI37588
S'Sombrero'
p352
sI37589
S'#Saint_Lucia'
p353
sI27350
S'architectural_engineering'
p354
sI27351
S'industrial_engineering'
p355
sI13254
S'bathroom'
p356
sI27353
S'nanotechnology'
p357
sI37594
S'French_Polynesia'
p358
sI19163
S'read/write_head'
p359
sI27356
S'naval_engineering'
p360
sI27357
S'rocketry'
p361
sI37602
S'#Samoa'
p362
sI37609
S'Principe'
p363
sI17133
S'lamphouse'
p364
sI17136
S'lanai'
p365
sI37617
S'#Seychelles'
p366
sI19186
S'recovery_room'
p367
sI22995
S'complex_instruction_set_computing'
p368
sI15092
S'dining_area'
p369
sI19189
S'recreation_room'
p370
sI19193
S'redbrick_university'
p371
sI13050
S'aviary'
p372
sI13052
S'awning'
p373
sI18901
S'Princeton_University'
p374
sI52059
S'areca'
p375
sI35970
S'Antarctic'
p376
sI19219
S'refuge'
p377
sI15124
S'disco'
p378
sI13084
S'back_porch'
p379
sI13085
S'back_room'
p380
sI37667
S'Novaya_Zemlya'
p381
sI17542
S'map_projection'
p382
sI35352
S'National_Academy_of_Sciences'
p383
sI25387
S'uterine_cavity'
p384
sI17196
S'lawcourt'
p385
sI21295
S'underfelt'
p386
sI17201
S'layby'
p387
sI15155
S'distributor_housing'
p388
sI21305
S'#university'
p389
sI19258
S'rest_house'
p390
sI19261
S'retaining_wall'
p391
sI17214
S'lean-to'
p392
sI13121
S'baldachin'
p393
sI56971
S'sea_room'
p394
sI53425
S'mandrake_root'
p395
sI25428
S'spermatic_cord'
p396
sI15502
S'#engineering'
p397
sI15190
S'dolmen'
p398
sI50007
S'Hottentot_bread'
p399
sI25432
S'nasal_cavity'
p400
sI25433
S'nasopharynx'
p401
sI25434
S'oropharynx'
p402
sI25435
S'laryngopharynx'
p403
sI37724
S'Majorca'
p404
sI21306
S'University_of_Chicago'
p405
sI52064
S'piassava_palm'
p406
sI21345
S'vaulting'
p407
sI52067
S'palmyra'
p408
sI52070
S'lawyer_cane'
p409
sI31889
S'Fall_of_Man'
p410
sI52072
S'fishtail_palm'
p411
sI52075
S'wax_palm'
p412
sI35986
S'bedground'
p413
sI52079
S'carnauba'
p414
sI52081
S'caranday'
p415
sI19314
S'rink'
p416
sI52083
S'corozo'
p417
sI21364
S'veranda'
p418
sI25406
S'vestibule_of_the_vagina'
p419
sI52086
S'latanier'
p420
sI14825
S'cubby'
p421
sI35705
S'alma_mater'
p422
sI13178
S'barbette'
p423
sI25467
S'cecum'
p424
sI52093
S'#cabbage_palm'
p425
sI19328
S'roadhouse'
p426
sI52098
S'nipa_palm'
p427
sI37595
S'Tahiti'
p428
sI52100
S'babassu'
p429
sI25477
S'perineum'
p430
sI37766
S'Zanzibar'
p431
sI52103
S'cohune_palm'
p432
sI21384
S'#vestry'
p433
sI52107
S'date_palm'
p434
sI52109
S'ivory_palm'
p435
sI17296
S'Lincoln_Memorial'
p436
sI25489
S'frontal_eminence'
p437
sI35730
S'senior_high_school'
p438
sI35731
S'junior_high_school'
p439
sI25492
S'occipital_protuberance'
p440
sI31637
S'#devastation'
p441
sI35734
S'#public_school'
p442
sI52119
S'reed_rhapis'
p443
sI35736
S'Winchester_College'
p444
sI52121
S'royal_palm'
p445
sI35739
S'dance_school'
p446
sI35741
S'night_school'
p447
sI13214
S'bascule'
p448
sI52127
S'thatch_palm'
p449
sI52128
S'key_palm'
p450
sI35745
S'Sunday_school'
p451
sI19363
S'Roman_building'
p452
sI35748
S'grade_school'
p453
sI35749
S'grammar_school'
p454
sI35750
S'secondary_modern_school'
p455
sI15271
S'dressing_room'
p456
sI19370
S'#room'
p457
sI19371
S'roomette'
p458
sI20506
S'#study'
p459
sI25518
S'tubular_cavity'
p460
sI49309
S'white_wood_aster'
p461
sI25520
S'armpit'
p462
sI64435
S'memorize'
p463
sI14489
S'#coil'
p464
sI21433
S'voting_booth'
p465
sI15291
S'#dripstone'
p466
sI25532
S'chest_cavity'
p467
sI24394
S'antrum'
p468
sI37822
S'Admiralty_Island'
p469
sI25538
S'#areola'
p470
sI17347
S'locker_room'
p471
sI25541
S'#middle'
p472
sI19398
S'#rotunda'
p473
sI25543
S'wasp_waist'
p474
sI21451
S'#walk-up'
p475
sI21453
S'#wall'
p476
sI25550
S'abdominal_cavity'
p477
sI25551
S'pubes'
p478
sI17361
S'log_cabin'
p479
sI17363
S'loggia'
p480
sI11769
S'syrinx'
p481
sI35358
S'finishing_school'
p482
sI48293
S'thistledown'
p483
sI25568
S'thenar'
p484
sI8358
S'apodeme'
p485
sI37862
S'Santa_Catalina'
p486
sI24060
S'optic_chiasma'
p487
sI19434
S'rumpus_room'
p488
sI21483
S'Washington_Monument'
p489
sI25743
S'receptor'
p490
sI36349
S'no-mans-land'
p491
sI15344
S'dugout'
p492
sI35359
S'flying_school'
p493
sI13305
S'bearing_wall'
p494
sI52053
S'fan_palm'
p495
sI51371
S'orrisroot'
p496
sI15364
S'durbar'
p497
sI17413
S'#lug'
p498
sI19463
S'safehold'
p499
sI17417
S'luggage_compartment'
p500
sI13324
S'bedroll'
p501
sI13325
S'bedroom'
p502
sI17424
S'lumber_room'
p503
sI52056
S'coyol'
p504
sI37909
S'Waikiki'
p505
sI37911
S'Kahoolawe'
p506
sI37912
S'Kauai'
p507
sI37913
S'Lanai'
p508
sI17434
S'lyceum'
p509
sI37915
S'Molokai'
p510
sI37916
S'Nihau'
p511
sI13341
S'belfry'
p512
sI49328
S'flat-topped_white_aster'
p513
sI13347
S'bell_cote'
p514
sI21540
S'#ways'
p515
sI25637
S'#half-moon'
p516
sI13350
S'bell_gable'
p517
sI49329
S'late_purple_aster'
p518
sI52060
S'betel_palm'
p519
sI6049
S'blastoderm'
p520
sI37725
S'Canary_Islands'
p521
sI13363
S'belvedere'
p522
sI15421
S'electric_blanket'
p523
sI19518
S'sanitary_napkin'
p524
sI21574
S'#wellhead'
p525
sI12813
S'anechoic_chamber'
p526
sI25683
S'costa'
p527
sI54356
S'taproot'
p528
sI54357
S'adventitious_root'
p529
sI54360
S'rootlet'
p530
sI19546
S'sawdust_saloon'
p531
sI19541
S'sauna'
p532
sI27152
S'orthopedics'
p533
sI25699
S'#pelvis'
p534
sI25700
S'pelvic_cavity'
p535
sI25704
S'#groin'
p536
sI25705
S'#quick'
p537
sI13418
S'billet'
p538
sI13421
S'billiard_room'
p539
sI38077
S'Ellis_Island'
p540
sI21616
S'whorehouse'
p541
sI13428
S'binnacle'
p542
sI61630
S'message_pad'
p543
sI25567
S'#palm'
p544
sI15480
S'emergency_room'
p545
sI17837
S'morgue'
p546
sI19578
S'school_system'
p547
sI17531
S'manor_hall'
p548
sI25725
S'abdominal_wall'
p549
sI25727
S'rotator_cuff'
p550
sI13442
S'birdhouse'
p551
sI25734
S'celom'
p552
sI25735
S'cornu'
p553
sI19592
S'scouring_pad'
p554
sI35979
S'Arctic'
p555
sI25742
S'zona_pellucida'
p556
sI36717
S'Panama_Canal_Zone'
p557
sI25744
S'alpha_receptor'
p558
sI25745
S'beta_receptor'
p559
sI31890
S'road_to_Damascus'
p560
sI17556
S'marquee'
p561
sI15511
S'entablature'
p562
sI25753
S'#zone'
p563
sI25754
S'zonule'
p564
sI13467
S'#blanket'
p565
sI21662
S'wind_tunnel'
p566
sI48288
S'corolla'
p567
sI48289
S'calyx'
p568
sI19618
S'scullery'
p569
sI48292
S'pappus'
p570
sI17573
S'Massachusetts_Institute_of_Technology'
p571
sI15527
S'equal-area_projection'
p572
sI35356
S'business_school'
p573
sI17579
S'master_bedroom'
p574
sI15532
S'#erection'
p575
sI35357
S'dental_school'
p576
sI13338
S'beer_hall'
p577
sI59815
S'riskiness'
p578
sI25118
S'macula'
p579
sI31927
S'intravenous_drip'
p580
sI54456
S'lily_pad'
p581
sI23737
S'acreage'
p582
sI19642
S'secondary_coil'
p583
sI19643
S'second_balcony'
p584
sI17596
S'mattress_cover'
p585
sI17597
S'mattress_pad'
p586
sI52085
S'gebang_palm'
p587
sI19649
S'#security_blanket'
p588
sI13506
S'boardroom'
p589
sI39302
S'troposphere'
p590
sI36043
S'broadcast_area'
p591
sI38097
S'Long_Island'
p592
sI38435
S'barrier_island'
p593
sI21716
S'workroom'
p594
sI52089
S'oil_palm'
p595
sI15580
S'exhibition_hall'
p596
sI38109
S'Hatteras_Island'
p597
sI17957
S'National_Baseball_Hall_of_Fame'
p598
sI19680
S'sentry_box'
p599
sI52091
S'American_oil_palm'
p600
sI17637
S'#memorial'
p601
sI17644
S'menhir'
p602
sI13553
S'bomb_shelter'
p603
sI49327
S'Eastern_silvery_aster'
p604
sI19701
S'#set_back'
p605
sI37247
S'Staffa'
p606
sI17658
S'Mercator_projection'
p607
sI24054
S'carina_fornicis'
p608
sI19718
S'sewing_room'
p609
sI20353
S'steam_bath'
p610
sI13576
S'#booth'
p611
sI15629
S'fallout_shelter'
p612
sI15633
S'family_room'
p613
sI36115
S'disaster_area'
p614
sI15642
S'fantail'
p615
sI15644
S'fan_vaulting'
p616
sI38175
S'Galveston_Island'
p617
sI13601
S'boudoir'
p618
sI62765
S'first_quarter'
p619
sI62766
S'last_quarter'
p620
sI36145
S'dude_ranch'
p621
sI20571
S'suntrap'
p622
sI15669
S'feedlot'
p623
sI17632
S'megalith'
p624
sI19780
S'shipping_room'
p625
sI37416
S'Martinique'
p626
sI15389
S'eaves'
p627
sI36749
S'Guadalupe_Island'
p628
sI15698
S'field_coil'
p629
sI36750
S'Caribbean_Island'
p630
sI36192
S'Frigid_Zone'
p631
sI52112
S'raffia_palm'
p632
sI27337
S'bionics'
p633
sI17763
S'#ministry'
p634
sI36196
S'gathering_place'
p635
sI52114
S'jupati'
p636
sI52115
S'bamboo_palm'
p637
sI36215
S'#haunt'
p638
sI36756
S'Aruba'
p639
sI36218
S'#hunting_ground'
p640
sI36780
S'Virgin_Islands'
p641
sI36757
S'Bonaire'
p642
sI19842
S'shower_room'
p643
sI19843
S'shower_stall'
p644
sI19844
S'showroom'
p645
sI52118
S'miniature_fan_palm'
p646
sI13705
S'#brim'
p647
sI35735
S'Eton_College'
p648
sI50578
S'briarroot'
p649
sI19860
S'sickbay'
p650
sI19863
S'sickroom'
p651
sI15768
S'firetrap'
p652
sI37104
S'New_Caledonia'
p653
sI19875
S'#sidewall'
p654
sI21062
S'torture_chamber'
p655
sI37105
S'New_Guinea'
p656
sI19885
S'signal_box'
p657
sI36271
S'#salient'
p658
sI17852
S'motel_room'
p659
sI36085
S'climatic_zone'
p660
sI6048
S'blastocoel'
p661
sI15815
S'flange'
p662
sI17865
S'#mound'
p663
sI13211
S'barroom'
p664
sI25542
S'waist'
p665
sI19922
S'sinusoidal_projection'
p666
sI12879
S'apadana'
p667
sI21754
S'Yale_university'
p668
sI19934
S'skein'
p669
sI16294
S'great_hall'
p670
sI37457
S'#Iceland'
p671
sI14588
S'conformal_projection'
p672
sI35751
S'comprehensive_school'
p673
sI13804
S'burial_mound'
p674
sI56814
S'square_root'
p675
sI56815
S'cube_root'
p676
sI24049
S'erogenous_zone'
p677
sI36435
S'#danger'
p678
sI13812
S'#burr'
p679
sI24053
S'carina'
p680
sI11766
S'gill_slit'
p681
sI11767
S'gill_arch'
p682
sI11768
S'#peristome'
p683
sI24057
S'cauda'
p684
sI24058
S'chiasma'
p685
sI24059
S'cingulum'
p686
sI36348
S'no-go_area'
p687
sI24061
S'concha'
p688
sI24063
S'germ'
p689
sI24064
S'infundibulum'
p690
sI14592
S'connecting_room'
p691
sI19973
S'skyscraper'
p692
sI26121
S'configuration'
p693
sI36782
S'United_States_Virgin_Islands'
p694
sI38424
S'asthenosphere'
p695
sI48665
S'#calamus'
p696
sI52125
S'saw_palmetto'
p697
sI16909
S'#island'
p698
sI13854
S'#cabin'
p699
sI24096
S'limbus'
p700
sI24097
S'radicle'
p701
sI28195
S'#erasure'
p702
sI13861
S'cable_car'
p703
sI17958
S'national_monument'
p704
sI36785
S'Trinidad'
p705
sI13146
S'ballroom'
p706
sI9773
S'calyculus'
p707
sI9774
S'optic_cup'
p708
sI14510
S'colonnade'
p709
sI17969
S'nave'
p710
sI36412
S'staging_area'
p711
sI20405
S'stillroom'
p712
sI36427
S'resort'
p713
sI13900
S'Cambridge_University'
p714
sI20045
S'smoking_room'
p715
sI15288
S'#drip'
p716
sI13761
S'#building'
p717
sI52087
S'talipot'
p718
sI52054
S'palmetto'
p719
sI36675
S'Great_Wall_of_China'
p720
sI20063
S'snowbank'
p721
sI17339
S'#lobe'
p722
sI16718
S'hovel'
p723
sI11375
S'#pad'
p724
sI24172
S'ethmoid_sinus'
p725
sI24173
S'frontal_sinus'
p726
sI24174
S'maxillary_sinus'
p727
sI24175
S'paranasal_sinus'
p728
sI20081
S'soap_pad'
p729
sI24178
S'#lumen'
p730
sI13944
S'#canopy'
p731
sI54908
S'trust_territory'
p732
sI24171
S'sinus'
p733
sI36487
S'tank_farm'
p734
sI56968
S'breathing_room'
p735
sI56969
S'houseroom'
p736
sI36490
S'North_Temperate_Zone'
p737
sI20107
S'solenoid'
p738
sI16018
S'front_porch'
p739
sI13973
S'caravansary'
p740
sI36463
S'ski_resort'
p741
sI24220
S'fundus'
p742
sI24221
S'funiculus'
p743
sI16032
S'funeral_home'
p744
sI18081
S'nursery'
p745
sI13989
S'cardroom'
p746
sI24177
S'locule'
p747
sI16042
S'furnace_room'
p748
sI18034
S'Nissen_hut'
p749
sI36527
S'watering_place'
p750
sI18376
S'#partition'
p751
sI14003
S'Carnegie-Mellon_University'
p752
sI18102
S'observatory'
p753
sI16059
S'gable'
p754
sI14014
S'carpet_pad'
p755
sI18112
S'office_building'
p756
sI36545
S'winners_circle'
p757
sI20164
S'spark_coil'
p758
sI16074
S'gambling_house'
p759
sI20172
S'speakeasy'
p760
sI36559
S'#combat_zone'
p761
sI36560
S'beachhead'
p762
sI36561
S'danger_zone'
p763
sI36562
S'drop_zone'
p764
sI36565
S'tidal_zone'
p765
sI36566
S'time_zone'
p766
sI38863
S'lithosphere'
p767
sI18154
S'operating_room'
p768
sI18159
S'opium_den'
p769
sI24305
S'pulp_cavity'
p770
sI31429
S'merestone'
p771
sI36596
S'Aran_Islands'
p772
sI36598
S'Cayman_Islands'
p773
sI36601
S'Antigua'
p774
sI18170
S'orchestra_pit'
p775
sI24315
S'eye_socket'
p776
sI36604
S'Redonda'
p777
sI36607
S'Bermuda'
p778
sI36609
S'Bermuda_Triangle'
p779
sI36610
S'Montserrat'
p780
sI38662
S'footwall'
p781
sI14087
S'catchment'
p782
sI24065
S'#landmark'
p783
sI12881
S'apartment_building'
p784
sI36634
S'Sao_Tiago_Island'
p785
sI36635
S'Falkland_Islands'
p786
sI14110
S'cavity_wall'
p787
sI16159
S'gazebo'
p788
sI36644
S'Chiloe'
p789
sI17129
S'laminar_flow_clean_room'
p790
sI20272
S'#squadroom'
p791
sI18229
S'#overhang'
p792
sI36489
S'Temperate_Zone'
p793
sI14137
S'cenotaph'
p794
sI16187
S'gildhall'
p795
sI56970
S'living_space'
p796
sI19765
S'#shelter'
p797
sI36491
S'South_Temperate_Zone'
p798
sI36676
S'#Taiwan'
p799
sI16694
S'#hostel'
p800
sI24390
S'buccal_cavity'
p801
sI36680
S'Macao'
p802
sI24393
S'#cavity'
p803
sI18250
S'Oxbridge'
p804
sI24395
S'vestibule'
p805
sI24396
S'vestibule_of_the_ear'
p806
sI38733
S'hanging_wall'
p807
sI18254
S'Oxford_University'
p808
sI16210
S'glove_compartment'
p809
sI16218
S'goalmouth'
p810
sI35733
S'choir_school'
p811
sI24412
S'#root'
p812
sI13204
S'barrelhouse'
p813
sI38755
S'hydrosphere'
p814
sI20324
S'standing_room'
p815
sI19430
S'#ruin'
p816
sI20327
S'Stanford_University'
p817
sI36498
S'Torrid_Zone'
p818
sI65391
S'circumvallate'
p819
sI14193
S'chancel'
p820
sI14197
S'chandlery'
p821
sI20342
S'stateroom'
p822
sI12608
S'abattoir'
p823
sI24454
S'uvea'
p824
sI26946
S'gray_area'
p825
sI14222
S'checkroom'
p826
sI13226
S'#basilica'
p827
sI36755
S'Netherlands_Antilles'
p828
sI24468
S'membranous_labyrinth'
p829
sI24469
S'bony_labyrinth'
p830
sI36758
S'Curacao'
p831
sI36759
S'Saba'
p832
sI36760
S'Saint_Eustatius'
p833
sI36762
S'Saint_Martin'
p834
sI18331
S'pantry'
p835
sI36764
S'#Cuba'
p836
sI30621
S'major_lobe'
p837
sI24479
S'earlobe'
p838
sI36768
S'Guadeloupe'
p839
sI36769
S'Hispaniola'
p840
sI36507
S'subtropics'
p841
sI24486
S'mediastinum'
p842
sI24487
S'middle_ear'
p843
sI36777
S'#Jamaica'
p844
sI14251
S'childs_room'
p845
sI16300
S'greenroom'
p846
sI36781
S'British_Virgin_Islands'
p847
sI14254
S'chimney_breast'
p848
sI36783
S'#Barbados'
p849
sI6065
S'archenteron'
p850
sI36786
S'Tobago'
p851
sI6067
S'#layer'
p852
sI36789
S'#Cyprus'
p853
sI18359
S'Paris_University'
p854
sI35732
S'preparatory_school'
p855
sI36805
S'Zealand'
p856
sI20424
S'stockroom'
p857
sI36811
S'#Dominica'
p858
sI18380
S'party_wall'
p859
sI14286
S'#choir'
p860
sI36815
S'Bioko'
p861
sI16337
S'#guardroom'
p862
sI36818
S'Spitsbergen'
p863
sI15547
S'#establishment'
p864
sI67542
S'#protuberate'
p865
sI16343
S'guestroom'
p866
sI57351
S'caput'
p867
sI16347
S'guildhall'
p868
sI13767
S'bulkhead'
p869
sI38878
S'lower_mantle'
p870
sI20448
S'storeroom'
p871
sI20449
S'storm_cellar'
p872
sI36834
S'Saxony'
p873
sI18405
S'patio'
p874
sI27482
S'#syntax'
p875
sI20818
S'tenement'
p876
sI49305
S'wood_aster'
p877
s.