(dp0
I1
(dp1
I1
I0
sI2
I0
sI3
F0.09090909090909091
sI4
I0
sI5
I0
sI6
I0
sI7
I0
sI8
I0
sI9
F0.08333333333333333
sI10
I0
sI11
I0
sI12
I0
sI13
I0
sI14
F0.07692307692307693
sI15
I0
sI16
I0
sI17
I0
sI18
F0.09090909090909091
sI19
F0.16666666666666666
sI20
F0.07692307692307693
sI21
I0
sI22
I0
sI23
I0
sI24
I0
sI25
I0
sI26
I0
sI27
I0
sI28
I0
sI29
F0.09090909090909091
sI30
I0
sI31
I0
sI32
I0
sI33
I0
sI34
I0
sI35
I0
sI36
I0
sI37
I0
sI38
I0
sI39
I0
sI40
I0
sI41
I0
sI42
I0
sI43
I0
sI44
I0
sI45
I0
sI46
I0
sI47
F0.09090909090909091
sI48
I0
sI49
I0
sI50
I0
sI51
I0
sI52
F0.08333333333333333
sI53
I0
sI54
I0
sI55
I0
sI56
I0
sI57
I0
sI58
I0
sI59
I0
sI60
I0
sI61
I0
sI62
I0
sI63
I0
sI64
I0
sI65
I0
sI66
I0
sI67
I0
sI68
I0
sI69
I0
sI70
I0
sI71
I0
sI72
I0
sI73
I0
sI74
I0
sI75
I0
sI76
I0
sI77
I0
sI78
I0
sI79
I0
sI80
I0
sI81
I0
sI82
I0
sI83
I0
sI84
I0
sI85
I0
sI86
I0
sI87
I0
sI88
I0
sI89
I0
sI90
I0
sI91
I0
sI92
I0
sI93
I0
sI94
I0
sI95
I0
sI96
I0
sI97
I0
sI98
I0
sI99
I0
sI100
I0
sI101
I0
sI102
I0
sI103
F0.1
sI104
I0
sI105
I0
sI106
I0
sI107
I0
sI108
I0
sI109
I0
sI110
I0
sI111
I0
sI112
I0
ssI2
(dp2
I1
I0
sI2
I0
sI3
I0
sI4
I0
sI5
I0
sI6
I0
sI7
I0
sI8
I0
sI9
I0
sI10
I0
sI11
I0
sI12
I0
sI13
I0
sI14
I0
sI15
I0
sI16
I0
sI17
I0
sI18
I0
sI19
I0
sI20
I0
sI21
I0
sI22
I0
sI23
I0
sI24
I0
sI25
I0
sI26
I0
sI27
I0
sI28
I0
sI29
I0
sI30
I0
sI31
I0
sI32
I0
sI33
I0
sI34
I0
sI35
I0
sI36
I0
sI37
I0
sI38
I0
sI39
I0
sI40
I0
sI41
I0
sI42
I0
sI43
I0
sI44
I0
sI45
I0
sI46
I0
sI47
I0
sI48
I0
sI49
I0
sI50
I0
sI51
I0
sI52
I0
sI53
I0
sI54
I0
sI55
I0
sI56
I0
sI57
I0
sI58
I0
sI59
I0
sI60
I0
sI61
I0
sI62
I0
sI63
I0
sI64
I0
sI65
I0
sI66
I0
sI67
I0
sI68
I0
sI69
I0
sI70
I0
sI71
I0
sI72
I0
sI73
I0
sI74
I0
sI75
I0
sI76
I0
sI77
I0
sI78
I0
sI79
I0
sI80
I0
sI81
I0
sI82
I0
sI83
I0
sI84
I0
sI85
I0
sI86
I0
sI87
I0
sI88
I0
sI89
I0
sI90
I0
sI91
I0
sI92
I0
sI93
I0
sI94
I0
sI95
I0
sI96
I0
sI97
I0
sI98
I0
sI99
I0
sI100
I0
sI101
I0
sI102
I0
sI103
I0
sI104
I0
sI105
I0
sI106
I0
sI107
I0
sI108
I0
sI109
I0
sI110
I0
sI111
I0
sI112
I0
ssI3
(dp3
I1
F0.09090909090909091
sI2
I0
sI3
I0
sI4
F0.1111111111111111
sI5
I0
sI6
I0
sI7
I0
sI8
I0
sI9
F0.125
sI10
I0
sI11
I0
sI12
F0.09090909090909091
sI13
I0
sI14
F0.1111111111111111
sI15
I0
sI16
I0
sI17
I0
sI18
F0.1111111111111111
sI19
I0
sI20
I0
sI21
I0
sI22
F0.1
sI23
F0.125
sI24
F0.14285714285714285
sI25
F0.07692307692307693
sI26
F0.14285714285714285
sI27
F0.1
sI28
F0.16666666666666666
sI29
I0
sI30
I0
sI31
I0
sI32
F0.09090909090909091
sI33
I0
sI34
I0
sI35
F0.09090909090909091
sI36
I0
sI37
F0.06666666666666667
sI38
I0
sI39
I0
sI40
I0
sI41
I0
sI42
I0
sI43
F0.125
sI44
I0
sI45
I0
sI46
I0
sI47
I0
sI48
I0
sI49
I0
sI50
I0
sI51
F0.09090909090909091
sI52
F0.125
sI53
I0
sI54
I0
sI55
I0
sI56
I0
sI57
I0
sI58
I0
sI59
I0
sI60
I0
sI61
I0
sI62
I0
sI63
I0
sI64
I0
sI65
I0
sI66
I0
sI67
F0.08333333333333333
sI68
I0
sI69
I0
sI70
I0
sI71
I0
sI72
I0
sI73
I0
sI74
F0.14285714285714285
sI75
I0
sI76
I0
sI77
I0
sI78
I0
sI79
I0
sI80
I0
sI81
I0
sI82
I0
sI83
I0
sI84
F0.07692307692307693
sI85
I0
sI86
I0
sI87
I0
sI88
I0
sI89
I0
sI90
I0
sI91
I0
sI92
I0
sI93
I0
sI94
I0
sI95
I0
sI96
I0
sI97
I0
sI98
F0.1111111111111111
sI99
I0
sI100
I0
sI101
I0
sI102
I0
sI103
F0.125
sI104
I0
sI105
F0.08333333333333333
sI106
I0
sI107
I0
sI108
I0
sI109
I0
sI110
I0
sI111
I0
sI112
F0.1111111111111111
ssI4
(dp4
I1
I0
sI2
I0
sI3
F0.1111111111111111
sI4
I0
sI5
I0
sI6
I0
sI7
I0
sI8
I0
sI9
F0.1
sI10
I0
sI11
F0.125
sI12
I0
sI13
I0
sI14
I0
sI15
I0
sI16
I0
sI17
I0
sI18
I0
sI19
F0.25
sI20
I0
sI21
I0
sI22
I0
sI23
I0
sI24
I0
sI25
I0
sI26
I0
sI27
I0
sI28
I0
sI29
I0
sI30
I0
sI31
I0
sI32
I0
sI33
I0
sI34
I0
sI35
I0
sI36
I0
sI37
I0
sI38
I0
sI39
I0
sI40
I0
sI41
I0
sI42
I0
sI43
I0
sI44
I0
sI45
I0
sI46
I0
sI47
I0
sI48
I0
sI49
I0
sI50
I0
sI51
I0
sI52
F0.1
sI53
I0
sI54
I0
sI55
I0
sI56
I0
sI57
I0
sI58
I0
sI59
I0
sI60
I0
sI61
I0
sI62
I0
sI63
I0
sI64
I0
sI65
I0
sI66
I0
sI67
I0
sI68
I0
sI69
I0
sI70
I0
sI71
I0
sI72
I0
sI73
I0
sI74
I0
sI75
I0
sI76
I0
sI77
I0
sI78
I0
sI79
I0
sI80
I0
sI81
I0
sI82
I0
sI83
I0
sI84
I0
sI85
I0
sI86
F0.1
sI87
I0
sI88
I0
sI89
I0
sI90
I0
sI91
I0
sI92
I0
sI93
I0
sI94
I0
sI95
I0
sI96
I0
sI97
I0
sI98
I0
sI99
I0
sI100
I0
sI101
I0
sI102
I0
sI103
I0
sI104
I0
sI105
I0
sI106
I0
sI107
I0
sI108
I0
sI109
I0
sI110
I0
sI111
I0
sI112
I0
ssI5
(dp5
I1
I0
sI2
I0
sI3
I0
sI4
I0
sI5
I0
sI6
I-1
sI7
F0.07142857142857142
sI8
I0
sI9
I0
sI10
I0
sI11
I0
sI12
I0
sI13
I0
sI14
I0
sI15
I0
sI16
I0
sI17
I0
sI18
F0.07692307692307693
sI19
I0
sI20
I0
sI21
I0
sI22
I0
sI23
I0
sI24
I0
sI25
I0
sI26
I0
sI27
I0
sI28
F0.08333333333333333
sI29
I0
sI30
I0
sI31
I0
sI32
I0
sI33
F0.0625
sI34
I0
sI35
I0
sI36
I0
sI37
I0
sI38
I0
sI39
I0
sI40
F0.07142857142857142
sI41
I0
sI42
I0
sI43
I0
sI44
I0
sI45
I0
sI46
I0
sI47
I0
sI48
I0
sI49
I0
sI50
I0
sI51
I0
sI52
I0
sI53
I0
sI54
I0
sI55
I0
sI56
I0
sI57
I0
sI58
I0
sI59
I0
sI60
I0
sI61
I0
sI62
I0
sI63
I0
sI64
I0
sI65
I0
sI66
I0
sI67
I0
sI68
I0
sI69
I0
sI70
I0
sI71
I0
sI72
I0
sI73
I0
sI74
I0
sI75
I0
sI76
I0
sI77
I0
sI78
I0
sI79
I0
sI80
I0
sI81
I0
sI82
I0
sI83
I0
sI84
I0
sI85
I0
sI86
I0
sI87
I0
sI88
I0
sI89
I0
sI90
I0
sI91
I0
sI92
I0
sI93
I0
sI94
I0
sI95
I0
sI96
I0
sI97
I0
sI98
I0
sI99
I0
sI100
I0
sI101
I0
sI102
I0
sI103
I0
sI104
I0
sI105
I0
sI106
I0
sI107
I0
sI108
I0
sI109
I0
sI110
I0
sI111
I0
sI112
I0
ssI6
(dp6
I1
I0
sI2
I0
sI3
I0
sI4
I0
sI5
I-1
sI6
I0
sI7
I0
sI8
I0
sI9
I0
sI10
I0
sI11
I0
sI12
I0
sI13
I0
sI14
I0
sI15
I0
sI16
I0
sI17
I0
sI18
I0
sI19
I0
sI20
I0
sI21
I0
sI22
I0
sI23
I0
sI24
I0
sI25
I0
sI26
I0
sI27
I0
sI28
I0
sI29
I0
sI30
I0
sI31
I0
sI32
I0
sI33
I0
sI34
I0
sI35
I0
sI36
I0
sI37
I0
sI38
I0
sI39
I0
sI40
I0
sI41
I0
sI42
I0
sI43
I0
sI44
I0
sI45
I0
sI46
I0
sI47
I0
sI48
I0
sI49
I0
sI50
I0
sI51
I0
sI52
I0
sI53
I0
sI54
I0
sI55
I0
sI56
I0
sI57
I0
sI58
I0
sI59
I0
sI60
I0
sI61
I0
sI62
I0
sI63
I0
sI64
I0
sI65
I0
sI66
I0
sI67
I0
sI68
I0
sI69
I0
sI70
I0
sI71
I0
sI72
I0
sI73
I0
sI74
I0
sI75
I0
sI76
I0
sI77
I0
sI78
I0
sI79
I0
sI80
I0
sI81
I0
sI82
I0
sI83
I0
sI84
I0
sI85
I0
sI86
I0
sI87
I0
sI88
I0
sI89
I0
sI90
I-1
sI91
I0
sI92
I0
sI93
I0
sI94
I0
sI95
I0
sI96
I0
sI97
I0
sI98
I0
sI99
I0
sI100
I0
sI101
I0
sI102
I0
sI103
I0
sI104
I0
sI105
I0
sI106
I0
sI107
I0
sI108
I0
sI109
I0
sI110
I0
sI111
I0
sI112
I0
ssI7
(dp7
I1
I0
sI2
I0
sI3
I0
sI4
I0
sI5
F0.07142857142857142
sI6
I0
sI7
I0
sI8
F0.06666666666666667
sI9
I0
sI10
I0
sI11
I0
sI12
I0
sI13
I0
sI14
I0
sI15
I0
sI16
I0
sI17
I0
sI18
I0
sI19
I0
sI20
I0
sI21
I0
sI22
I0
sI23
I0
sI24
I0
sI25
I0
sI26
I0
sI27
I0
sI28
I0
sI29
I0
sI30
I0
sI31
I0
sI32
I0
sI33
F0.058823529411764705
sI34
I0
sI35
I0
sI36
I0
sI37
I0
sI38
I0
sI39
I0
sI40
I0
sI41
I0
sI42
I0
sI43
I0
sI44
I0
sI45
I0
sI46
I0
sI47
I0
sI48
I0
sI49
I0
sI50
I0
sI51
I0
sI52
F0.06666666666666667
sI53
F0.06666666666666667
sI54
I0
sI55
I0
sI56
F0.07692307692307693
sI57
I0
sI58
I0
sI59
I0
sI60
I0
sI61
I0
sI62
I0
sI63
I0
sI64
I0
sI65
I0
sI66
I0
sI67
I0
sI68
I0
sI69
I0
sI70
I0
sI71
I0
sI72
I0
sI73
I0
sI74
I0
sI75
I0
sI76
I0
sI77
I0
sI78
I0
sI79
I0
sI80
I0
sI81
I0
sI82
I0
sI83
I0
sI84
I0
sI85
I0
sI86
I0
sI87
I0
sI88
I0
sI89
I0
sI90
I0
sI91
I0
sI92
I0
sI93
I0
sI94
I0
sI95
I0
sI96
I0
sI97
I0
sI98
I0
sI99
I0
sI100
I0
sI101
I0
sI102
I0
sI103
I0
sI104
I0
sI105
I0
sI106
I0
sI107
I0
sI108
I0
sI109
I0
sI110
I0
sI111
I0
sI112
I0
ssI8
(dp8
I1
I0
sI2
I0
sI3
I0
sI4
I0
sI5
I0
sI6
I0
sI7
F0.06666666666666667
sI8
I0
sI9
I0
sI10
I0
sI11
I0
sI12
I0
sI13
I0
sI14
I0
sI15
I0
sI16
F0.07692307692307693
sI17
I0
sI18
F0.07142857142857142
sI19
I0
sI20
I0
sI21
I0
sI22
F0.1
sI23
I0
sI24
I0
sI25
I0
sI26
I0
sI27
I0
sI28
I0
sI29
I0
sI30
I0
sI31
I0
sI32
I0
sI33
I0
sI34
I0
sI35
I0
sI36
I0
sI37
I0
sI38
F0.07142857142857142
sI39
I0
sI40
I0
sI41
I0
sI42
I0
sI43
I0
sI44
I0
sI45
I0
sI46
I0
sI47
I0
sI48
I0
sI49
I0
sI50
I0
sI51
I0
sI52
F0.06666666666666667
sI53
I0
sI54
I0
sI55
I0
sI56
I0
sI57
I0
sI58
I0
sI59
I0
sI60
I0
sI61
I0
sI62
I0
sI63
I0
sI64
I0
sI65
I0
sI66
I0
sI67
I0
sI68
I0
sI69
I0
sI70
I0
sI71
F0.07142857142857142
sI72
I0
sI73
I0
sI74
I0
sI75
I0
sI76
F0.07142857142857142
sI77
I0
sI78
I0
sI79
I0
sI80
I0
sI81
I0
sI82
I0
sI83
I0
sI84
I0
sI85
I0
sI86
I0
sI87
I0
sI88
F0.08333333333333333
sI89
I0
sI90
I0
sI91
I0
sI92
I0
sI93
I0
sI94
I0
sI95
I0
sI96
I0
sI97
I0
sI98
I0
sI99
I0
sI100
I0
sI101
I0
sI102
I0
sI103
I0
sI104
I0
sI105
I0
sI106
I0
sI107
I-1
sI108
I0
sI109
I0
sI110
I0
sI111
I0
sI112
I0
ssI9
(dp9
I1
F0.08333333333333333
sI2
I0
sI3
F0.125
sI4
F0.1
sI5
I0
sI6
I0
sI7
I0
sI8
I0
sI9
I0
sI10
F0.07692307692307693
sI11
I0
sI12
I0
sI13
F0.08333333333333333
sI14
I0
sI15
I0
sI16
I0
sI17
I0
sI18
F0.1
sI19
I0
sI20
I0
sI21
I0
sI22
I0
sI23
I0
sI24
I0
sI25
F0.07142857142857142
sI26
F0.16666666666666666
sI27
F0.09090909090909091
sI28
I0
sI29
I0
sI30
I0
sI31
I0
sI32
I0
sI33
I0
sI34
I0
sI35
I0
sI36
I0
sI37
I0
sI38
I0
sI39
I0
sI40
F0.09090909090909091
sI41
F0.1
sI42
I0
sI43
F0.1111111111111111
sI44
I0
sI45
I0
sI46
I0
sI47
I0
sI48
I0
sI49
I0
sI50
I0
sI51
I0
sI52
I0
sI53
I0
sI54
I0
sI55
I0
sI56
I0
sI57
I0
sI58
I0
sI59
I0
sI60
F0.08333333333333333
sI61
F0.07692307692307693
sI62
F0.1111111111111111
sI63
F0.09090909090909091
sI64
I0
sI65
I0
sI66
I0
sI67
I0
sI68
I0
sI69
I0
sI70
I0
sI71
I0
sI72
I0
sI73
I0
sI74
I0
sI75
I0
sI76
I0
sI77
I0
sI78
I0
sI79
I0
sI80
I0
sI81
I0
sI82
I0
sI83
I0
sI84
I0
sI85
I0
sI86
I0
sI87
I0
sI88
I0
sI89
I0
sI90
F0.1
sI91
I0
sI92
I0
sI93
I0
sI94
I0
sI95
I0
sI96
I0
sI97
I0
sI98
I0
sI99
I0
sI100
I0
sI101
I0
sI102
I0
sI103
I0
sI104
I0
sI105
I0
sI106
I0
sI107
I0
sI108
I0
sI109
I0
sI110
I0
sI111
I0
sI112
I0
ssI10
(dp10
I1
I0
sI2
I0
sI3
I0
sI4
I0
sI5
I0
sI6
I0
sI7
I0
sI8
I0
sI9
F0.07692307692307693
sI10
I0
sI11
I0
sI12
I0
sI13
I0
sI14
I0
sI15
I0
sI16
I0
sI17
I0
sI18
I0
sI19
I0
sI20
I0
sI21
I0
sI22
I0
sI23
I0
sI24
I0
sI25
I0
sI26
I0
sI27
I0
sI28
I0
sI29
I0
sI30
I0
sI31
I0
sI32
I0
sI33
I0
sI34
I0
sI35
I0
sI36
I0
sI37
I0
sI38
I0
sI39
I0
sI40
I0
sI41
I0
sI42
I0
sI43
I0
sI44
I0
sI45
I0
sI46
I0
sI47
I0
sI48
I0
sI49
I0
sI50
I0
sI51
I0
sI52
I0
sI53
I0
sI54
I0
sI55
I0
sI56
I0
sI57
I0
sI58
I0
sI59
I0
sI60
I0
sI61
I0
sI62
I0
sI63
I0
sI64
I0
sI65
I0
sI66
I0
sI67
I0
sI68
I0
sI69
I0
sI70
I0
sI71
I0
sI72
I0
sI73
I0
sI74
I0
sI75
I0
sI76
I0
sI77
I0
sI78
I0
sI79
I0
sI80
I0
sI81
I0
sI82
I0
sI83
I0
sI84
I0
sI85
I0
sI86
I0
sI87
I0
sI88
I0
sI89
I0
sI90
I0
sI91
I0
sI92
I0
sI93
I0
sI94
I0
sI95
I0
sI96
I0
sI97
I0
sI98
I0
sI99
I0
sI100
I0
sI101
I0
sI102
I0
sI103
I0
sI104
I0
sI105
I0
sI106
I0
sI107
I0
sI108
I0
sI109
I0
sI110
I0
sI111
I0
sI112
I0
ssI11
(dp11
I1
I0
sI2
I0
sI3
I0
sI4
F0.125
sI5
I0
sI6
I0
sI7
I0
sI8
I0
sI9
I0
sI10
I0
sI11
I0
sI12
F0.1
sI13
F0.1
sI14
I0
sI15
I0
sI16
I0
sI17
I0
sI18
I0
sI19
I0
sI20
I0
sI21
I0
sI22
I0
sI23
I0
sI24
I0
sI25
I0
sI26
I0
sI27
I0
sI28
I0
sI29
I0
sI30
I0
sI31
I0
sI32
I0
sI33
I0
sI34
I0
sI35
I0
sI36
I0
sI37
I0
sI38
I0
sI39
I0
sI40
I0
sI41
I0
sI42
I0
sI43
I0
sI44
I0
sI45
I0
sI46
I0
sI47
I0
sI48
I0
sI49
I0
sI50
I0
sI51
F0.1
sI52
I0
sI53
I0
sI54
I0
sI55
I0
sI56
I0
sI57
I0
sI58
I0
sI59
I0
sI60
I0
sI61
I0
sI62
I0
sI63
I0
sI64
I0
sI65
I0
sI66
I0
sI67
I0
sI68
I0
sI69
I0
sI70
I0
sI71
I0
sI72
I0
sI73
I0
sI74
I0
sI75
I0
sI76
I0
sI77
I0
sI78
I0
sI79
I0
sI80
I0
sI81
I0
sI82
I0
sI83
I0
sI84
I0
sI85
I0
sI86
I0
sI87
I0
sI88
I0
sI89
I0
sI90
I0
sI91
I0
sI92
I0
sI93
I0
sI94
I0
sI95
I0
sI96
I0
sI97
I0
sI98
I0
sI99
I0
sI100
I0
sI101
I0
sI102
I0
sI103
I0
sI104
I0
sI105
I0
sI106
I0
sI107
I0
sI108
I0
sI109
I0
sI110
I0
sI111
I0
sI112
I0
ssI12
(dp12
I1
I0
sI2
I0
sI3
F0.09090909090909091
sI4
I0
sI5
I0
sI6
I0
sI7
I0
sI8
I0
sI9
I0
sI10
I0
sI11
F0.1
sI12
I0
sI13
I0
sI14
I0
sI15
I0
sI16
I0
sI17
I0
sI18
I0
sI19
I0
sI20
I0
sI21
I0
sI22
I0
sI23
I0
sI24
I0
sI25
I0
sI26
I0
sI27
I0
sI28
I0
sI29
I0
sI30
I0
sI31
I0
sI32
I0
sI33
I0
sI34
I0
sI35
I0
sI36
I0
sI37
I0
sI38
I0
sI39
I0
sI40
I0
sI41
F0.09090909090909091
sI42
I0
sI43
I0
sI44
I0
sI45
I0
sI46
I0
sI47
I0
sI48
I0
sI49
I0
sI50
I0
sI51
I0
sI52
I0
sI53
I0
sI54
I0
sI55
I0
sI56
I0
sI57
I0
sI58
I0
sI59
I0
sI60
I0
sI61
I0
sI62
I0
sI63
I0
sI64
F0.06666666666666667
sI65
I0
sI66
I0
sI67
I0
sI68
I0
sI69
I0
sI70
I0
sI71
I0
sI72
I0
sI73
I0
sI74
I0
sI75
I0
sI76
I0
sI77
I0
sI78
I0
sI79
I0
sI80
I0
sI81
I0
sI82
I0
sI83
I0
sI84
I0
sI85
I0
sI86
I0
sI87
I0
sI88
I0
sI89
I0
sI90
I0
sI91
I0
sI92
I0
sI93
I0
sI94
I0
sI95
I0
sI96
I0
sI97
I0
sI98
I0
sI99
I0
sI100
I0
sI101
I0
sI102
I0
sI103
I0
sI104
I0
sI105
F0.1
sI106
I0
sI107
I0
sI108
I0
sI109
I0
sI110
I0
sI111
I0
sI112
I0
ssI13
(dp13
I1
I0
sI2
I0
sI3
I0
sI4
I0
sI5
I0
sI6
I0
sI7
I0
sI8
I0
sI9
F0.08333333333333333
sI10
I0
sI11
F0.1
sI12
I0
sI13
I0
sI14
I0
sI15
I0
sI16
I0
sI17
I0
sI18
F0.09090909090909091
sI19
F0.16666666666666666
sI20
I0
sI21
I0
sI22
I0
sI23
I0
sI24
I0
sI25
I0
sI26
I0
sI27
I0
sI28
I0
sI29
I0
sI30
I0
sI31
I0
sI32
I0
sI33
I0
sI34
I0
sI35
I0
sI36
I0
sI37
I0
sI38
I0
sI39
I0
sI40
I0
sI41
I0
sI42
I0
sI43
I0
sI44
I0
sI45
I0
sI46
I0
sI47
I0
sI48
I0
sI49
I0
sI50
I0
sI51
F0.2
sI52
I0
sI53
I0
sI54
I0
sI55
I0
sI56
I0
sI57
I0
sI58
I0
sI59
I0
sI60
I0
sI61
I0
sI62
I0
sI63
I0
sI64
I0
sI65
I0
sI66
I0
sI67
I0
sI68
I0
sI69
I0
sI70
I0
sI71
I0
sI72
I0
sI73
I0
sI74
I0
sI75
I0
sI76
I0
sI77
I0
sI78
I0
sI79
I0
sI80
I0
sI81
I0
sI82
I0
sI83
I0
sI84
I0
sI85
I0
sI86
I0
sI87
I0
sI88
F0.1111111111111111
sI89
I0
sI90
I0
sI91
I0
sI92
I0
sI93
I0
sI94
I0
sI95
I0
sI96
I0
sI97
I0
sI98
I0
sI99
I0
sI100
I0
sI101
I0
sI102
I0
sI103
F0.1
sI104
I0
sI105
F0.16666666666666666
sI106
I0
sI107
I0
sI108
I0
sI109
I0
sI110
I0
sI111
I0
sI112
I0
ssI14
(dp14
I1
F0.07692307692307693
sI2
I0
sI3
F0.1111111111111111
sI4
I0
sI5
I0
sI6
I0
sI7
I0
sI8
I0
sI9
I0
sI10
I0
sI11
I0
sI12
I0
sI13
I0
sI14
I0
sI15
I0
sI16
I0
sI17
F0.07692307692307693
sI18
F0.09090909090909091
sI19
I0
sI20
I0
sI21
I0
sI22
I0
sI23
I0
sI24
I0
sI25
I0
sI26
F0.1111111111111111
sI27
I0
sI28
I0
sI29
I0
sI30
I0
sI31
I0
sI32
I0
sI33
I0
sI34
I0
sI35
I0
sI36
I0
sI37
F0.058823529411764705
sI38
F0.06666666666666667
sI39
I0
sI40
I0
sI41
I0
sI42
I0
sI43
I0
sI44
I0
sI45
I0
sI46
I0
sI47
I0
sI48
I0
sI49
I0
sI50
I0
sI51
I0
sI52
I0
sI53
I0
sI54
I0
sI55
I0
sI56
I0
sI57
I0
sI58
I0
sI59
I0
sI60
F0.07692307692307693
sI61
I0
sI62
I0
sI63
I0
sI64
I0
sI65
I0
sI66
I0
sI67
I0
sI68
I0
sI69
I0
sI70
I0
sI71
I0
sI72
I0
sI73
I0
sI74
I0
sI75
I0
sI76
I0
sI77
I0
sI78
I0
sI79
I0
sI80
I0
sI81
I0
sI82
I0
sI83
I0
sI84
I0
sI85
I0
sI86
I0
sI87
I0
sI88
I0
sI89
I0
sI90
I0
sI91
I0
sI92
I0
sI93
I0
sI94
I0
sI95
I0
sI96
I0
sI97
I0
sI98
I0
sI99
I0
sI100
I0
sI101
I0
sI102
I0
sI103
I0
sI104
I0
sI105
I0
sI106
I0
sI107
I0
sI108
I0
sI109
I0
sI110
I0
sI111
I0
sI112
I0
ssI15
(dp15
I1
I0
sI2
I0
sI3
I0
sI4
I0
sI5
I0
sI6
I0
sI7
I0
sI8
I0
sI9
I0
sI10
I0
sI11
I0
sI12
I0
sI13
I0
sI14
I0
sI15
I0
sI16
I0
sI17
I0
sI18
I0
sI19
I0
sI20
I0
sI21
I0
sI22
I0
sI23
I0
sI24
I0
sI25
I0
sI26
I0
sI27
I0
sI28
I0
sI29
I0
sI30
I0
sI31
I0
sI32
I0
sI33
I0
sI34
I0
sI35
I0
sI36
I0
sI37
I0
sI38
I0
sI39
I0
sI40
I0
sI41
I0
sI42
I0
sI43
I0
sI44
I0
sI45
I0
sI46
I0
sI47
I0
sI48
I0
sI49
I0
sI50
I0
sI51
I0
sI52
I0
sI53
I0
sI54
I0
sI55
I0
sI56
I0
sI57
I0
sI58
I0
sI59
I0
sI60
I0
sI61
I0
sI62
I0
sI63
I0
sI64
I0
sI65
I0
sI66
I0
sI67
I0
sI68
I0
sI69
I0
sI70
I0
sI71
I0
sI72
I0
sI73
I0
sI74
I0
sI75
I0
sI76
I0
sI77
I0
sI78
I0
sI79
I0
sI80
I0
sI81
I0
sI82
I0
sI83
I0
sI84
I0
sI85
I0
sI86
I0
sI87
I0
sI88
I0
sI89
I0
sI90
I0
sI91
I0
sI92
I0
sI93
I0
sI94
I0
sI95
I0
sI96
I0
sI97
I0
sI98
I0
sI99
I0
sI100
I0
sI101
I0
sI102
I0
sI103
I0
sI104
I0
sI105
I0
sI106
I0
sI107
I0
sI108
I0
sI109
I0
sI110
I0
sI111
I0
sI112
I0
ssI16
(dp16
I1
I0
sI2
I0
sI3
I0
sI4
I0
sI5
I0
sI6
I0
sI7
I0
sI8
F0.07692307692307693
sI9
I0
sI10
I0
sI11
I0
sI12
I0
sI13
I0
sI14
I0
sI15
I0
sI16
I0
sI17
I0
sI18
F0.08333333333333333
sI19
I0
sI20
I0
sI21
I0
sI22
I0
sI23
I0
sI24
I0
sI25
I0
sI26
I0
sI27
I0
sI28
I0
sI29
I0
sI30
I0
sI31
I0
sI32
I0
sI33
F0.06666666666666667
sI34
I0
sI35
I0
sI36
I0
sI37
I0
sI38
I0
sI39
I0
sI40
I0
sI41
I0
sI42
I0
sI43
I0
sI44
I0
sI45
I0
sI46
I0
sI47
I0
sI48
I0
sI49
F0.06666666666666667
sI50
I0
sI51
I0
sI52
I0
sI53
I0
sI54
I0
sI55
I0
sI56
I0
sI57
I0
sI58
I0
sI59
I0
sI60
I0
sI61
I0
sI62
I0
sI63
I0
sI64
I0
sI65
I0
sI66
I0
sI67
I0
sI68
I0
sI69
I0
sI70
I0
sI71
I0
sI72
I0
sI73
I0
sI74
I0
sI75
I0
sI76
F0.08333333333333333
sI77
I0
sI78
I0
sI79
I0
sI80
F0.07142857142857142
sI81
I0
sI82
I0
sI83
I0
sI84
I0
sI85
I0
sI86
I0
sI87
I0
sI88
I0
sI89
I0
sI90
I0
sI91
I0
sI92
I0
sI93
I0
sI94
I0
sI95
I0
sI96
I0
sI97
I0
sI98
I0
sI99
I0
sI100
I0
sI101
I0
sI102
I0
sI103
I0
sI104
I0
sI105
F0.09090909090909091
sI106
I0
sI107
I0
sI108
I0
sI109
I0
sI110
I0
sI111
I0
sI112
I0
ssI17
(dp17
I1
I0
sI2
I0
sI3
I0
sI4
I0
sI5
I0
sI6
I0
sI7
I0
sI8
I0
sI9
I0
sI10
I0
sI11
I0
sI12
I0
sI13
I0
sI14
F0.07692307692307693
sI15
I0
sI16
I0
sI17
I0
sI18
I0
sI19
I0
sI20
I0
sI21
I0
sI22
I0
sI23
I0
sI24
I0
sI25
I0
sI26
I0
sI27
I0
sI28
I0
sI29
I0
sI30
I0
sI31
I0
sI32
I0
sI33
I0
sI34
I0
sI35
I0
sI36
I0
sI37
I0
sI38
I0
sI39
I0
sI40
I0
sI41
I0
sI42
I0
sI43
I0
sI44
I0
sI45
I0
sI46
I0
sI47
I0
sI48
I0
sI49
I0
sI50
I0
sI51
I0
sI52
I0
sI53
I0
sI54
I0
sI55
I0
sI56
I0
sI57
I0
sI58
I0
sI59
I0
sI60
I0
sI61
I0
sI62
I0
sI63
I0
sI64
I0
sI65
I0
sI66
I0
sI67
I0
sI68
I0
sI69
I0
sI70
I0
sI71
I0
sI72
I0
sI73
I0
sI74
I0
sI75
I0
sI76
I0
sI77
I0
sI78
I0
sI79
I0
sI80
I0
sI81
I0
sI82
I0
sI83
I0
sI84
I0
sI85
I0
sI86
I0
sI87
I0
sI88
I0
sI89
I0
sI90
I0
sI91
I0
sI92
I0
sI93
I0
sI94
I0
sI95
I0
sI96
I0
sI97
I0
sI98
I0
sI99
I0
sI100
I0
sI101
I0
sI102
I0
sI103
I0
sI104
I0
sI105
I0
sI106
I0
sI107
I0
sI108
I0
sI109
I0
sI110
I0
sI111
I0
sI112
I0
ssI18
(dp18
I1
F0.09090909090909091
sI2
I0
sI3
F0.1111111111111111
sI4
I0
sI5
F0.07692307692307693
sI6
I0
sI7
I0
sI8
F0.07142857142857142
sI9
F0.1
sI10
I0
sI11
I0
sI12
I0
sI13
F0.09090909090909091
sI14
F0.09090909090909091
sI15
I0
sI16
F0.08333333333333333
sI17
I0
sI18
I0
sI19
I0
sI20
I0
sI21
I0
sI22
F0.1
sI23
F0.1
sI24
I0
sI25
F0.07692307692307693
sI26
F0.1111111111111111
sI27
F0.1
sI28
F0.125
sI29
F0.1111111111111111
sI30
I0
sI31
I0
sI32
F0.09090909090909091
sI33
F0.08333333333333333
sI34
I0
sI35
F0.09090909090909091
sI36
F0.1111111111111111
sI37
F0.06666666666666667
sI38
F0.07692307692307693
sI39
I0
sI40
I0
sI41
I0
sI42
I0
sI43
I0
sI44
I0
sI45
F0.09090909090909091
sI46
I0
sI47
I0
sI48
I0
sI49
I0
sI50
I0
sI51
F0.09090909090909091
sI52
F0.1
sI53
F0.07142857142857142
sI54
I0
sI55
I0
sI56
I0
sI57
I0
sI58
I0
sI59
I0
sI60
I0
sI61
I0
sI62
I0
sI63
I0
sI64
I0
sI65
I0
sI66
F0.1
sI67
F0.08333333333333333
sI68
F0.09090909090909091
sI69
I0
sI70
I0
sI71
F0.07692307692307693
sI72
I0
sI73
F0.09090909090909091
sI74
I0
sI75
I0
sI76
I0
sI77
I0
sI78
F0.1
sI79
I0
sI80
I0
sI81
F0.0625
sI82
I0
sI83
F0.06666666666666667
sI84
F0.07692307692307693
sI85
F0.0625
sI86
F0.125
sI87
F0.1111111111111111
sI88
F0.09090909090909091
sI89
I0
sI90
F0.1111111111111111
sI91
I0
sI92
I0
sI93
I0
sI94
I0
sI95
I0
sI96
I0
sI97
I0
sI98
I0
sI99
I0
sI100
I0
sI101
I0
sI102
I0
sI103
F0.125
sI104
F0.0625
sI105
F0.08333333333333333
sI106
I0
sI107
I0
sI108
I0
sI109
I0
sI110
I0
sI111
I0
sI112
I0
ssI19
(dp19
I1
F0.16666666666666666
sI2
I0
sI3
I0
sI4
F0.25
sI5
I0
sI6
I0
sI7
I0
sI8
I0
sI9
I0
sI10
I0
sI11
I0
sI12
I0
sI13
F0.16666666666666666
sI14
I0
sI15
I0
sI16
I0
sI17
I0
sI18
I0
sI19
I0
sI20
I0
sI21
I0
sI22
F0.2
sI23
I0
sI24
I0
sI25
I0
sI26
I0
sI27
I0
sI28
I0
sI29
I0
sI30
F0.0625
sI31
I0
sI32
I0
sI33
I0
sI34
I0
sI35
F0.16666666666666666
sI36
I0
sI37
I0
sI38
I0
sI39
I0
sI40
I0
sI41
I0
sI42
I0
sI43
I0
sI44
I0
sI45
F0.16666666666666666
sI46
I0
sI47
I0
sI48
I0
sI49
I0
sI50
I0
sI51
F0.16666666666666666
sI52
F0.07142857142857142
sI53
I0
sI54
F0.1
sI55
I0
sI56
I0
sI57
I0
sI58
I0
sI59
I0
sI60
I0
sI61
F0.14285714285714285
sI62
I0
sI63
I0
sI64
I0
sI65
I0
sI66
I0
sI67
I0
sI68
I0
sI69
I0
sI70
I0
sI71
I0
sI72
I0
sI73
I0
sI74
I0
sI75
I0
sI76
I0
sI77
I0
sI78
I0
sI79
I0
sI80
I0
sI81
I0
sI82
I0
sI83
I0
sI84
I0
sI85
I0
sI86
I0
sI87
I0
sI88
I0
sI89
I0
sI90
I0
sI91
I0
sI92
I0
sI93
I0
sI94
I0
sI95
I0
sI96
I0
sI97
I0
sI98
I0
sI99
I0
sI100
I0
sI101
I0
sI102
I0
sI103
I0
sI104
I0
sI105
I0
sI106
I0
sI107
I0
sI108
I0
sI109
I0
sI110
I0
sI111
I0
sI112
I0
ssI20
(dp20
I1
F0.07692307692307693
sI2
I0
sI3
I0
sI4
I0
sI5
I0
sI6
I0
sI7
I0
sI8
I0
sI9
I0
sI10
I0
sI11
I0
sI12
I0
sI13
I0
sI14
I0
sI15
I0
sI16
I0
sI17
I0
sI18
I0
sI19
I0
sI20
I0
sI21
F0.2
sI22
F0.08333333333333333
sI23
F0.08333333333333333
sI24
F0.1111111111111111
sI25
F0.06666666666666667
sI26
F0.09090909090909091
sI27
F0.125
sI28
F0.1
sI29
I0
sI30
I0
sI31
I0
sI32
I0
sI33
I0
sI34
I0
sI35
I0
sI36
I0
sI37
I0
sI38
I0
sI39
I0
sI40
I0
sI41
I0
sI42
I0
sI43
I0
sI44
I0
sI45
I0
sI46
I0
sI47
I0
sI48
I0
sI49
I0
sI50
I0
sI51
I0
sI52
I0
sI53
I0
sI54
I0
sI55
I0
sI56
I0
sI57
I0
sI58
I0
sI59
I0
sI60
I0
sI61
I0
sI62
I0
sI63
I0
sI64
I0
sI65
I0
sI66
I0
sI67
I0
sI68
I0
sI69
I0
sI70
I0
sI71
I0
sI72
I0
sI73
I0
sI74
I0
sI75
I0
sI76
I0
sI77
I0
sI78
I0
sI79
I0
sI80
I0
sI81
I0
sI82
I0
sI83
I0
sI84
I0
sI85
I0
sI86
I0
sI87
I0
sI88
I0
sI89
I0
sI90
I0
sI91
I0
sI92
I0
sI93
I0
sI94
I0
sI95
I0
sI96
I0
sI97
I0
sI98
I0
sI99
I0
sI100
I0
sI101
I0
sI102
I0
sI103
I0
sI104
I0
sI105
I0
sI106
I0
sI107
I0
sI108
I0
sI109
I0
sI110
I0
sI111
I0
sI112
I0
ssI21
(dp21
I1
I0
sI2
I0
sI3
I0
sI4
I0
sI5
I0
sI6
I0
sI7
I0
sI8
I0
sI9
I0
sI10
I0
sI11
I0
sI12
I0
sI13
I0
sI14
I0
sI15
I0
sI16
I0
sI17
I0
sI18
I0
sI19
I0
sI20
F0.2
sI21
I0
sI22
I0
sI23
I0
sI24
I0
sI25
I0
sI26
I0
sI27
I0
sI28
I0
sI29
I0
sI30
I0
sI31
I0
sI32
I0
sI33
I0
sI34
I0
sI35
I0
sI36
I0
sI37
I0
sI38
I0
sI39
I0
sI40
I0
sI41
I0
sI42
I0
sI43
I0
sI44
I0
sI45
I0
sI46
I0
sI47
I0
sI48
I0
sI49
I0
sI50
I0
sI51
I0
sI52
I0
sI53
I0
sI54
I0
sI55
I0
sI56
I0
sI57
I0
sI58
I0
sI59
I0
sI60
I0
sI61
I0
sI62
I0
sI63
I0
sI64
I0
sI65
I0
sI66
I0
sI67
I0
sI68
I0
sI69
I0
sI70
I0
sI71
I0
sI72
I0
sI73
I0
sI74
I0
sI75
I0
sI76
I0
sI77
I0
sI78
I0
sI79
I0
sI80
F0.09090909090909091
sI81
I0
sI82
I0
sI83
I0
sI84
I0
sI85
I0
sI86
I0
sI87
I0
sI88
I0
sI89
I0
sI90
I0
sI91
I0
sI92
I0
sI93
I0
sI94
I0
sI95
F0.07692307692307693
sI96
I0
sI97
I0
sI98
I0
sI99
I0
sI100
I0
sI101
I0
sI102
I0
sI103
I0
sI104
I0
sI105
I0
sI106
I0
sI107
I0
sI108
I0
sI109
I0
sI110
I0
sI111
I0
sI112
I0
ssI22
(dp22
I1
I0
sI2
I0
sI3
F0.1
sI4
I0
sI5
I0
sI6
I0
sI7
I0
sI8
F0.1
sI9
I0
sI10
I0
sI11
I0
sI12
I0
sI13
I0
sI14
I0
sI15
I0
sI16
I0
sI17
I0
sI18
F0.1
sI19
F0.2
sI20
F0.08333333333333333
sI21
I0
sI22
I0
sI23
I0
sI24
I0
sI25
I0
sI26
I0
sI27
I0
sI28
I0
sI29
F0.1
sI30
I0
sI31
I0
sI32
I0
sI33
I0
sI34
I0
sI35
I0
sI36
I0
sI37
I0
sI38
I0
sI39
I0
sI40
I0
sI41
I0
sI42
I0
sI43
I0
sI44
I0
sI45
I0
sI46
I0
sI47
I0
sI48
I0
sI49
F0.07692307692307693
sI50
I0
sI51
F0.25
sI52
F0.09090909090909091
sI53
I0
sI54
I0
sI55
I0
sI56
I0
sI57
I0
sI58
I0
sI59
I0
sI60
I0
sI61
I0
sI62
I0
sI63
I0
sI64
I0
sI65
I0
sI66
I0
sI67
I0
sI68
I0
sI69
I0
sI70
I0
sI71
I0
sI72
I0
sI73
I0
sI74
I0
sI75
I0
sI76
I0
sI77
I0
sI78
I0
sI79
I0
sI80
I0
sI81
I0
sI82
I0
sI83
I0
sI84
I0
sI85
I0
sI86
I0
sI87
I0
sI88
I0
sI89
I0
sI90
I0
sI91
I0
sI92
I0
sI93
I0
sI94
I0
sI95
I0
sI96
I0
sI97
I0
sI98
I0
sI99
I0
sI100
I0
sI101
I0
sI102
I0
sI103
I0
sI104
I0
sI105
I0
sI106
I0
sI107
I0
sI108
I0
sI109
I0
sI110
I0
sI111
I0
sI112
I0
ssI23
(dp23
I1
I0
sI2
I0
sI3
F0.125
sI4
I0
sI5
I0
sI6
I0
sI7
I0
sI8
I0
sI9
I0
sI10
I0
sI11
I0
sI12
I0
sI13
I0
sI14
I0
sI15
I0
sI16
I0
sI17
I0
sI18
F0.1
sI19
I0
sI20
F0.08333333333333333
sI21
I0
sI22
I0
sI23
I0
sI24
I0
sI25
I0
sI26
I0
sI27
I0
sI28
I0
sI29
I0
sI30
I0
sI31
I0
sI32
I0
sI33
I0
sI34
I0
sI35
I0
sI36
I0
sI37
I0
sI38
I0
sI39
I0
sI40
I0
sI41
I0
sI42
I0
sI43
I0
sI44
I0
sI45
I0
sI46
I0
sI47
I0
sI48
I0
sI49
I0
sI50
I0
sI51
I0
sI52
I0
sI53
I0
sI54
I0
sI55
I0
sI56
I0
sI57
I0
sI58
I0
sI59
I0
sI60
I0
sI61
I0
sI62
I0
sI63
I0
sI64
I0
sI65
I0
sI66
I0
sI67
I0
sI68
I0
sI69
I0
sI70
I0
sI71
I0
sI72
I0
sI73
I0
sI74
I0
sI75
I0
sI76
I0
sI77
I0
sI78
I0
sI79
I0
sI80
I0
sI81
I0
sI82
I0
sI83
I0
sI84
I0
sI85
I0
sI86
I0
sI87
I0
sI88
I0
sI89
I0
sI90
I0
sI91
I0
sI92
I0
sI93
I0
sI94
I0
sI95
F0.08333333333333333
sI96
I0
sI97
I0
sI98
I0
sI99
I0
sI100
I0
sI101
I0
sI102
I0
sI103
I0
sI104
I0
sI105
I0
sI106
I0
sI107
I0
sI108
I0
sI109
I0
sI110
I0
sI111
I0
sI112
I0
ssI24
(dp24
I1
I0
sI2
I0
sI3
F0.14285714285714285
sI4
I0
sI5
I0
sI6
I0
sI7
I0
sI8
I0
sI9
I0
sI10
I0
sI11
I0
sI12
I0
sI13
I0
sI14
I0
sI15
I0
sI16
I0
sI17
I0
sI18
I0
sI19
I0
sI20
F0.1111111111111111
sI21
I0
sI22
I0
sI23
I0
sI24
I0
sI25
I0
sI26
I0
sI27
I0
sI28
I0
sI29
I0
sI30
I0
sI31
I0
sI32
I0
sI33
I0
sI34
I0
sI35
I0
sI36
I0
sI37
I0
sI38
I0
sI39
I0
sI40
I0
sI41
I0
sI42
I0
sI43
I0
sI44
I0
sI45
I0
sI46
I0
sI47
I0
sI48
F0.14285714285714285
sI49
I0
sI50
I0
sI51
I0
sI52
F0.125
sI53
I0
sI54
I0
sI55
I0
sI56
I0
sI57
I0
sI58
I0
sI59
I0
sI60
F0.1111111111111111
sI61
I0
sI62
I0
sI63
I0
sI64
I0
sI65
I0
sI66
I0
sI67
I0
sI68
I0
sI69
I0
sI70
I0
sI71
I0
sI72
I0
sI73
I0
sI74
I0
sI75
I0
sI76
I0
sI77
I0
sI78
I0
sI79
I0
sI80
I0
sI81
I0
sI82
I0
sI83
I0
sI84
I0
sI85
I0
sI86
I0
sI87
I0
sI88
I0
sI89
I0
sI90
I0
sI91
I0
sI92
I0
sI93
I0
sI94
I0
sI95
I0
sI96
I0
sI97
I0
sI98
I0
sI99
I0
sI100
I0
sI101
I0
sI102
I0
sI103
I0
sI104
I0
sI105
I0
sI106
I0
sI107
I0
sI108
I0
sI109
I0
sI110
I0
sI111
I0
sI112
I0
ssI25
(dp25
I1
I0
sI2
I0
sI3
F0.07692307692307693
sI4
I0
sI5
I0
sI6
I0
sI7
I0
sI8
I0
sI9
F0.07142857142857142
sI10
I0
sI11
I0
sI12
I0
sI13
I0
sI14
I0
sI15
I0
sI16
I0
sI17
I0
sI18
F0.07692307692307693
sI19
I0
sI20
F0.06666666666666667
sI21
I0
sI22
I0
sI23
I0
sI24
I0
sI25
I0
sI26
I0
sI27
I0
sI28
I0
sI29
I0
sI30
I0
sI31
I0
sI32
I0
sI33
I0
sI34
I0
sI35
I0
sI36
I0
sI37
F0.14285714285714285
sI38
I0
sI39
I0
sI40
I0
sI41
I0
sI42
I0
sI43
I0
sI44
I0
sI45
I0
sI46
I0
sI47
I0
sI48
F0.07692307692307693
sI49
I0
sI50
F0.07692307692307693
sI51
I0
sI52
I0
sI53
I0
sI54
I0
sI55
I0
sI56
I0
sI57
I0
sI58
I0
sI59
I0
sI60
I0
sI61
I0
sI62
I0
sI63
I0
sI64
I0
sI65
I0
sI66
I0
sI67
I0
sI68
I0
sI69
I0
sI70
I0
sI71
I0
sI72
I0
sI73
I0
sI74
I0
sI75
I0
sI76
F0.07692307692307693
sI77
I0
sI78
I0
sI79
I0
sI80
I0
sI81
I0
sI82
I0
sI83
I0
sI84
I0
sI85
I0
sI86
I0
sI87
I0
sI88
F0.09090909090909091
sI89
I0
sI90
I0
sI91
I0
sI92
I0
sI93
I0
sI94
I0
sI95
I0
sI96
I0
sI97
I0
sI98
I0
sI99
I0
sI100
I0
sI101
I0
sI102
I0
sI103
I0
sI104
F0.0625
sI105
F0.09090909090909091
sI106
I0
sI107
I0
sI108
I0
sI109
I0
sI110
I0
sI111
I0
sI112
I0
ssI26
(dp26
I1
I0
sI2
I0
sI3
F0.14285714285714285
sI4
I0
sI5
I0
sI6
I0
sI7
I0
sI8
I0
sI9
F0.16666666666666666
sI10
I0
sI11
I0
sI12
I0
sI13
I0
sI14
F0.1111111111111111
sI15
I0
sI16
I0
sI17
I0
sI18
F0.1111111111111111
sI19
I0
sI20
F0.09090909090909091
sI21
I0
sI22
I0
sI23
I0
sI24
I0
sI25
I0
sI26
I0
sI27
I0
sI28
I0
sI29
I0
sI30
I0
sI31
F0.125
sI32
I0
sI33
I0
sI34
I0
sI35
I0
sI36
I0
sI37
I0
sI38
I0
sI39
I0
sI40
I0
sI41
I0
sI42
I0
sI43
I0
sI44
I0
sI45
I0
sI46
I0
sI47
F0.07692307692307693
sI48
I0
sI49
F0.08333333333333333
sI50
I0
sI51
I0
sI52
F0.125
sI53
I0
sI54
I0
sI55
I0
sI56
I0
sI57
I0
sI58
I0
sI59
I0
sI60
F0.09090909090909091
sI61
I0
sI62
I0
sI63
I0
sI64
I0
sI65
I0
sI66
I0
sI67
I0
sI68
I0
sI69
I0
sI70
I0
sI71
I0
sI72
I0
sI73
I0
sI74
I0
sI75
I0
sI76
I0
sI77
I0
sI78
F0.1
sI79
I0
sI80
I0
sI81
I0
sI82
I0
sI83
I0
sI84
I0
sI85
I0
sI86
I0
sI87
I0
sI88
I0
sI89
I0
sI90
I0
sI91
I0
sI92
I0
sI93
I0
sI94
I0
sI95
I0
sI96
I0
sI97
I0
sI98
I0
sI99
I0
sI100
I0
sI101
I0
sI102
I0
sI103
I0
sI104
I0
sI105
F0.08333333333333333
sI106
I0
sI107
I0
sI108
I0
sI109
I0
sI110
I0
sI111
I0
sI112
I0
ssI27
(dp27
I1
I0
sI2
I0
sI3
F0.1
sI4
I0
sI5
I0
sI6
I0
sI7
I0
sI8
I0
sI9
F0.09090909090909091
sI10
I0
sI11
I0
sI12
I0
sI13
I0
sI14
I0
sI15
I0
sI16
I0
sI17
I0
sI18
F0.1
sI19
I0
sI20
F0.125
sI21
I0
sI22
I0
sI23
I0
sI24
I0
sI25
I0
sI26
I0
sI27
I0
sI28
I0
sI29
I0
sI30
I0
sI31
I0
sI32
I0
sI33
I0
sI34
I0
sI35
I0
sI36
I0
sI37
I0
sI38
I0
sI39
I0
sI40
I0
sI41
I0
sI42
I0
sI43
I0
sI44
I0
sI45
I0
sI46
I0
sI47
I0
sI48
I0
sI49
I0
sI50
I0
sI51
I0
sI52
F0.09090909090909091
sI53
I0
sI54
I0
sI55
I0
sI56
I0
sI57
I0
sI58
I0
sI59
I0
sI60
I0
sI61
I0
sI62
I0
sI63
I0
sI64
I0
sI65
I0
sI66
I0
sI67
I0
sI68
I0
sI69
I0
sI70
I0
sI71
I0
sI72
I0
sI73
I0
sI74
I0
sI75
I0
sI76
I0
sI77
I0
sI78
I0
sI79
I0
sI80
F0.1
sI81
F0.058823529411764705
sI82
I0
sI83
I0
sI84
I0
sI85
I0
sI86
I0
sI87
I0
sI88
I0
sI89
I0
sI90
I0
sI91
I0
sI92
I0
sI93
I0
sI94
I0
sI95
I0
sI96
I0
sI97
I0
sI98
I0
sI99
I0
sI100
I0
sI101
I0
sI102
I0
sI103
I0
sI104
I0
sI105
F0.07692307692307693
sI106
I0
sI107
I0
sI108
I0
sI109
I0
sI110
I0
sI111
I0
sI112
I0
ssI28
(dp28
I1
I0
sI2
I0
sI3
F0.16666666666666666
sI4
I0
sI5
F0.08333333333333333
sI6
I0
sI7
I0
sI8
I0
sI9
I0
sI10
I0
sI11
I0
sI12
I0
sI13
I0
sI14
I0
sI15
I0
sI16
I0
sI17
I0
sI18
F0.125
sI19
I0
sI20
F0.1
sI21
I0
sI22
I0
sI23
I0
sI24
I0
sI25
I0
sI26
I0
sI27
I0
sI28
I0
sI29
I0
sI30
I0
sI31
I0
sI32
I0
sI33
I0
sI34
I0
sI35
I0
sI36
I0
sI37
I0
sI38
I0
sI39
I0
sI40
I0
sI41
I0
sI42
I0
sI43
I0
sI44
I0
sI45
I0
sI46
I0
sI47
I0
sI48
I0
sI49
I0
sI50
I0
sI51
I0
sI52
I0
sI53
F0.07692307692307693
sI54
I0
sI55
I0
sI56
I0
sI57
I0
sI58
I0
sI59
I0
sI60
I0
sI61
I0
sI62
I0
sI63
I0
sI64
F0.0625
sI65
I0
sI66
I0
sI67
I0
sI68
I0
sI69
I0
sI70
I0
sI71
I0
sI72
I0
sI73
I0
sI74
I0
sI75
I0
sI76
I0
sI77
I0
sI78
I0
sI79
I0
sI80
F0.1
sI81
F0.06666666666666667
sI82
I0
sI83
I0
sI84
I0
sI85
I0
sI86
I0
sI87
I0
sI88
F0.1
sI89
I0
sI90
I0
sI91
I0
sI92
I0
sI93
I0
sI94
I0
sI95
I0
sI96
I0
sI97
F0.125
sI98
I0
sI99
I0
sI100
I0
sI101
I0
sI102
I0
sI103
I0
sI104
F0.06666666666666667
sI105
I0
sI106
I0
sI107
I0
sI108
I0
sI109
I0
sI110
I0
sI111
I0
sI112
I0
ssI29
(dp29
I1
F0.09090909090909091
sI2
I0
sI3
I0
sI4
I0
sI5
I0
sI6
I0
sI7
I0
sI8
I0
sI9
I0
sI10
I0
sI11
I0
sI12
I0
sI13
I0
sI14
I0
sI15
I0
sI16
I0
sI17
I0
sI18
F0.1111111111111111
sI19
I0
sI20
I0
sI21
I0
sI22
F0.1
sI23
I0
sI24
I0
sI25
I0
sI26
I0
sI27
I0
sI28
I0
sI29
I0
sI30
F0.08333333333333333
sI31
F0.125
sI32
F0.09090909090909091
sI33
F0.08333333333333333
sI34
F0.07692307692307693
sI35
F0.09090909090909091
sI36
F0.1111111111111111
sI37
I0
sI38
I0
sI39
I0
sI40
I0
sI41
I0
sI42
I0
sI43
I0
sI44
I0
sI45
F0.09090909090909091
sI46
I0
sI47
I0
sI48
I0
sI49
I0
sI50
I0
sI51
I0
sI52
I0
sI53
I0
sI54
I0
sI55
I0
sI56
I0
sI57
I0
sI58
I0
sI59
I0
sI60
I0
sI61
I0
sI62
I0
sI63
I0
sI64
I0
sI65
I0
sI66
I0
sI67
I0
sI68
I0
sI69
I0
sI70
I0
sI71
I0
sI72
I0
sI73
I0
sI74
I0
sI75
I0
sI76
I0
sI77
I0
sI78
I0
sI79
I0
sI80
I0
sI81
I0
sI82
I0
sI83
I0
sI84
I0
sI85
I0
sI86
I0
sI87
I0
sI88
I0
sI89
I0
sI90
F0.1111111111111111
sI91
I0
sI92
I0
sI93
F0.125
sI94
I0
sI95
I0
sI96
I0
sI97
I0
sI98
I0
sI99
I0
sI100
I0
sI101
I0
sI102
I0
sI103
I0
sI104
I0
sI105
I0
sI106
I0
sI107
I0
sI108
I0
sI109
I0
sI110
I0
sI111
I0
sI112
I0
ssI30
(dp30
I1
I0
sI2
I0
sI3
I0
sI4
I0
sI5
I0
sI6
I0
sI7
I0
sI8
I0
sI9
I0
sI10
I0
sI11
I0
sI12
I0
sI13
I0
sI14
I0
sI15
I0
sI16
I0
sI17
I0
sI18
I0
sI19
F0.0625
sI20
I0
sI21
I0
sI22
I0
sI23
I0
sI24
I0
sI25
I0
sI26
I0
sI27
I0
sI28
I0
sI29
F0.08333333333333333
sI30
I0
sI31
I0
sI32
I0
sI33
I0
sI34
I0
sI35
I0
sI36
I0
sI37
I0
sI38
I0
sI39
I0
sI40
I0
sI41
I0
sI42
I0
sI43
I0
sI44
I0
sI45
I0
sI46
I0
sI47
I0
sI48
I0
sI49
I0
sI50
I0
sI51
I0
sI52
I0
sI53
I0
sI54
I0
sI55
I0
sI56
I0
sI57
I0
sI58
I0
sI59
F0.07692307692307693
sI60
I0
sI61
I0
sI62
I0
sI63
I0
sI64
I0
sI65
I0
sI66
I0
sI67
I0
sI68
I0
sI69
I0
sI70
I0
sI71
I0
sI72
I0
sI73
I0
sI74
I0
sI75
F0.05263157894736842
sI76
I0
sI77
I0
sI78
I0
sI79
I0
sI80
F0.16666666666666666
sI81
I0
sI82
I0
sI83
I0
sI84
I0
sI85
I0
sI86
I0
sI87
I0
sI88
I0
sI89
I0
sI90
I0
sI91
I0
sI92
I0
sI93
I0
sI94
I0
sI95
I0
sI96
I0
sI97
I0
sI98
I0
sI99
I0
sI100
I0
sI101
I0
sI102
I0
sI103
I0
sI104
I0
sI105
I0
sI106
I0
sI107
I0
sI108
I0
sI109
I0
sI110
I0
sI111
I0
sI112
I0
ssI31
(dp31
I1
I0
sI2
I0
sI3
I0
sI4
I0
sI5
I0
sI6
I0
sI7
I0
sI8
I0
sI9
I0
sI10
I0
sI11
I0
sI12
I0
sI13
I0
sI14
I0
sI15
I0
sI16
I0
sI17
I0
sI18
I0
sI19
I0
sI20
I0
sI21
I0
sI22
I0
sI23
I0
sI24
I0
sI25
I0
sI26
F0.125
sI27
I0
sI28
I0
sI29
F0.125
sI30
I0
sI31
I0
sI32
I0
sI33
I0
sI34
I0
sI35
I0
sI36
I0
sI37
I0
sI38
I0
sI39
I0
sI40
I0
sI41
I0
sI42
I0
sI43
I0
sI44
I0
sI45
I0
sI46
I0
sI47
I0
sI48
I0
sI49
I0
sI50
I0
sI51
I0
sI52
F0.1111111111111111
sI53
I0
sI54
I0
sI55
I0
sI56
I0
sI57
I0
sI58
I0
sI59
I0
sI60
I0
sI61
I0
sI62
I0
sI63
I0
sI64
I0
sI65
I0
sI66
I0
sI67
I0
sI68
I0
sI69
I0
sI70
I0
sI71
I0
sI72
I0
sI73
I0
sI74
I0
sI75
I0
sI76
I0
sI77
I0
sI78
I0
sI79
I0
sI80
F0.16666666666666666
sI81
I0
sI82
I0
sI83
I0
sI84
I0
sI85
F0.06666666666666667
sI86
I0
sI87
I0
sI88
I0
sI89
I0
sI90
I0
sI91
I0
sI92
I0
sI93
F0.14285714285714285
sI94
I0
sI95
I0
sI96
I0
sI97
I0
sI98
I0
sI99
I0
sI100
I0
sI101
I0
sI102
I0
sI103
I0
sI104
I0
sI105
I0
sI106
I0
sI107
I0
sI108
I0
sI109
I0
sI110
I0
sI111
I0
sI112
I0
ssI32
(dp32
I1
I0
sI2
I0
sI3
F0.09090909090909091
sI4
I0
sI5
I0
sI6
I0
sI7
I0
sI8
I0
sI9
I0
sI10
I0
sI11
I0
sI12
I0
sI13
I0
sI14
I0
sI15
I0
sI16
I0
sI17
I0
sI18
F0.09090909090909091
sI19
I0
sI20
I0
sI21
I0
sI22
I0
sI23
I0
sI24
I0
sI25
I0
sI26
I0
sI27
I0
sI28
I0
sI29
F0.09090909090909091
sI30
I0
sI31
I0
sI32
I0
sI33
F0.07142857142857142
sI34
I0
sI35
I0
sI36
I0
sI37
I0
sI38
I0
sI39
I0
sI40
I0
sI41
I0
sI42
I0
sI43
I0
sI44
I0
sI45
I0
sI46
I0
sI47
I0
sI48
I0
sI49
I0
sI50
I0
sI51
I0
sI52
F0.08333333333333333
sI53
I0
sI54
I0
sI55
I0
sI56
I0
sI57
I0
sI58
I0
sI59
I0
sI60
I0
sI61
I0
sI62
I0
sI63
I0
sI64
I0
sI65
I0
sI66
I0
sI67
I0
sI68
I0
sI69
I0
sI70
I0
sI71
I0
sI72
I0
sI73
I0
sI74
I0
sI75
I0
sI76
I0
sI77
I0
sI78
I0
sI79
I0
sI80
F0.07692307692307693
sI81
I0
sI82
I0
sI83
I0
sI84
I0
sI85
I0
sI86
I0
sI87
F0.09090909090909091
sI88
I0
sI89
I0
sI90
I0
sI91
I0
sI92
I0
sI93
I0
sI94
I0
sI95
I0
sI96
I0
sI97
I0
sI98
I0
sI99
I0
sI100
I0
sI101
I0
sI102
I0
sI103
I0
sI104
F0.07142857142857142
sI105
F0.1
sI106
I0
sI107
I0
sI108
I0
sI109
I0
sI110
I0
sI111
I0
sI112
I0
ssI33
(dp33
I1
I0
sI2
I0
sI3
I0
sI4
I0
sI5
F0.0625
sI6
I0
sI7
F0.058823529411764705
sI8
I0
sI9
I0
sI10
I0
sI11
I0
sI12
I0
sI13
I0
sI14
I0
sI15
I0
sI16
F0.06666666666666667
sI17
I0
sI18
F0.08333333333333333
sI19
I0
sI20
I0
sI21
I0
sI22
I0
sI23
I0
sI24
I0
sI25
I0
sI26
I0
sI27
I0
sI28
I0
sI29
F0.08333333333333333
sI30
I0
sI31
I0
sI32
F0.07142857142857142
sI33
I0
sI34
I0
sI35
I0
sI36
I0
sI37
I0
sI38
I0
sI39
I0
sI40
I0
sI41
I0
sI42
I0
sI43
I0
sI44
I0
sI45
I0
sI46
I0
sI47
I0
sI48
I0
sI49
I0
sI50
I0
sI51
I0
sI52
F0.07692307692307693
sI53
F0.058823529411764705
sI54
I0
sI55
I0
sI56
I0
sI57
I0
sI58
I0
sI59
I0
sI60
I0
sI61
I0
sI62
I0
sI63
I0
sI64
I0
sI65
I0
sI66
I0
sI67
I0
sI68
I0
sI69
I0
sI70
I0
sI71
F0.0625
sI72
I0
sI73
I0
sI74
I0
sI75
I0
sI76
I0
sI77
I0
sI78
I0
sI79
I0
sI80
I0
sI81
I0
sI82
I0
sI83
I0
sI84
I0
sI85
I0
sI86
I0
sI87
I0
sI88
I0
sI89
I0
sI90
I0
sI91
I0
sI92
I0
sI93
I0
sI94
I0
sI95
I0
sI96
I0
sI97
I0
sI98
I0
sI99
I0
sI100
I0
sI101
F0.07142857142857142
sI102
I0
sI103
I0
sI104
I0
sI105
I0
sI106
I0
sI107
I0
sI108
I0
sI109
I0
sI110
I0
sI111
I0
sI112
I0
ssI34
(dp34
I1
I0
sI2
I0
sI3
I0
sI4
I0
sI5
I0
sI6
I0
sI7
I0
sI8
I0
sI9
I0
sI10
I0
sI11
I0
sI12
I0
sI13
I0
sI14
I0
sI15
I0
sI16
I0
sI17
I0
sI18
I0
sI19
I0
sI20
I0
sI21
I0
sI22
I0
sI23
I0
sI24
I0
sI25
I0
sI26
I0
sI27
I0
sI28
I0
sI29
F0.07692307692307693
sI30
I0
sI31
I0
sI32
I0
sI33
I0
sI34
I0
sI35
I0
sI36
I0
sI37
I0
sI38
I0
sI39
I0
sI40
I0
sI41
I0
sI42
I0
sI43
I0
sI44
I0
sI45
I0
sI46
I0
sI47
I0
sI48
I0
sI49
I0
sI50
I0
sI51
I0
sI52
I0
sI53
I0
sI54
I0
sI55
I0
sI56
I0
sI57
I0
sI58
I0
sI59
I0
sI60
I0
sI61
I0
sI62
I0
sI63
I0
sI64
I0
sI65
I0
sI66
I0
sI67
I0
sI68
I0
sI69
I0
sI70
I0
sI71
I0
sI72
I0
sI73
I0
sI74
I0
sI75
I0
sI76
I0
sI77
I0
sI78
I0
sI79
I0
sI80
I0
sI81
I0
sI82
I0
sI83
I0
sI84
I0
sI85
F0.0625
sI86
I0
sI87
I0
sI88
I0
sI89
I0
sI90
I0
sI91
I0
sI92
I0
sI93
I0
sI94
I0
sI95
I0
sI96
I0
sI97
I0
sI98
I0
sI99
I0
sI100
I0
sI101
I0
sI102
I0
sI103
I0
sI104
I0
sI105
F0.08333333333333333
sI106
I0
sI107
I0
sI108
F0.07142857142857142
sI109
I0
sI110
I0
sI111
I0
sI112
I0
ssI35
(dp35
I1
I0
sI2
I0
sI3
F0.09090909090909091
sI4
I0
sI5
I0
sI6
I0
sI7
I0
sI8
I0
sI9
I0
sI10
I0
sI11
I0
sI12
I0
sI13
I0
sI14
I0
sI15
I0
sI16
I0
sI17
I0
sI18
F0.09090909090909091
sI19
F0.16666666666666666
sI20
I0
sI21
I0
sI22
I0
sI23
I0
sI24
I0
sI25
I0
sI26
I0
sI27
I0
sI28
I0
sI29
F0.09090909090909091
sI30
I0
sI31
I0
sI32
I0
sI33
I0
sI34
I0
sI35
I0
sI36
I0
sI37
I0
sI38
I0
sI39
I0
sI40
I0
sI41
I0
sI42
I0
sI43
I0
sI44
I0
sI45
I0
sI46
I0
sI47
I0
sI48
I0
sI49
I0
sI50
I0
sI51
I0
sI52
F0.08333333333333333
sI53
I0
sI54
I0
sI55
I0
sI56
I0
sI57
I0
sI58
I0
sI59
I0
sI60
I0
sI61
I0
sI62
I0
sI63
I0
sI64
I0
sI65
I0
sI66
I0
sI67
I0
sI68
I0
sI69
I0
sI70
I0
sI71
I0
sI72
I0
sI73
I0
sI74
I0
sI75
I0
sI76
I0
sI77
I0
sI78
I0
sI79
I0
sI80
I0
sI81
I0
sI82
I0
sI83
I0
sI84
I0
sI85
I0
sI86
I0
sI87
I0
sI88
I0
sI89
I0
sI90
I0
sI91
I0
sI92
I0
sI93
I0
sI94
I0
sI95
I0
sI96
I0
sI97
I0
sI98
I0
sI99
I0
sI100
I0
sI101
I0
sI102
I0
sI103
I0
sI104
I0
sI105
I0
sI106
I0
sI107
I0
sI108
F0.08333333333333333
sI109
I0
sI110
I0
sI111
I0
sI112
I0
ssI36
(dp36
I1
I0
sI2
I0
sI3
I0
sI4
I0
sI5
I0
sI6
I0
sI7
I0
sI8
I0
sI9
I0
sI10
I0
sI11
I0
sI12
I0
sI13
I0
sI14
I0
sI15
I0
sI16
I0
sI17
I0
sI18
F0.1111111111111111
sI19
I0
sI20
I0
sI21
I0
sI22
I0
sI23
I0
sI24
I0
sI25
I0
sI26
I0
sI27
I0
sI28
I0
sI29
F0.1111111111111111
sI30
I0
sI31
I0
sI32
I0
sI33
I0
sI34
I0
sI35
I0
sI36
I0
sI37
I0
sI38
I0
sI39
I0
sI40
I0
sI41
I0
sI42
I0
sI43
I0
sI44
I0
sI45
I0
sI46
I0
sI47
I0
sI48
I0
sI49
F0.08333333333333333
sI50
I0
sI51
I0
sI52
F0.1
sI53
I0
sI54
I0
sI55
I0
sI56
I0
sI57
I0
sI58
I0
sI59
I0
sI60
I0
sI61
I0
sI62
I0
sI63
I0
sI64
I0
sI65
I0
sI66
I0
sI67
I0
sI68
I0
sI69
I0
sI70
I0
sI71
I0
sI72
I0
sI73
I0
sI74
I0
sI75
I0
sI76
I0
sI77
I0
sI78
I0
sI79
I0
sI80
I0
sI81
I0
sI82
I0
sI83
I0
sI84
I0
sI85
I0
sI86
I0
sI87
I0
sI88
I0
sI89
I0
sI90
I0
sI91
I0
sI92
I0
sI93
I0
sI94
I0
sI95
I0
sI96
I0
sI97
I0
sI98
I0
sI99
I0
sI100
I0
sI101
I0
sI102
I0
sI103
I0
sI104
I0
sI105
F0.08333333333333333
sI106
I0
sI107
I0
sI108
I0
sI109
I0
sI110
I0
sI111
I0
sI112
I0
ssI37
(dp37
I1
I0
sI2
I0
sI3
F0.06666666666666667
sI4
I0
sI5
I0
sI6
I0
sI7
I0
sI8
I0
sI9
I0
sI10
I0
sI11
I0
sI12
I0
sI13
I0
sI14
F0.058823529411764705
sI15
I0
sI16
I0
sI17
I0
sI18
F0.06666666666666667
sI19
I0
sI20
I0
sI21
I0
sI22
I0
sI23
I0
sI24
I0
sI25
F0.14285714285714285
sI26
I0
sI27
I0
sI28
I0
sI29
I0
sI30
I0
sI31
I0
sI32
I0
sI33
I0
sI34
I0
sI35
I0
sI36
I0
sI37
I0
sI38
I0
sI39
I0
sI40
I0
sI41
I0
sI42
I0
sI43
I0
sI44
I0
sI45
I0
sI46
I0
sI47
I0
sI48
I0
sI49
I0
sI50
I0
sI51
I0
sI52
I0
sI53
I0
sI54
I0
sI55
I0
sI56
F0.08333333333333333
sI57
I0
sI58
I0
sI59
I0
sI60
I0
sI61
I0
sI62
I0
sI63
I0
sI64
I0
sI65
I0
sI66
I0
sI67
I0
sI68
I0
sI69
I0
sI70
I0
sI71
I0
sI72
I0
sI73
I0
sI74
I0
sI75
I0
sI76
I0
sI77
I0
sI78
I0
sI79
I0
sI80
I0
sI81
I0
sI82
I0
sI83
I0
sI84
I0
sI85
I0
sI86
I0
sI87
I0
sI88
F0.07692307692307693
sI89
I0
sI90
I0
sI91
I0
sI92
I0
sI93
I0
sI94
I0
sI95
I0
sI96
I0
sI97
I0
sI98
I0
sI99
I0
sI100
I0
sI101
I0
sI102
I0
sI103
I0
sI104
I0
sI105
I0
sI106
I0
sI107
I0
sI108
I0
sI109
I0
sI110
I0
sI111
I0
sI112
I0
ssI38
(dp38
I1
I0
sI2
I0
sI3
I0
sI4
I0
sI5
I0
sI6
I0
sI7
I0
sI8
F0.07142857142857142
sI9
I0
sI10
I0
sI11
I0
sI12
I0
sI13
I0
sI14
F0.06666666666666667
sI15
I0
sI16
I0
sI17
I0
sI18
F0.07692307692307693
sI19
I0
sI20
I0
sI21
I0
sI22
I0
sI23
I0
sI24
I0
sI25
I0
sI26
I0
sI27
I0
sI28
I0
sI29
I0
sI30
I0
sI31
I0
sI32
I0
sI33
I0
sI34
I0
sI35
I0
sI36
I0
sI37
I0
sI38
I0
sI39
I0
sI40
I0
sI41
I0
sI42
I0
sI43
I0
sI44
I0
sI45
I0
sI46
I0
sI47
I0
sI48
F0.07692307692307693
sI49
I0
sI50
I0
sI51
I0
sI52
I0
sI53
I0
sI54
I0
sI55
I0
sI56
I0
sI57
I0
sI58
F0.07692307692307693
sI59
F0.07142857142857142
sI60
F0.09090909090909091
sI61
I0
sI62
I0
sI63
I0
sI64
I0
sI65
I0
sI66
I0
sI67
I0
sI68
I0
sI69
I0
sI70
I0
sI71
I0
sI72
I0
sI73
F0.06666666666666667
sI74
I0
sI75
I0
sI76
I0
sI77
I0
sI78
I0
sI79
I0
sI80
I0
sI81
I0
sI82
I0
sI83
I0
sI84
I0
sI85
I0
sI86
I0
sI87
I0
sI88
I0
sI89
I0
sI90
I0
sI91
I0
sI92
I0
sI93
I0
sI94
I0
sI95
I0
sI96
I0
sI97
I0
sI98
I0
sI99
I0
sI100
I0
sI101
I0
sI102
I0
sI103
I0
sI104
F0.0625
sI105
I0
sI106
I0
sI107
I0
sI108
I0
sI109
I0
sI110
I0
sI111
I0
sI112
I0
ssI39
(dp39
I1
I0
sI2
I0
sI3
I0
sI4
I0
sI5
I0
sI6
I0
sI7
I0
sI8
I0
sI9
I0
sI10
I0
sI11
I0
sI12
I0
sI13
I0
sI14
I0
sI15
I0
sI16
I0
sI17
I0
sI18
I0
sI19
I0
sI20
I0
sI21
I0
sI22
I0
sI23
I0
sI24
I0
sI25
I0
sI26
I0
sI27
I0
sI28
I0
sI29
I0
sI30
I0
sI31
I0
sI32
I0
sI33
I0
sI34
I0
sI35
I0
sI36
I0
sI37
I0
sI38
I0
sI39
I0
sI40
I0
sI41
I0
sI42
I0
sI43
I0
sI44
I0
sI45
I0
sI46
I0
sI47
I0
sI48
I0
sI49
I0
sI50
I0
sI51
I0
sI52
I0
sI53
I0
sI54
I0
sI55
I0
sI56
I0
sI57
I0
sI58
I0
sI59
I0
sI60
I0
sI61
I0
sI62
I0
sI63
I0
sI64
I0
sI65
I0
sI66
I0
sI67
I0
sI68
I0
sI69
I0
sI70
I0
sI71
I0
sI72
I0
sI73
I0
sI74
I0
sI75
I0
sI76
I0
sI77
I0
sI78
I0
sI79
I0
sI80
I0
sI81
I0
sI82
I0
sI83
I0
sI84
I0
sI85
I0
sI86
I0
sI87
I0
sI88
I0
sI89
I0
sI90
I0
sI91
I0
sI92
I0
sI93
I0
sI94
I0
sI95
I0
sI96
I0
sI97
I0
sI98
I0
sI99
I0
sI100
I0
sI101
I0
sI102
I0
sI103
I0
sI104
I0
sI105
I0
sI106
I0
sI107
I0
sI108
I0
sI109
I0
sI110
I0
sI111
I0
sI112
I0
ssI40
(dp40
I1
I0
sI2
I0
sI3
I0
sI4
I0
sI5
F0.07142857142857142
sI6
I0
sI7
I0
sI8
I0
sI9
F0.09090909090909091
sI10
I0
sI11
I0
sI12
I0
sI13
I0
sI14
I0
sI15
I0
sI16
I0
sI17
I0
sI18
I0
sI19
I0
sI20
I0
sI21
I0
sI22
I0
sI23
I0
sI24
I0
sI25
I0
sI26
I0
sI27
I0
sI28
I0
sI29
I0
sI30
I0
sI31
I0
sI32
I0
sI33
I0
sI34
I0
sI35
I0
sI36
I0
sI37
I0
sI38
I0
sI39
I0
sI40
I0
sI41
I0
sI42
I0
sI43
I0
sI44
I0
sI45
I0
sI46
I0
sI47
I0
sI48
I0
sI49
I0
sI50
I0
sI51
I0
sI52
I0
sI53
I0
sI54
I0
sI55
I0
sI56
I0
sI57
I0
sI58
I0
sI59
I0
sI60
I0
sI61
I0
sI62
I0
sI63
I0
sI64
I0
sI65
I0
sI66
I0
sI67
I0
sI68
I0
sI69
I0
sI70
I0
sI71
I0
sI72
I0
sI73
I0
sI74
I0
sI75
I0
sI76
I0
sI77
I0
sI78
I0
sI79
I0
sI80
I0
sI81
I0
sI82
I0
sI83
I0
sI84
I0
sI85
I0
sI86
I0
sI87
I0
sI88
I0
sI89
I0
sI90
I0
sI91
I0
sI92
I0
sI93
I0
sI94
I0
sI95
I0
sI96
I0
sI97
I0
sI98
I0
sI99
I0
sI100
I0
sI101
I0
sI102
I0
sI103
I0
sI104
F0.058823529411764705
sI105
I0
sI106
I0
sI107
I0
sI108
I0
sI109
I0
sI110
I0
sI111
I0
sI112
I0
ssI41
(dp41
I1
I0
sI2
I0
sI3
I0
sI4
I0
sI5
I0
sI6
I0
sI7
I0
sI8
I0
sI9
F0.1
sI10
I0
sI11
I0
sI12
F0.09090909090909091
sI13
I0
sI14
I0
sI15
I0
sI16
I0
sI17
I0
sI18
I0
sI19
I0
sI20
I0
sI21
I0
sI22
I0
sI23
I0
sI24
I0
sI25
I0
sI26
I0
sI27
I0
sI28
I0
sI29
I0
sI30
I0
sI31
I0
sI32
I0
sI33
I0
sI34
I0
sI35
I0
sI36
I0
sI37
I0
sI38
I0
sI39
I0
sI40
I0
sI41
I0
sI42
I0
sI43
I0
sI44
I0
sI45
I0
sI46
I0
sI47
I0
sI48
I0
sI49
I0
sI50
I0
sI51
I0
sI52
I0
sI53
I0
sI54
I0
sI55
I0
sI56
I0
sI57
I0
sI58
I0
sI59
I0
sI60
I0
sI61
I0
sI62
I0
sI63
I0
sI64
I0
sI65
I0
sI66
I0
sI67
I0
sI68
I0
sI69
I0
sI70
I0
sI71
I0
sI72
I0
sI73
I0
sI74
I0
sI75
I0
sI76
I0
sI77
I0
sI78
I0
sI79
I0
sI80
I0
sI81
I0
sI82
I0
sI83
I0
sI84
I0
sI85
I0
sI86
I0
sI87
I0
sI88
I0
sI89
I0
sI90
I0
sI91
I0
sI92
I0
sI93
I0
sI94
I0
sI95
I0
sI96
I0
sI97
I0
sI98
I0
sI99
I0
sI100
I0
sI101
I0
sI102
I0
sI103
I0
sI104
I0
sI105
I0
sI106
I0
sI107
I0
sI108
I0
sI109
I0
sI110
I0
sI111
I0
sI112
I0
ssI42
(dp42
I1
I0
sI2
I0
sI3
I0
sI4
I0
sI5
I0
sI6
I0
sI7
I0
sI8
I0
sI9
I0
sI10
I0
sI11
I0
sI12
I0
sI13
I0
sI14
I0
sI15
I0
sI16
I0
sI17
I0
sI18
I0
sI19
I0
sI20
I0
sI21
I0
sI22
I0
sI23
I0
sI24
I0
sI25
I0
sI26
I0
sI27
I0
sI28
I0
sI29
I0
sI30
I0
sI31
I0
sI32
I0
sI33
I0
sI34
I0
sI35
I0
sI36
I0
sI37
I0
sI38
I0
sI39
I0
sI40
I0
sI41
I0
sI42
I0
sI43
I0
sI44
I0
sI45
I0
sI46
I0
sI47
I0
sI48
I0
sI49
I0
sI50
I0
sI51
I0
sI52
I0
sI53
I0
sI54
I0
sI55
I0
sI56
I0
sI57
I0
sI58
I0
sI59
I0
sI60
I0
sI61
I0
sI62
I0
sI63
I0
sI64
I0
sI65
I0
sI66
I0
sI67
I0
sI68
I0
sI69
I0
sI70
I0
sI71
I0
sI72
I0
sI73
I0
sI74
I0
sI75
I0
sI76
I0
sI77
I0
sI78
I0
sI79
I0
sI80
I0
sI81
I0
sI82
I0
sI83
I0
sI84
I0
sI85
I0
sI86
I0
sI87
I0
sI88
I0
sI89
I0
sI90
I0
sI91
I0
sI92
I0
sI93
I0
sI94
I0
sI95
I0
sI96
I0
sI97
I0
sI98
I0
sI99
I0
sI100
I0
sI101
I0
sI102
I0
sI103
I0
sI104
I0
sI105
I0
sI106
I0
sI107
I0
sI108
I0
sI109
I0
sI110
I0
sI111
I0
sI112
I0
ssI43
(dp43
I1
I0
sI2
I0
sI3
F0.125
sI4
I0
sI5
I0
sI6
I0
sI7
I0
sI8
I0
sI9
F0.1111111111111111
sI10
I0
sI11
I0
sI12
I0
sI13
I0
sI14
I0
sI15
I0
sI16
I0
sI17
I0
sI18
I0
sI19
I0
sI20
I0
sI21
I0
sI22
I0
sI23
I0
sI24
I0
sI25
I0
sI26
I0
sI27
I0
sI28
I0
sI29
I0
sI30
I0
sI31
I0
sI32
I0
sI33
I0
sI34
I0
sI35
I0
sI36
I0
sI37
I0
sI38
I0
sI39
I0
sI40
I0
sI41
I0
sI42
I0
sI43
I0
sI44
I0
sI45
I0
sI46
I0
sI47
I0
sI48
I0
sI49
I0
sI50
I0
sI51
I0
sI52
F0.1111111111111111
sI53
I0
sI54
I0
sI55
I0
sI56
I0
sI57
I0
sI58
I0
sI59
I0
sI60
I0
sI61
I0
sI62
I0
sI63
I0
sI64
I0
sI65
I0
sI66
I0
sI67
I0
sI68
I0
sI69
I0
sI70
I0
sI71
I0
sI72
I0
sI73
I0
sI74
I0
sI75
I0
sI76
I0
sI77
I0
sI78
I0
sI79
I0
sI80
F0.1
sI81
I0
sI82
I0
sI83
I0
sI84
I0
sI85
I0
sI86
I0
sI87
I0
sI88
I0
sI89
I0
sI90
I0
sI91
F0.14285714285714285
sI92
I0
sI93
I0
sI94
I0
sI95
I0
sI96
I0
sI97
I0
sI98
I0
sI99
I0
sI100
I0
sI101
I0
sI102
I0
sI103
I0
sI104
I0
sI105
I0
sI106
I0
sI107
I0
sI108
I0
sI109
I0
sI110
I0
sI111
I0
sI112
I0
ssI44
(dp44
I1
I0
sI2
I0
sI3
I0
sI4
I0
sI5
I0
sI6
I0
sI7
I0
sI8
I0
sI9
I0
sI10
I0
sI11
I0
sI12
I0
sI13
I0
sI14
I0
sI15
I0
sI16
I0
sI17
I0
sI18
I0
sI19
I0
sI20
I0
sI21
I0
sI22
I0
sI23
I0
sI24
I0
sI25
I0
sI26
I0
sI27
I0
sI28
I0
sI29
I0
sI30
I0
sI31
I0
sI32
I0
sI33
I0
sI34
I0
sI35
I0
sI36
I0
sI37
I0
sI38
I0
sI39
I0
sI40
I0
sI41
I0
sI42
I0
sI43
I0
sI44
I0
sI45
I0
sI46
I0
sI47
I0
sI48
I0
sI49
I0
sI50
I0
sI51
I0
sI52
I0
sI53
I0
sI54
I0
sI55
I0
sI56
I0
sI57
I0
sI58
I0
sI59
I0
sI60
I0
sI61
I0
sI62
I0
sI63
I0
sI64
I0
sI65
I0
sI66
I0
sI67
I0
sI68
I0
sI69
I0
sI70
I0
sI71
I0
sI72
I0
sI73
I0
sI74
I0
sI75
I0
sI76
I0
sI77
I0
sI78
I0
sI79
I0
sI80
I0
sI81
I0
sI82
I0
sI83
I0
sI84
I0
sI85
I0
sI86
I0
sI87
I0
sI88
I0
sI89
I0
sI90
I0
sI91
I0
sI92
I0
sI93
I0
sI94
I0
sI95
I0
sI96
I0
sI97
I0
sI98
I0
sI99
NsI100
I0
sI101
I0
sI102
I0
sI103
I0
sI104
I0
sI105
I0
sI106
I0
sI107
I0
sI108
I0
sI109
I0
sI110
I0
sI111
I0
sI112
I0
ssI45
(dp45
I1
I0
sI2
I0
sI3
I0
sI4
I0
sI5
I0
sI6
I0
sI7
I0
sI8
I0
sI9
I0
sI10
I0
sI11
I0
sI12
I0
sI13
I0
sI14
I0
sI15
I0
sI16
I0
sI17
I0
sI18
F0.09090909090909091
sI19
F0.16666666666666666
sI20
I0
sI21
I0
sI22
I0
sI23
I0
sI24
I0
sI25
I0
sI26
I0
sI27
I0
sI28
I0
sI29
F0.09090909090909091
sI30
I0
sI31
I0
sI32
I0
sI33
I0
sI34
I0
sI35
I0
sI36
I0
sI37
I0
sI38
I0
sI39
I0
sI40
I0
sI41
I0
sI42
I0
sI43
I0
sI44
I0
sI45
I0
sI46
I0
sI47
I0
sI48
I0
sI49
I0
sI50
I0
sI51
F0.2
sI52
I0
sI53
I0
sI54
I0
sI55
I0
sI56
I0
sI57
I0
sI58
I0
sI59
I0
sI60
I0
sI61
I0
sI62
I0
sI63
I0
sI64
I0
sI65
I0
sI66
I0
sI67
I0
sI68
I0
sI69
I0
sI70
I0
sI71
I0
sI72
I0
sI73
I0
sI74
I0
sI75
I0
sI76
I0
sI77
I0
sI78
I0
sI79
I0
sI80
I0
sI81
I0
sI82
I0
sI83
I0
sI84
I0
sI85
I0
sI86
I0
sI87
I0
sI88
I0
sI89
I0
sI90
I0
sI91
I0
sI92
I0
sI93
I0
sI94
I0
sI95
I0
sI96
I0
sI97
I0
sI98
I0
sI99
I0
sI100
I0
sI101
I0
sI102
I0
sI103
F0.1
sI104
I0
sI105
I0
sI106
I0
sI107
I0
sI108
I0
sI109
I0
sI110
I0
sI111
I0
sI112
I0
ssI46
(dp46
I1
I0
sI2
I0
sI3
I0
sI4
I0
sI5
I0
sI6
I0
sI7
I0
sI8
I0
sI9
I0
sI10
I0
sI11
I0
sI12
I0
sI13
I0
sI14
I0
sI15
I0
sI16
I0
sI17
I0
sI18
I0
sI19
I0
sI20
I0
sI21
I0
sI22
I0
sI23
I0
sI24
I0
sI25
I0
sI26
I0
sI27
I0
sI28
I0
sI29
I0
sI30
I0
sI31
I0
sI32
I0
sI33
I0
sI34
I0
sI35
I0
sI36
I0
sI37
I0
sI38
I0
sI39
I0
sI40
I0
sI41
I0
sI42
I0
sI43
I0
sI44
I0
sI45
I0
sI46
I0
sI47
I0
sI48
I0
sI49
I0
sI50
I0
sI51
I0
sI52
I0
sI53
I0
sI54
I0
sI55
I0
sI56
I0
sI57
I0
sI58
I0
sI59
I0
sI60
I0
sI61
I0
sI62
I0
sI63
I0
sI64
I0
sI65
I0
sI66
I0
sI67
I0
sI68
I0
sI69
I0
sI70
I0
sI71
I0
sI72
I0
sI73
I0
sI74
I0
sI75
I0
sI76
I0
sI77
I0
sI78
I0
sI79
I0
sI80
I0
sI81
I0
sI82
I0
sI83
I0
sI84
I0
sI85
I0
sI86
I0
sI87
I0
sI88
I0
sI89
I0
sI90
I0
sI91
I0
sI92
I0
sI93
I0
sI94
I0
sI95
I0
sI96
I0
sI97
I0
sI98
I0
sI99
I0
sI100
I0
sI101
I0
sI102
I0
sI103
I0
sI104
I0
sI105
I0
sI106
I0
sI107
I0
sI108
I0
sI109
I0
sI110
I0
sI111
I0
sI112
I0
ssI47
(dp47
I1
F0.09090909090909091
sI2
I0
sI3
I0
sI4
I0
sI5
I0
sI6
I0
sI7
I0
sI8
I0
sI9
I0
sI10
I0
sI11
I0
sI12
I0
sI13
I0
sI14
I0
sI15
I0
sI16
I0
sI17
I0
sI18
I0
sI19
I0
sI20
I0
sI21
I0
sI22
I0
sI23
I0
sI24
I0
sI25
I0
sI26
F0.07692307692307693
sI27
I0
sI28
I0
sI29
I0
sI30
I0
sI31
I0
sI32
I0
sI33
I0
sI34
I0
sI35
I0
sI36
I0
sI37
I0
sI38
I0
sI39
I0
sI40
I0
sI41
I0
sI42
I0
sI43
I0
sI44
I0
sI45
I0
sI46
I0
sI47
I0
sI48
I0
sI49
I0
sI50
I0
sI51
I0
sI52
I0
sI53
I0
sI54
I0
sI55
I0
sI56
I0
sI57
I0
sI58
I0
sI59
I0
sI60
I0
sI61
I0
sI62
I0
sI63
I0
sI64
I0
sI65
I0
sI66
I0
sI67
I0
sI68
I0
sI69
I0
sI70
I0
sI71
I0
sI72
I0
sI73
I0
sI74
I0
sI75
I0
sI76
I0
sI77
I0
sI78
I0
sI79
I0
sI80
I0
sI81
I0
sI82
I0
sI83
I0
sI84
I0
sI85
I0
sI86
I0
sI87
I0
sI88
I0
sI89
I0
sI90
I0
sI91
I0
sI92
I0
sI93
I0
sI94
I0
sI95
I0
sI96
I0
sI97
I0
sI98
I0
sI99
I0
sI100
I0
sI101
I0
sI102
I0
sI103
I0
sI104
I0
sI105
F0.08333333333333333
sI106
I0
sI107
I0
sI108
I0
sI109
I0
sI110
I0
sI111
I0
sI112
I0
ssI48
(dp48
I1
I0
sI2
I0
sI3
I0
sI4
I0
sI5
I0
sI6
I0
sI7
I0
sI8
I0
sI9
I0
sI10
I0
sI11
I0
sI12
I0
sI13
I0
sI14
I0
sI15
I0
sI16
I0
sI17
I0
sI18
I0
sI19
I0
sI20
I0
sI21
I0
sI22
I0
sI23
I0
sI24
F0.14285714285714285
sI25
F0.07692307692307693
sI26
I0
sI27
I0
sI28
I0
sI29
I0
sI30
I0
sI31
I0
sI32
I0
sI33
I0
sI34
I0
sI35
I0
sI36
I0
sI37
I0
sI38
F0.07692307692307693
sI39
I0
sI40
I0
sI41
I0
sI42
I0
sI43
I0
sI44
I0
sI45
I0
sI46
I0
sI47
I0
sI48
I0
sI49
F0.08333333333333333
sI50
F0.1111111111111111
sI51
I0
sI52
I0
sI53
I0
sI54
I0
sI55
I0
sI56
I0
sI57
I0
sI58
I0
sI59
I0
sI60
I0
sI61
I0
sI62
I0
sI63
I0
sI64
I0
sI65
I0
sI66
I0
sI67
I0
sI68
I0
sI69
I0
sI70
I0
sI71
I0
sI72
I0
sI73
I0
sI74
I0
sI75
I0
sI76
I0
sI77
I0
sI78
I0
sI79
I0
sI80
I0
sI81
I0
sI82
I0
sI83
I0
sI84
I0
sI85
I0
sI86
I0
sI87
I0
sI88
I0
sI89
I0
sI90
I0
sI91
I0
sI92
I0
sI93
I0
sI94
I0
sI95
I0
sI96
I0
sI97
I0
sI98
I0
sI99
I0
sI100
I0
sI101
I0
sI102
I0
sI103
I0
sI104
I0
sI105
I0
sI106
I0
sI107
I0
sI108
I0
sI109
I0
sI110
I0
sI111
I0
sI112
I0
ssI49
(dp49
I1
I0
sI2
I0
sI3
I0
sI4
I0
sI5
I0
sI6
I0
sI7
I0
sI8
I0
sI9
I0
sI10
I0
sI11
I0
sI12
I0
sI13
I0
sI14
I0
sI15
I0
sI16
F0.06666666666666667
sI17
I0
sI18
I0
sI19
I0
sI20
I0
sI21
I0
sI22
F0.07692307692307693
sI23
I0
sI24
I0
sI25
I0
sI26
F0.08333333333333333
sI27
I0
sI28
I0
sI29
I0
sI30
I0
sI31
I0
sI32
I0
sI33
I0
sI34
I0
sI35
I0
sI36
F0.08333333333333333
sI37
I0
sI38
I0
sI39
I0
sI40
I0
sI41
I0
sI42
I0
sI43
I0
sI44
I0
sI45
I0
sI46
I0
sI47
I0
sI48
F0.08333333333333333
sI49
I0
sI50
I0
sI51
F0.07142857142857142
sI52
I0
sI53
I0
sI54
I0
sI55
I0
sI56
I0
sI57
I0
sI58
I0
sI59
I0
sI60
I0
sI61
I0
sI62
I0
sI63
I0
sI64
I0
sI65
I0
sI66
I0
sI67
I0
sI68
I0
sI69
I0
sI70
I0
sI71
I0
sI72
I0
sI73
I0
sI74
I0
sI75
I0
sI76
I0
sI77
I0
sI78
I0
sI79
I0
sI80
I0
sI81
I0
sI82
I0
sI83
I0
sI84
I0
sI85
I0
sI86
I0
sI87
I0
sI88
I0
sI89
I0
sI90
I0
sI91
I0
sI92
I0
sI93
I0
sI94
I0
sI95
I0
sI96
I0
sI97
I0
sI98
I0
sI99
I0
sI100
I0
sI101
I0
sI102
I0
sI103
I0
sI104
I0
sI105
F0.06666666666666667
sI106
I0
sI107
I0
sI108
I0
sI109
I0
sI110
I0
sI111
I0
sI112
I0
ssI50
(dp50
I1
I0
sI2
I0
sI3
I0
sI4
I0
sI5
I0
sI6
I0
sI7
I0
sI8
I0
sI9
I0
sI10
I0
sI11
I0
sI12
I0
sI13
I0
sI14
I0
sI15
I0
sI16
I0
sI17
I0
sI18
I0
sI19
I0
sI20
I0
sI21
I0
sI22
I0
sI23
I0
sI24
I0
sI25
F0.07692307692307693
sI26
I0
sI27
I0
sI28
I0
sI29
I0
sI30
I0
sI31
I0
sI32
I0
sI33
I0
sI34
I0
sI35
I0
sI36
I0
sI37
I0
sI38
I0
sI39
I0
sI40
I0
sI41
I0
sI42
I0
sI43
I0
sI44
I0
sI45
I0
sI46
I0
sI47
I0
sI48
F0.1111111111111111
sI49
I0
sI50
I0
sI51
I0
sI52
F0.1
sI53
I0
sI54
I0
sI55
I0
sI56
I0
sI57
I0
sI58
I0
sI59
I0
sI60
F0.09090909090909091
sI61
I0
sI62
I0
sI63
I0
sI64
I0
sI65
I0
sI66
I0
sI67
I0
sI68
I0
sI69
I0
sI70
I0
sI71
I0
sI72
I0
sI73
I0
sI74
I0
sI75
I0
sI76
I0
sI77
I0
sI78
I0
sI79
I0
sI80
I0
sI81
I0
sI82
I0
sI83
I0
sI84
I0
sI85
I0
sI86
I0
sI87
I0
sI88
I0
sI89
I0
sI90
I0
sI91
I0
sI92
I0
sI93
I0
sI94
I0
sI95
I0
sI96
I0
sI97
I0
sI98
I0
sI99
I0
sI100
I0
sI101
I0
sI102
I0
sI103
I0
sI104
I0
sI105
I0
sI106
I0
sI107
I0
sI108
I0
sI109
I0
sI110
I0
sI111
I0
sI112
I0
ssI51
(dp51
I1
I0
sI2
I0
sI3
F0.09090909090909091
sI4
I0
sI5
I0
sI6
I0
sI7
I0
sI8
I0
sI9
I0
sI10
I0
sI11
F0.1
sI12
I0
sI13
F0.2
sI14
I0
sI15
I0
sI16
I0
sI17
I0
sI18
F0.09090909090909091
sI19
F0.16666666666666666
sI20
I0
sI21
I0
sI22
F0.25
sI23
I0
sI24
I0
sI25
I0
sI26
I0
sI27
I0
sI28
I0
sI29
I0
sI30
I0
sI31
I0
sI32
I0
sI33
I0
sI34
I0
sI35
I0
sI36
I0
sI37
I0
sI38
I0
sI39
I0
sI40
I0
sI41
I0
sI42
I0
sI43
I0
sI44
I0
sI45
F0.2
sI46
I0
sI47
I0
sI48
I0
sI49
F0.07142857142857142
sI50
I0
sI51
I0
sI52
F0.08333333333333333
sI53
F0.08333333333333333
sI54
F0.1111111111111111
sI55
I0
sI56
I0
sI57
I0
sI58
I0
sI59
I0
sI60
I0
sI61
I0
sI62
I0
sI63
I0
sI64
I0
sI65
I0
sI66
I0
sI67
I0
sI68
I0
sI69
I0
sI70
I0
sI71
I0
sI72
I0
sI73
I0
sI74
I0
sI75
I0
sI76
I0
sI77
I0
sI78
I0
sI79
I0
sI80
I0
sI81
I0
sI82
I0
sI83
I0
sI84
I0
sI85
I0
sI86
I0
sI87
I0
sI88
I0
sI89
I0
sI90
I0
sI91
I0
sI92
I0
sI93
I0
sI94
I0
sI95
I0
sI96
I0
sI97
I0
sI98
I0
sI99
I0
sI100
I0
sI101
I0
sI102
I0
sI103
F0.1
sI104
I0
sI105
F0.16666666666666666
sI106
I0
sI107
I0
sI108
I0
sI109
I0
sI110
I0
sI111
I0
sI112
I0
ssI52
(dp52
I1
F0.08333333333333333
sI2
I0
sI3
F0.125
sI4
F0.1
sI5
I0
sI6
I0
sI7
F0.06666666666666667
sI8
F0.06666666666666667
sI9
I0
sI10
I0
sI11
I0
sI12
I0
sI13
I0
sI14
I0
sI15
I0
sI16
I0
sI17
I0
sI18
F0.1
sI19
F0.07142857142857142
sI20
I0
sI21
I0
sI22
F0.09090909090909091
sI23
I0
sI24
F0.125
sI25
I0
sI26
F0.125
sI27
F0.09090909090909091
sI28
I0
sI29
I0
sI30
I0
sI31
F0.1111111111111111
sI32
F0.08333333333333333
sI33
F0.07692307692307693
sI34
I0
sI35
F0.08333333333333333
sI36
F0.1
sI37
I0
sI38
I0
sI39
I0
sI40
I0
sI41
I0
sI42
I0
sI43
F0.1111111111111111
sI44
I0
sI45
I0
sI46
I0
sI47
I0
sI48
I0
sI49
I0
sI50
F0.1
sI51
F0.08333333333333333
sI52
I0
sI53
I0
sI54
I0
sI55
I0
sI56
I0
sI57
I0
sI58
F0.1
sI59
I0
sI60
F0.08333333333333333
sI61
I0
sI62
I0
sI63
I0
sI64
I0
sI65
I0
sI66
I0
sI67
F0.07692307692307693
sI68
F0.1
sI69
I0
sI70
I0
sI71
I0
sI72
I0
sI73
I0
sI74
I0
sI75
I0
sI76
I0
sI77
I0
sI78
I0
sI79
I0
sI80
I0
sI81
I0
sI82
I0
sI83
I0
sI84
I0
sI85
I0
sI86
I0
sI87
I0
sI88
I0
sI89
I0
sI90
I0
sI91
I0
sI92
I0
sI93
I0
sI94
I0
sI95
I0
sI96
I0
sI97
I0
sI98
I0
sI99
I0
sI100
I0
sI101
I0
sI102
F0.08333333333333333
sI103
I0
sI104
I0
sI105
I0
sI106
I0
sI107
I-1
sI108
I0
sI109
I0
sI110
I0
sI111
I0
sI112
I0
ssI53
(dp53
I1
I0
sI2
I0
sI3
I0
sI4
I0
sI5
I0
sI6
I0
sI7
F0.06666666666666667
sI8
I0
sI9
I0
sI10
I0
sI11
I0
sI12
I0
sI13
I0
sI14
I0
sI15
I0
sI16
I0
sI17
I0
sI18
F0.07142857142857142
sI19
I0
sI20
I0
sI21
I0
sI22
I0
sI23
I0
sI24
I0
sI25
I0
sI26
I0
sI27
I0
sI28
F0.07692307692307693
sI29
I0
sI30
I0
sI31
I0
sI32
I0
sI33
F0.058823529411764705
sI34
I0
sI35
I0
sI36
I0
sI37
I0
sI38
I0
sI39
I0
sI40
I0
sI41
I0
sI42
I0
sI43
I0
sI44
I0
sI45
I0
sI46
I0
sI47
I0
sI48
I0
sI49
I0
sI50
I0
sI51
F0.08333333333333333
sI52
I0
sI53
I0
sI54
I0
sI55
I0
sI56
I0
sI57
I0
sI58
I0
sI59
I0
sI60
I0
sI61
I0
sI62
I0
sI63
I0
sI64
I0
sI65
I0
sI66
I0
sI67
I0
sI68
I0
sI69
I0
sI70
I0
sI71
I0
sI72
I0
sI73
I0
sI74
I0
sI75
I0
sI76
I0
sI77
I0
sI78
I0
sI79
I0
sI80
I0
sI81
I0
sI82
I0
sI83
I0
sI84
I0
sI85
I0
sI86
I0
sI87
I0
sI88
I0
sI89
I0
sI90
I0
sI91
I0
sI92
I0
sI93
I0
sI94
I0
sI95
I0
sI96
I0
sI97
I0
sI98
I0
sI99
I0
sI100
I0
sI101
I0
sI102
I0
sI103
I0
sI104
I0
sI105
I0
sI106
I0
sI107
I0
sI108
I0
sI109
I0
sI110
I0
sI111
I0
sI112
I0
ssI54
(dp54
I1
I0
sI2
I0
sI3
I0
sI4
I0
sI5
I0
sI6
I0
sI7
I0
sI8
I0
sI9
I0
sI10
I0
sI11
I0
sI12
I0
sI13
I0
sI14
I0
sI15
I0
sI16
I0
sI17
I0
sI18
I0
sI19
F0.1
sI20
I0
sI21
I0
sI22
I0
sI23
I0
sI24
I0
sI25
I0
sI26
I0
sI27
I0
sI28
I0
sI29
I0
sI30
I0
sI31
I0
sI32
I0
sI33
I0
sI34
I0
sI35
I0
sI36
I0
sI37
I0
sI38
I0
sI39
I0
sI40
I0
sI41
I0
sI42
I0
sI43
I0
sI44
I0
sI45
I0
sI46
I0
sI47
I0
sI48
I0
sI49
I0
sI50
I0
sI51
F0.1111111111111111
sI52
I0
sI53
I0
sI54
I0
sI55
I0
sI56
I0
sI57
I0
sI58
I0
sI59
I0
sI60
I0
sI61
I0
sI62
I0
sI63
I0
sI64
I0
sI65
I0
sI66
I0
sI67
I0
sI68
I0
sI69
I0
sI70
I0
sI71
I0
sI72
I0
sI73
I0
sI74
F0.06666666666666667
sI75
I0
sI76
I0
sI77
I0
sI78
I0
sI79
I0
sI80
I0
sI81
I0
sI82
I0
sI83
I0
sI84
I0
sI85
I0
sI86
I0
sI87
I0
sI88
I0
sI89
I0
sI90
F0.06666666666666667
sI91
I0
sI92
I0
sI93
I0
sI94
I0
sI95
I0
sI96
I0
sI97
I0
sI98
I0
sI99
I0
sI100
I0
sI101
I0
sI102
I0
sI103
F0.07142857142857142
sI104
I0
sI105
I0
sI106
I0
sI107
I0
sI108
I0
sI109
I0
sI110
I0
sI111
I0
sI112
I0
ssI55
(dp55
I1
I0
sI2
I0
sI3
I0
sI4
I0
sI5
I0
sI6
I0
sI7
I0
sI8
I0
sI9
I0
sI10
I0
sI11
I0
sI12
I0
sI13
I0
sI14
I0
sI15
I0
sI16
I0
sI17
I0
sI18
I0
sI19
I0
sI20
I0
sI21
I0
sI22
I0
sI23
I0
sI24
I0
sI25
I0
sI26
I0
sI27
I0
sI28
I0
sI29
I0
sI30
I0
sI31
I0
sI32
I0
sI33
I0
sI34
I0
sI35
I0
sI36
I0
sI37
I0
sI38
I0
sI39
I0
sI40
I0
sI41
I0
sI42
I0
sI43
I0
sI44
I0
sI45
I0
sI46
I0
sI47
I0
sI48
I0
sI49
I0
sI50
I0
sI51
I0
sI52
I0
sI53
I0
sI54
I0
sI55
I0
sI56
I0
sI57
I0
sI58
I0
sI59
I0
sI60
I0
sI61
I0
sI62
I0
sI63
I0
sI64
I0
sI65
I0
sI66
I0
sI67
I0
sI68
I0
sI69
I0
sI70
I0
sI71
I0
sI72
I0
sI73
I0
sI74
I0
sI75
I0
sI76
I0
sI77
I0
sI78
I0
sI79
I0
sI80
I0
sI81
I0
sI82
I0
sI83
I0
sI84
I0
sI85
I0
sI86
I0
sI87
I0
sI88
I0
sI89
I0
sI90
I0
sI91
I0
sI92
I0
sI93
I0
sI94
I0
sI95
I0
sI96
I0
sI97
I0
sI98
I0
sI99
I0
sI100
I0
sI101
I0
sI102
I0
sI103
I0
sI104
I0
sI105
I0
sI106
I0
sI107
I0
sI108
I0
sI109
I0
sI110
I0
sI111
I0
sI112
I0
ssI56
(dp56
I1
I0
sI2
I0
sI3
I0
sI4
I0
sI5
I0
sI6
I0
sI7
F0.07692307692307693
sI8
I0
sI9
I0
sI10
I0
sI11
I0
sI12
I0
sI13
I0
sI14
I0
sI15
I0
sI16
I0
sI17
I0
sI18
I0
sI19
I0
sI20
I0
sI21
I0
sI22
I0
sI23
I0
sI24
I0
sI25
I0
sI26
I0
sI27
I0
sI28
I0
sI29
I0
sI30
I0
sI31
I0
sI32
I0
sI33
I0
sI34
I0
sI35
I0
sI36
I0
sI37
F0.08333333333333333
sI38
I0
sI39
I0
sI40
I0
sI41
I0
sI42
I0
sI43
I0
sI44
I0
sI45
I0
sI46
I0
sI47
I0
sI48
I0
sI49
I0
sI50
I0
sI51
I0
sI52
I0
sI53
I0
sI54
I0
sI55
I0
sI56
I0
sI57
I0
sI58
I0
sI59
I0
sI60
I0
sI61
I0
sI62
I0
sI63
I0
sI64
I0
sI65
I0
sI66
I0
sI67
I0
sI68
I0
sI69
I0
sI70
I0
sI71
F0.08333333333333333
sI72
I0
sI73
I0
sI74
I0
sI75
I0
sI76
I0
sI77
I0
sI78
I0
sI79
I0
sI80
I0
sI81
I0
sI82
I0
sI83
I0
sI84
I0
sI85
I0
sI86
I0
sI87
I0
sI88
I0
sI89
I0
sI90
I0
sI91
I0
sI92
I0
sI93
I0
sI94
I0
sI95
I0
sI96
I0
sI97
I0
sI98
I0
sI99
I0
sI100
I0
sI101
I0
sI102
I0
sI103
I0
sI104
I0
sI105
I0
sI106
I0
sI107
I0
sI108
I0
sI109
I0
sI110
I0
sI111
I0
sI112
I0
ssI57
(dp57
I1
I0
sI2
I0
sI3
I0
sI4
I0
sI5
I0
sI6
I0
sI7
I0
sI8
I0
sI9
I0
sI10
I0
sI11
I0
sI12
I0
sI13
I0
sI14
I0
sI15
I0
sI16
I0
sI17
I0
sI18
I0
sI19
I0
sI20
I0
sI21
I0
sI22
I0
sI23
I0
sI24
I0
sI25
I0
sI26
I0
sI27
I0
sI28
I0
sI29
I0
sI30
I0
sI31
I0
sI32
I0
sI33
I0
sI34
I0
sI35
I0
sI36
I0
sI37
I0
sI38
I0
sI39
I0
sI40
I0
sI41
I0
sI42
I0
sI43
I0
sI44
I0
sI45
I0
sI46
I0
sI47
I0
sI48
I0
sI49
I0
sI50
I0
sI51
I0
sI52
I0
sI53
I0
sI54
I0
sI55
I0
sI56
I0
sI57
I0
sI58
I0
sI59
I0
sI60
I0
sI61
I0
sI62
I0
sI63
I0
sI64
I0
sI65
I0
sI66
I0
sI67
I0
sI68
I0
sI69
I0
sI70
I0
sI71
I0
sI72
I0
sI73
I0
sI74
I0
sI75
I0
sI76
I0
sI77
I0
sI78
I0
sI79
I0
sI80
I0
sI81
I0
sI82
I0
sI83
I0
sI84
I0
sI85
I0
sI86
I0
sI87
I0
sI88
I0
sI89
I0
sI90
I0
sI91
I0
sI92
I0
sI93
I0
sI94
I0
sI95
I0
sI96
I0
sI97
I0
sI98
I0
sI99
I0
sI100
I0
sI101
I0
sI102
I0
sI103
I0
sI104
I0
sI105
I0
sI106
I0
sI107
I0
sI108
I0
sI109
I0
sI110
I0
sI111
I0
sI112
I0
ssI58
(dp58
I1
I0
sI2
I0
sI3
I0
sI4
I0
sI5
I0
sI6
I0
sI7
I0
sI8
I0
sI9
I0
sI10
I0
sI11
I0
sI12
I0
sI13
I0
sI14
I0
sI15
I0
sI16
I0
sI17
I0
sI18
I0
sI19
I0
sI20
I0
sI21
I0
sI22
I0
sI23
I0
sI24
I0
sI25
I0
sI26
I0
sI27
I0
sI28
I0
sI29
I0
sI30
I0
sI31
I0
sI32
I0
sI33
I0
sI34
I0
sI35
I0
sI36
I0
sI37
I0
sI38
F0.07692307692307693
sI39
I0
sI40
I0
sI41
I0
sI42
I0
sI43
I0
sI44
I0
sI45
I0
sI46
I0
sI47
I0
sI48
I0
sI49
I0
sI50
I0
sI51
I0
sI52
F0.1
sI53
I0
sI54
I0
sI55
I0
sI56
I0
sI57
I0
sI58
I0
sI59
I0
sI60
I0
sI61
I0
sI62
I0
sI63
I0
sI64
I0
sI65
I0
sI66
I0
sI67
I0
sI68
I0
sI69
I0
sI70
I0
sI71
I0
sI72
I0
sI73
I0
sI74
I0
sI75
I0
sI76
F0.1111111111111111
sI77
I0
sI78
I0
sI79
I0
sI80
I0
sI81
I0
sI82
I0
sI83
I0
sI84
I0
sI85
I0
sI86
I0
sI87
I0
sI88
I0
sI89
I0
sI90
I0
sI91
I0
sI92
I0
sI93
I0
sI94
I0
sI95
I0
sI96
I0
sI97
I0
sI98
I0
sI99
I0
sI100
I0
sI101
I0
sI102
I0
sI103
I0
sI104
I0
sI105
I0
sI106
I0
sI107
I0
sI108
I0
sI109
I0
sI110
I0
sI111
I0
sI112
I0
ssI59
(dp59
I1
I0
sI2
I0
sI3
I0
sI4
I0
sI5
I0
sI6
I0
sI7
I0
sI8
I0
sI9
I0
sI10
I0
sI11
I0
sI12
I0
sI13
I0
sI14
I0
sI15
I0
sI16
I0
sI17
I0
sI18
I0
sI19
I0
sI20
I0
sI21
I0
sI22
I0
sI23
I0
sI24
I0
sI25
I0
sI26
I0
sI27
I0
sI28
I0
sI29
I0
sI30
F0.07692307692307693
sI31
I0
sI32
I0
sI33
I0
sI34
I0
sI35
I0
sI36
I0
sI37
I0
sI38
F0.07142857142857142
sI39
I0
sI40
I0
sI41
I0
sI42
I0
sI43
I0
sI44
I0
sI45
I0
sI46
I0
sI47
I0
sI48
I0
sI49
I0
sI50
I0
sI51
I0
sI52
I0
sI53
I0
sI54
I0
sI55
I0
sI56
I0
sI57
I0
sI58
I0
sI59
I0
sI60
I0
sI61
I0
sI62
I0
sI63
I0
sI64
I0
sI65
I0
sI66
I0
sI67
I0
sI68
I0
sI69
I0
sI70
I0
sI71
I0
sI72
I0
sI73
I0
sI74
I0
sI75
I0
sI76
I0
sI77
I0
sI78
I0
sI79
I0
sI80
I0
sI81
I0
sI82
I0
sI83
I0
sI84
I0
sI85
I0
sI86
I0
sI87
I0
sI88
I0
sI89
I0
sI90
I0
sI91
I0
sI92
I0
sI93
I0
sI94
I0
sI95
I0
sI96
I0
sI97
I0
sI98
I0
sI99
I0
sI100
I0
sI101
I0
sI102
I0
sI103
I0
sI104
I0
sI105
I0
sI106
I0
sI107
I0
sI108
I0
sI109
I0
sI110
I0
sI111
I0
sI112
I0
ssI60
(dp60
I1
I0
sI2
I0
sI3
I0
sI4
I0
sI5
I0
sI6
I0
sI7
I0
sI8
I0
sI9
F0.08333333333333333
sI10
I0
sI11
I0
sI12
I0
sI13
I0
sI14
F0.07692307692307693
sI15
I0
sI16
I0
sI17
I0
sI18
I0
sI19
I0
sI20
I0
sI21
I0
sI22
I0
sI23
I0
sI24
F0.1111111111111111
sI25
I0
sI26
F0.09090909090909091
sI27
I0
sI28
I0
sI29
I0
sI30
I0
sI31
I0
sI32
I0
sI33
I0
sI34
I0
sI35
I0
sI36
I0
sI37
I0
sI38
F0.09090909090909091
sI39
I0
sI40
I0
sI41
I0
sI42
I0
sI43
I0
sI44
I0
sI45
I0
sI46
I0
sI47
I0
sI48
I0
sI49
I0
sI50
F0.09090909090909091
sI51
I0
sI52
F0.08333333333333333
sI53
I0
sI54
I0
sI55
I0
sI56
I0
sI57
I0
sI58
I0
sI59
I0
sI60
I0
sI61
I0
sI62
I0
sI63
I0
sI64
I0
sI65
I0
sI66
F0.08333333333333333
sI67
I0
sI68
I0
sI69
I0
sI70
I0
sI71
F0.09090909090909091
sI72
I0
sI73
F0.07692307692307693
sI74
I0
sI75
I0
sI76
I0
sI77
I0
sI78
I0
sI79
I0
sI80
I0
sI81
I0
sI82
I0
sI83
I0
sI84
I0
sI85
I0
sI86
I0
sI87
I0
sI88
I0
sI89
I0
sI90
I0
sI91
I0
sI92
I0
sI93
I0
sI94
I0
sI95
I0
sI96
I0
sI97
I0
sI98
I0
sI99
I0
sI100
I0
sI101
I0
sI102
I0
sI103
I0
sI104
I0
sI105
F0.16666666666666666
sI106
I0
sI107
I0
sI108
I0
sI109
I0
sI110
I0
sI111
I0
sI112
I0
ssI61
(dp61
I1
I0
sI2
I0
sI3
I0
sI4
I0
sI5
I0
sI6
I0
sI7
I0
sI8
I0
sI9
F0.07692307692307693
sI10
I0
sI11
I0
sI12
I0
sI13
I0
sI14
I0
sI15
I0
sI16
I0
sI17
I0
sI18
I0
sI19
F0.14285714285714285
sI20
I0
sI21
I0
sI22
I0
sI23
I0
sI24
I0
sI25
I0
sI26
I0
sI27
I0
sI28
I0
sI29
I0
sI30
I0
sI31
I0
sI32
I0
sI33
I0
sI34
I0
sI35
I0
sI36
I0
sI37
I0
sI38
I0
sI39
I0
sI40
I0
sI41
I0
sI42
I0
sI43
I0
sI44
I0
sI45
I0
sI46
I0
sI47
I0
sI48
I0
sI49
I0
sI50
I0
sI51
I0
sI52
I0
sI53
I0
sI54
I0
sI55
I0
sI56
I0
sI57
I0
sI58
I0
sI59
I0
sI60
I0
sI61
I0
sI62
I0
sI63
I0
sI64
I0
sI65
I0
sI66
I0
sI67
I0
sI68
I0
sI69
I0
sI70
I0
sI71
I0
sI72
I0
sI73
I0
sI74
I0
sI75
I0
sI76
I0
sI77
I0
sI78
I0
sI79
I0
sI80
I0
sI81
I0
sI82
I0
sI83
I0
sI84
I0
sI85
I0
sI86
I0
sI87
I0
sI88
I0
sI89
I0
sI90
I0
sI91
I0
sI92
I0
sI93
I0
sI94
I0
sI95
I0
sI96
I0
sI97
I0
sI98
I0
sI99
I0
sI100
I0
sI101
I0
sI102
F0.07142857142857142
sI103
I0
sI104
I0
sI105
I0
sI106
I0
sI107
I0
sI108
I0
sI109
I0
sI110
I0
sI111
I0
sI112
I0
ssI62
(dp62
I1
I0
sI2
I0
sI3
I0
sI4
I0
sI5
I0
sI6
I0
sI7
I0
sI8
I0
sI9
F0.1111111111111111
sI10
I0
sI11
I0
sI12
I0
sI13
I0
sI14
I0
sI15
I0
sI16
I0
sI17
I0
sI18
I0
sI19
I0
sI20
I0
sI21
I0
sI22
I0
sI23
I0
sI24
I0
sI25
I0
sI26
I0
sI27
I0
sI28
I0
sI29
I0
sI30
I0
sI31
I0
sI32
I0
sI33
I0
sI34
I0
sI35
I0
sI36
I0
sI37
I0
sI38
I0
sI39
I0
sI40
I0
sI41
I0
sI42
I0
sI43
I0
sI44
I0
sI45
I0
sI46
I0
sI47
I0
sI48
I0
sI49
I0
sI50
I0
sI51
I0
sI52
I0
sI53
I0
sI54
I0
sI55
I0
sI56
I0
sI57
I0
sI58
I0
sI59
I0
sI60
I0
sI61
I0
sI62
I0
sI63
I0
sI64
I0
sI65
I0
sI66
I0
sI67
I0
sI68
I0
sI69
I0
sI70
I0
sI71
I0
sI72
I0
sI73
I0
sI74
I0
sI75
I0
sI76
I0
sI77
I0
sI78
I0
sI79
I0
sI80
I0
sI81
I0
sI82
I0
sI83
I0
sI84
I0
sI85
I0
sI86
I0
sI87
I0
sI88
I0
sI89
I0
sI90
I0
sI91
I0
sI92
I0
sI93
I0
sI94
I0
sI95
I0
sI96
I0
sI97
I0
sI98
I0
sI99
I0
sI100
I0
sI101
I0
sI102
I0
sI103
I0
sI104
I0
sI105
F0.09090909090909091
sI106
I0
sI107
I0
sI108
I0
sI109
I0
sI110
I0
sI111
I0
sI112
I0
ssI63
(dp63
I1
I0
sI2
I0
sI3
I0
sI4
I0
sI5
I0
sI6
I0
sI7
I0
sI8
I0
sI9
F0.09090909090909091
sI10
I0
sI11
I0
sI12
I0
sI13
I0
sI14
I0
sI15
I0
sI16
I0
sI17
I0
sI18
I0
sI19
I0
sI20
I0
sI21
I0
sI22
I0
sI23
I0
sI24
I0
sI25
I0
sI26
I0
sI27
I0
sI28
I0
sI29
I0
sI30
I0
sI31
I0
sI32
I0
sI33
I0
sI34
I0
sI35
I0
sI36
I0
sI37
I0
sI38
I0
sI39
I0
sI40
I0
sI41
I0
sI42
I0
sI43
I0
sI44
I0
sI45
I0
sI46
I0
sI47
I0
sI48
I0
sI49
I0
sI50
I0
sI51
I0
sI52
I0
sI53
I0
sI54
I0
sI55
I0
sI56
I0
sI57
I0
sI58
I0
sI59
I0
sI60
I0
sI61
I0
sI62
I0
sI63
I0
sI64
I0
sI65
I0
sI66
I0
sI67
I0
sI68
I0
sI69
I0
sI70
I0
sI71
I0
sI72
I0
sI73
I0
sI74
I0
sI75
I0
sI76
I0
sI77
I0
sI78
I0
sI79
I0
sI80
I0
sI81
I0
sI82
I0
sI83
I0
sI84
I0
sI85
I0
sI86
I0
sI87
I0
sI88
I0
sI89
I0
sI90
I0
sI91
I0
sI92
I0
sI93
I0
sI94
I0
sI95
I0
sI96
I0
sI97
I0
sI98
I0
sI99
I0
sI100
I0
sI101
I0
sI102
I0
sI103
I0
sI104
I0
sI105
I0
sI106
I0
sI107
I0
sI108
I0
sI109
I0
sI110
I0
sI111
I0
sI112
I0
ssI64
(dp64
I1
I0
sI2
I0
sI3
I0
sI4
I0
sI5
I0
sI6
I0
sI7
I0
sI8
I0
sI9
I0
sI10
I0
sI11
I0
sI12
F0.06666666666666667
sI13
I0
sI14
I0
sI15
I0
sI16
I0
sI17
I0
sI18
I0
sI19
I0
sI20
I0
sI21
I0
sI22
I0
sI23
I0
sI24
I0
sI25
I0
sI26
I0
sI27
I0
sI28
F0.0625
sI29
I0
sI30
I0
sI31
I0
sI32
I0
sI33
I0
sI34
I0
sI35
I0
sI36
I0
sI37
I0
sI38
I0
sI39
I0
sI40
I0
sI41
I0
sI42
I0
sI43
I0
sI44
I0
sI45
I0
sI46
I0
sI47
I0
sI48
I0
sI49
I0
sI50
I0
sI51
I0
sI52
I0
sI53
I0
sI54
I0
sI55
I0
sI56
I0
sI57
I0
sI58
I0
sI59
I0
sI60
I0
sI61
I0
sI62
I0
sI63
I0
sI64
I0
sI65
F0.05263157894736842
sI66
F0.05555555555555555
sI67
I0
sI68
I0
sI69
I0
sI70
I0
sI71
I0
sI72
I0
sI73
I0
sI74
I0
sI75
I0
sI76
I0
sI77
I0
sI78
I0
sI79
I0
sI80
I0
sI81
I0
sI82
I0
sI83
I0
sI84
I0
sI85
I0
sI86
I0
sI87
I0
sI88
I0
sI89
I0
sI90
I0
sI91
I0
sI92
I0
sI93
I0
sI94
I0
sI95
I0
sI96
I0
sI97
I0
sI98
I0
sI99
I0
sI100
I0
sI101
I0
sI102
I0
sI103
I0
sI104
I0
sI105
I0
sI106
I0
sI107
I0
sI108
I0
sI109
I0
sI110
I0
sI111
I0
sI112
I0
ssI65
(dp65
I1
I0
sI2
I0
sI3
I0
sI4
I0
sI5
I0
sI6
I0
sI7
I0
sI8
I0
sI9
I0
sI10
I0
sI11
I0
sI12
I0
sI13
I0
sI14
I0
sI15
I0
sI16
I0
sI17
I0
sI18
I0
sI19
I0
sI20
I0
sI21
I0
sI22
I0
sI23
I0
sI24
I0
sI25
I0
sI26
I0
sI27
I0
sI28
I0
sI29
I0
sI30
I0
sI31
I0
sI32
I0
sI33
I0
sI34
I0
sI35
I0
sI36
I0
sI37
I0
sI38
I0
sI39
I0
sI40
I0
sI41
I0
sI42
I0
sI43
I0
sI44
I0
sI45
I0
sI46
I0
sI47
I0
sI48
I0
sI49
I0
sI50
I0
sI51
I0
sI52
I0
sI53
I0
sI54
I0
sI55
I0
sI56
I0
sI57
I0
sI58
I0
sI59
I0
sI60
I0
sI61
I0
sI62
I0
sI63
I0
sI64
F0.05263157894736842
sI65
I0
sI66
I0
sI67
I0
sI68
I0
sI69
I0
sI70
I0
sI71
I0
sI72
I0
sI73
I0
sI74
I0
sI75
I0
sI76
I0
sI77
I0
sI78
I0
sI79
I0
sI80
I0
sI81
I0
sI82
I0
sI83
I0
sI84
I0
sI85
I0
sI86
I0
sI87
I0
sI88
I0
sI89
I0
sI90
I0
sI91
I0
sI92
I0
sI93
I0
sI94
I0
sI95
I0
sI96
I0
sI97
I0
sI98
I0
sI99
I0
sI100
I0
sI101
I0
sI102
I0
sI103
I0
sI104
I0
sI105
I0
sI106
I0
sI107
I0
sI108
I0
sI109
I0
sI110
I0
sI111
I0
sI112
I0
ssI66
(dp66
I1
I0
sI2
I0
sI3
I0
sI4
I0
sI5
I0
sI6
I0
sI7
I0
sI8
I0
sI9
I0
sI10
I0
sI11
I0
sI12
I0
sI13
I0
sI14
I0
sI15
I0
sI16
I0
sI17
I0
sI18
F0.1
sI19
I0
sI20
I0
sI21
I0
sI22
I0
sI23
I0
sI24
I0
sI25
I0
sI26
I0
sI27
I0
sI28
I0
sI29
I0
sI30
I0
sI31
I0
sI32
I0
sI33
I0
sI34
I0
sI35
I0
sI36
I0
sI37
I0
sI38
I0
sI39
I0
sI40
I0
sI41
I0
sI42
I0
sI43
I0
sI44
I0
sI45
I0
sI46
I0
sI47
I0
sI48
I0
sI49
I0
sI50
I0
sI51
I0
sI52
I0
sI53
I0
sI54
I0
sI55
I0
sI56
I0
sI57
I0
sI58
I0
sI59
I0
sI60
F0.08333333333333333
sI61
I0
sI62
I0
sI63
I0
sI64
F0.05555555555555555
sI65
I0
sI66
I0
sI67
I0
sI68
I0
sI69
I0
sI70
I0
sI71
I0
sI72
I0
sI73
I0
sI74
I0
sI75
I0
sI76
I0
sI77
I0
sI78
I0
sI79
I0
sI80
I0
sI81
I0
sI82
I0
sI83
I0
sI84
I0
sI85
F0.058823529411764705
sI86
I0
sI87
I0
sI88
F0.08333333333333333
sI89
I0
sI90
I0
sI91
I0
sI92
I0
sI93
I0
sI94
I0
sI95
I0
sI96
I0
sI97
I0
sI98
I0
sI99
I0
sI100
I0
sI101
I0
sI102
I0
sI103
I0
sI104
F0.058823529411764705
sI105
I0
sI106
I0
sI107
I0
sI108
I0
sI109
I0
sI110
I0
sI111
I0
sI112
I0
ssI67
(dp67
I1
I0
sI2
I0
sI3
F0.08333333333333333
sI4
I0
sI5
I0
sI6
I0
sI7
I0
sI8
I0
sI9
I0
sI10
I0
sI11
I0
sI12
I0
sI13
I0
sI14
I0
sI15
I0
sI16
I0
sI17
I0
sI18
F0.08333333333333333
sI19
I0
sI20
I0
sI21
I0
sI22
I0
sI23
I0
sI24
I0
sI25
I0
sI26
I0
sI27
I0
sI28
I0
sI29
I0
sI30
I0
sI31
I0
sI32
I0
sI33
I0
sI34
I0
sI35
I0
sI36
I0
sI37
I0
sI38
I0
sI39
I0
sI40
I0
sI41
I0
sI42
I0
sI43
I0
sI44
I0
sI45
I0
sI46
I0
sI47
I0
sI48
I0
sI49
I0
sI50
I0
sI51
I0
sI52
F0.07692307692307693
sI53
I0
sI54
I0
sI55
I0
sI56
I0
sI57
I0
sI58
I0
sI59
I0
sI60
I0
sI61
I0
sI62
I0
sI63
I0
sI64
I0
sI65
I0
sI66
I0
sI67
I0
sI68
I0
sI69
I0
sI70
I0
sI71
I0
sI72
I0
sI73
F0.07142857142857142
sI74
I0
sI75
I0
sI76
F0.08333333333333333
sI77
I0
sI78
I0
sI79
I0
sI80
I0
sI81
I0
sI82
I0
sI83
I0
sI84
I0
sI85
I0
sI86
I0
sI87
I0
sI88
I0
sI89
I0
sI90
I0
sI91
I0
sI92
I0
sI93
I0
sI94
I0
sI95
I0
sI96
I0
sI97
I0
sI98
I0
sI99
I0
sI100
I0
sI101
I0
sI102
I0
sI103
F0.09090909090909091
sI104
I0
sI105
I0
sI106
I0
sI107
I0
sI108
I0
sI109
I0
sI110
I0
sI111
I0
sI112
I0
ssI68
(dp68
I1
I0
sI2
I0
sI3
I0
sI4
I0
sI5
I0
sI6
I0
sI7
I0
sI8
I0
sI9
I0
sI10
I0
sI11
I0
sI12
I0
sI13
I0
sI14
I0
sI15
I0
sI16
I0
sI17
I0
sI18
F0.09090909090909091
sI19
I0
sI20
I0
sI21
I0
sI22
I0
sI23
I0
sI24
I0
sI25
I0
sI26
I0
sI27
I0
sI28
I0
sI29
I0
sI30
I0
sI31
I0
sI32
I0
sI33
I0
sI34
I0
sI35
I0
sI36
I0
sI37
I0
sI38
I0
sI39
I0
sI40
I0
sI41
I0
sI42
I0
sI43
I0
sI44
I0
sI45
I0
sI46
I0
sI47
I0
sI48
I0
sI49
I0
sI50
I0
sI51
I0
sI52
F0.1
sI53
I0
sI54
I0
sI55
I0
sI56
I0
sI57
I0
sI58
I0
sI59
I0
sI60
I0
sI61
I0
sI62
I0
sI63
I0
sI64
I0
sI65
I0
sI66
I0
sI67
I0
sI68
I0
sI69
I0
sI70
I0
sI71
I0
sI72
I0
sI73
I0
sI74
I0
sI75
I0
sI76
I0
sI77
I0
sI78
I0
sI79
I0
sI80
I0
sI81
I0
sI82
I0
sI83
I0
sI84
I0
sI85
I0
sI86
I0
sI87
I0
sI88
F0.07692307692307693
sI89
I0
sI90
I0
sI91
I0
sI92
I0
sI93
I0
sI94
I0
sI95
I0
sI96
I0
sI97
I0
sI98
I0
sI99
I0
sI100
I0
sI101
I0
sI102
I0
sI103
I0
sI104
I0
sI105
I0
sI106
I0
sI107
I0
sI108
I0
sI109
I0
sI110
I0
sI111
I0
sI112
I0
ssI69
(dp69
I1
I0
sI2
I0
sI3
I0
sI4
I0
sI5
I0
sI6
I0
sI7
I0
sI8
I0
sI9
I0
sI10
I0
sI11
I0
sI12
I0
sI13
I0
sI14
I0
sI15
I0
sI16
I0
sI17
I0
sI18
I0
sI19
I0
sI20
I0
sI21
I0
sI22
I0
sI23
I0
sI24
I0
sI25
I0
sI26
I0
sI27
I0
sI28
I0
sI29
I0
sI30
I0
sI31
I0
sI32
I0
sI33
I0
sI34
I0
sI35
I0
sI36
I0
sI37
I0
sI38
I0
sI39
I0
sI40
I0
sI41
I0
sI42
I0
sI43
I0
sI44
I0
sI45
I0
sI46
I0
sI47
I0
sI48
I0
sI49
I0
sI50
I0
sI51
I0
sI52
I0
sI53
I0
sI54
I0
sI55
I0
sI56
I0
sI57
I0
sI58
I0
sI59
I0
sI60
I0
sI61
I0
sI62
I0
sI63
I0
sI64
I0
sI65
I0
sI66
I0
sI67
I0
sI68
I0
sI69
I0
sI70
I0
sI71
I0
sI72
I0
sI73
I0
sI74
I0
sI75
I0
sI76
I0
sI77
I0
sI78
I0
sI79
I0
sI80
I0
sI81
I0
sI82
I0
sI83
I0
sI84
I0
sI85
I0
sI86
I0
sI87
I0
sI88
I0
sI89
I0
sI90
I0
sI91
I0
sI92
I0
sI93
I0
sI94
I0
sI95
I0
sI96
I0
sI97
I0
sI98
I0
sI99
I0
sI100
I0
sI101
I0
sI102
I0
sI103
I0
sI104
I0
sI105
I0
sI106
I0
sI107
I0
sI108
I0
sI109
I0
sI110
I0
sI111
I0
sI112
I0
ssI70
(dp70
I1
I0
sI2
I0
sI3
I0
sI4
I0
sI5
I0
sI6
I0
sI7
I0
sI8
I0
sI9
I0
sI10
I0
sI11
I0
sI12
I0
sI13
I0
sI14
I0
sI15
I0
sI16
I0
sI17
I0
sI18
I0
sI19
I0
sI20
I0
sI21
I0
sI22
I0
sI23
I0
sI24
I0
sI25
I0
sI26
I0
sI27
I0
sI28
I0
sI29
I0
sI30
I0
sI31
I0
sI32
I0
sI33
I0
sI34
I0
sI35
I0
sI36
I0
sI37
I0
sI38
I0
sI39
I0
sI40
I0
sI41
I0
sI42
I0
sI43
I0
sI44
I0
sI45
I0
sI46
I0
sI47
I0
sI48
I0
sI49
I0
sI50
I0
sI51
I0
sI52
I0
sI53
I0
sI54
I0
sI55
I0
sI56
I0
sI57
I0
sI58
I0
sI59
I0
sI60
I0
sI61
I0
sI62
I0
sI63
I0
sI64
I0
sI65
I0
sI66
I0
sI67
I0
sI68
I0
sI69
I0
sI70
I0
sI71
I0
sI72
I0
sI73
I0
sI74
I0
sI75
I0
sI76
I0
sI77
I0
sI78
I0
sI79
I0
sI80
I0
sI81
I0
sI82
I0
sI83
I0
sI84
I0
sI85
I0
sI86
I0
sI87
I0
sI88
I0
sI89
I0
sI90
I0
sI91
I0
sI92
I0
sI93
I0
sI94
I0
sI95
I0
sI96
I0
sI97
I0
sI98
I0
sI99
I0
sI100
I0
sI101
I0
sI102
I0
sI103
I0
sI104
I0
sI105
I0
sI106
I0
sI107
I0
sI108
I0
sI109
I0
sI110
I0
sI111
I0
sI112
I0
ssI71
(dp71
I1
I0
sI2
I0
sI3
I0
sI4
I0
sI5
I0
sI6
I0
sI7
I0
sI8
F0.07142857142857142
sI9
I0
sI10
I0
sI11
I0
sI12
I0
sI13
I0
sI14
I0
sI15
I0
sI16
I0
sI17
I0
sI18
F0.07692307692307693
sI19
I0
sI20
I0
sI21
I0
sI22
I0
sI23
I0
sI24
I0
sI25
I0
sI26
I0
sI27
I0
sI28
I0
sI29
I0
sI30
I0
sI31
I0
sI32
I0
sI33
F0.0625
sI34
I0
sI35
I0
sI36
I0
sI37
I0
sI38
I0
sI39
I0
sI40
I0
sI41
I0
sI42
I0
sI43
I0
sI44
I0
sI45
I0
sI46
I0
sI47
I0
sI48
I0
sI49
I0
sI50
I0
sI51
I0
sI52
I0
sI53
I0
sI54
I0
sI55
I0
sI56
F0.08333333333333333
sI57
I0
sI58
I0
sI59
I0
sI60
F0.09090909090909091
sI61
I0
sI62
I0
sI63
I0
sI64
I0
sI65
I0
sI66
I0
sI67
I0
sI68
I0
sI69
I0
sI70
I0
sI71
I0
sI72
I0
sI73
I0
sI74
I0
sI75
I0
sI76
F0.07692307692307693
sI77
I0
sI78
I0
sI79
I0
sI80
I0
sI81
I0
sI82
I0
sI83
I0
sI84
I0
sI85
I0
sI86
I0
sI87
I0
sI88
F0.2
sI89
I0
sI90
I0
sI91
I0
sI92
I0
sI93
I0
sI94
I0
sI95
I0
sI96
I0
sI97
I0
sI98
I0
sI99
I0
sI100
I0
sI101
I0
sI102
I0
sI103
F0.08333333333333333
sI104
I0
sI105
I0
sI106
I0
sI107
I0
sI108
I0
sI109
I0
sI110
I0
sI111
I0
sI112
I0
ssI72
(dp72
I1
I0
sI2
I0
sI3
I0
sI4
I0
sI5
I0
sI6
I0
sI7
I0
sI8
I0
sI9
I0
sI10
I0
sI11
I0
sI12
I0
sI13
I0
sI14
I0
sI15
I0
sI16
I0
sI17
I0
sI18
I0
sI19
I0
sI20
I0
sI21
I0
sI22
I0
sI23
I0
sI24
I0
sI25
I0
sI26
I0
sI27
I0
sI28
I0
sI29
I0
sI30
I0
sI31
I0
sI32
I0
sI33
I0
sI34
I0
sI35
I0
sI36
I0
sI37
I0
sI38
I0
sI39
I0
sI40
I0
sI41
I0
sI42
I0
sI43
I0
sI44
I0
sI45
I0
sI46
I0
sI47
I0
sI48
I0
sI49
I0
sI50
I0
sI51
I0
sI52
I0
sI53
I0
sI54
I0
sI55
I0
sI56
I0
sI57
I0
sI58
I0
sI59
I0
sI60
I0
sI61
I0
sI62
I0
sI63
I0
sI64
I0
sI65
I0
sI66
I0
sI67
I0
sI68
I0
sI69
I0
sI70
I0
sI71
I0
sI72
I0
sI73
I0
sI74
I0
sI75
I0
sI76
I0
sI77
I0
sI78
I0
sI79
I0
sI80
I0
sI81
I0
sI82
I0
sI83
I0
sI84
I0
sI85
I0
sI86
I0
sI87
I0
sI88
I0
sI89
I0
sI90
I0
sI91
I0
sI92
I0
sI93
I0
sI94
I0
sI95
I0
sI96
I0
sI97
I0
sI98
I0
sI99
I0
sI100
I0
sI101
I0
sI102
I0
sI103
I0
sI104
I0
sI105
I0
sI106
I0
sI107
I0
sI108
I0
sI109
I0
sI110
I0
sI111
I0
sI112
I0
ssI73
(dp73
I1
I0
sI2
I0
sI3
I0
sI4
I0
sI5
I0
sI6
I0
sI7
I0
sI8
I0
sI9
I0
sI10
I0
sI11
I0
sI12
I0
sI13
I0
sI14
I0
sI15
I0
sI16
I0
sI17
I0
sI18
F0.09090909090909091
sI19
I0
sI20
I0
sI21
I0
sI22
I0
sI23
I0
sI24
I0
sI25
I0
sI26
I0
sI27
I0
sI28
I0
sI29
I0
sI30
I0
sI31
I0
sI32
I0
sI33
I0
sI34
I0
sI35
I0
sI36
I0
sI37
I0
sI38
F0.06666666666666667
sI39
I0
sI40
I0
sI41
I0
sI42
I0
sI43
I0
sI44
I0
sI45
I0
sI46
I0
sI47
I0
sI48
I0
sI49
I0
sI50
I0
sI51
I0
sI52
I0
sI53
I0
sI54
I0
sI55
I0
sI56
I0
sI57
I0
sI58
I0
sI59
I0
sI60
F0.07692307692307693
sI61
I0
sI62
I0
sI63
I0
sI64
I0
sI65
I0
sI66
I0
sI67
F0.07142857142857142
sI68
I0
sI69
I0
sI70
I0
sI71
I0
sI72
I0
sI73
I0
sI74
I0
sI75
I0
sI76
I0
sI77
I0
sI78
I0
sI79
I0
sI80
I0
sI81
F0.05555555555555555
sI82
I0
sI83
I0
sI84
I0
sI85
I0
sI86
I0
sI87
I0
sI88
I0
sI89
I0
sI90
I0
sI91
I0
sI92
I0
sI93
I0
sI94
I0
sI95
I0
sI96
I0
sI97
I0
sI98
I0
sI99
I0
sI100
I0
sI101
I0
sI102
I0
sI103
I0
sI104
I0
sI105
I0
sI106
I0
sI107
I0
sI108
I0
sI109
I0
sI110
I0
sI111
I0
sI112
I0
ssI74
(dp74
I1
I0
sI2
I0
sI3
F0.14285714285714285
sI4
I0
sI5
I0
sI6
I0
sI7
I0
sI8
I0
sI9
I0
sI10
I0
sI11
I0
sI12
I0
sI13
I0
sI14
I0
sI15
I0
sI16
I0
sI17
I0
sI18
I0
sI19
I0
sI20
I0
sI21
I0
sI22
I0
sI23
I0
sI24
I0
sI25
I0
sI26
I0
sI27
I0
sI28
I0
sI29
I0
sI30
I0
sI31
I0
sI32
I0
sI33
I0
sI34
I0
sI35
I0
sI36
I0
sI37
I0
sI38
I0
sI39
I0
sI40
I0
sI41
I0
sI42
I0
sI43
I0
sI44
I0
sI45
I0
sI46
I0
sI47
I0
sI48
I0
sI49
I0
sI50
I0
sI51
I0
sI52
I0
sI53
I0
sI54
F0.06666666666666667
sI55
I0
sI56
I0
sI57
I0
sI58
I0
sI59
I0
sI60
I0
sI61
I0
sI62
I0
sI63
I0
sI64
I0
sI65
I0
sI66
I0
sI67
I0
sI68
I0
sI69
I0
sI70
I0
sI71
I0
sI72
I0
sI73
I0
sI74
I0
sI75
I0
sI76
I0
sI77
I0
sI78
I0
sI79
I0
sI80
I0
sI81
I0
sI82
I0
sI83
I0
sI84
I0
sI85
I0
sI86
I0
sI87
I0
sI88
I0
sI89
I0
sI90
I0
sI91
I0
sI92
I0
sI93
I0
sI94
I0
sI95
I0
sI96
I0
sI97
I0
sI98
I0
sI99
I0
sI100
I0
sI101
I0
sI102
I0
sI103
I0
sI104
F0.0625
sI105
I0
sI106
I0
sI107
I0
sI108
I0
sI109
I0
sI110
I0
sI111
I0
sI112
I0
ssI75
(dp75
I1
I0
sI2
I0
sI3
I0
sI4
I0
sI5
I0
sI6
I0
sI7
I0
sI8
I0
sI9
I0
sI10
I0
sI11
I0
sI12
I0
sI13
I0
sI14
I0
sI15
I0
sI16
I0
sI17
I0
sI18
I0
sI19
I0
sI20
I0
sI21
I0
sI22
I0
sI23
I0
sI24
I0
sI25
I0
sI26
I0
sI27
I0
sI28
I0
sI29
I0
sI30
F0.05263157894736842
sI31
I0
sI32
I0
sI33
I0
sI34
I0
sI35
I0
sI36
I0
sI37
I0
sI38
I0
sI39
I0
sI40
I0
sI41
I0
sI42
I0
sI43
I0
sI44
I0
sI45
I0
sI46
I0
sI47
I0
sI48
I0
sI49
I0
sI50
I0
sI51
I0
sI52
I0
sI53
I0
sI54
I0
sI55
I0
sI56
I0
sI57
I0
sI58
I0
sI59
I0
sI60
I0
sI61
I0
sI62
I0
sI63
I0
sI64
I0
sI65
I0
sI66
I0
sI67
I0
sI68
I0
sI69
I0
sI70
I0
sI71
I0
sI72
I0
sI73
I0
sI74
I0
sI75
I0
sI76
I0
sI77
I0
sI78
I0
sI79
I0
sI80
I0
sI81
I0
sI82
I0
sI83
I0
sI84
I0
sI85
I0
sI86
I0
sI87
I0
sI88
I0
sI89
I0
sI90
I0
sI91
I0
sI92
I0
sI93
I0
sI94
I0
sI95
I0
sI96
I0
sI97
I0
sI98
I0
sI99
I0
sI100
I0
sI101
I0
sI102
I0
sI103
I0
sI104
I0
sI105
I0
sI106
I0
sI107
I0
sI108
I0
sI109
I0
sI110
I0
sI111
I0
sI112
I0
ssI76
(dp76
I1
I0
sI2
I0
sI3
I0
sI4
I0
sI5
I0
sI6
I0
sI7
I0
sI8
F0.07142857142857142
sI9
I0
sI10
I0
sI11
I0
sI12
I0
sI13
I0
sI14
I0
sI15
I0
sI16
F0.08333333333333333
sI17
I0
sI18
I0
sI19
I0
sI20
I0
sI21
I0
sI22
I0
sI23
I0
sI24
I0
sI25
F0.07692307692307693
sI26
I0
sI27
I0
sI28
I0
sI29
I0
sI30
I0
sI31
I0
sI32
I0
sI33
I0
sI34
I0
sI35
I0
sI36
I0
sI37
I0
sI38
I0
sI39
I0
sI40
I0
sI41
I0
sI42
I0
sI43
I0
sI44
I0
sI45
I0
sI46
I0
sI47
I0
sI48
I0
sI49
I0
sI50
I0
sI51
I0
sI52
I0
sI53
I0
sI54
I0
sI55
I0
sI56
I0
sI57
I0
sI58
F0.1111111111111111
sI59
I0
sI60
I0
sI61
I0
sI62
I0
sI63
I0
sI64
I0
sI65
I0
sI66
I0
sI67
F0.08333333333333333
sI68
I0
sI69
I0
sI70
I0
sI71
F0.07692307692307693
sI72
I0
sI73
I0
sI74
I0
sI75
I0
sI76
I0
sI77
I0
sI78
F0.1
sI79
I0
sI80
I0
sI81
I0
sI82
I0
sI83
I0
sI84
I0
sI85
I0
sI86
I0
sI87
I0
sI88
I0
sI89
I0
sI90
I0
sI91
I0
sI92
I0
sI93
I0
sI94
I0
sI95
I0
sI96
I0
sI97
I0
sI98
I0
sI99
I0
sI100
I0
sI101
I0
sI102
I0
sI103
I0
sI104
I0
sI105
I0
sI106
I0
sI107
I0
sI108
I0
sI109
I0
sI110
I0
sI111
I0
sI112
I0
ssI77
(dp77
I1
I0
sI2
I0
sI3
I0
sI4
I0
sI5
I0
sI6
I0
sI7
I0
sI8
I0
sI9
I0
sI10
I0
sI11
I0
sI12
I0
sI13
I0
sI14
I0
sI15
I0
sI16
I0
sI17
I0
sI18
I0
sI19
I0
sI20
I0
sI21
I0
sI22
I0
sI23
I0
sI24
I0
sI25
I0
sI26
I0
sI27
I0
sI28
I0
sI29
I0
sI30
I0
sI31
I0
sI32
I0
sI33
I0
sI34
I0
sI35
I0
sI36
I0
sI37
I0
sI38
I0
sI39
I0
sI40
I0
sI41
I0
sI42
I0
sI43
I0
sI44
I0
sI45
I0
sI46
I0
sI47
I0
sI48
I0
sI49
I0
sI50
I0
sI51
I0
sI52
I0
sI53
I0
sI54
I0
sI55
I0
sI56
I0
sI57
I0
sI58
I0
sI59
I0
sI60
I0
sI61
I0
sI62
I0
sI63
I0
sI64
I0
sI65
I0
sI66
I0
sI67
I0
sI68
I0
sI69
I0
sI70
I0
sI71
I0
sI72
I0
sI73
I0
sI74
I0
sI75
I0
sI76
I0
sI77
I0
sI78
I0
sI79
I0
sI80
I0
sI81
I0
sI82
I0
sI83
I0
sI84
I0
sI85
I0
sI86
I0
sI87
I0
sI88
I0
sI89
I0
sI90
I0
sI91
I0
sI92
I0
sI93
I0
sI94
I0
sI95
I0
sI96
I0
sI97
I0
sI98
I0
sI99
I0
sI100
I0
sI101
I0
sI102
I0
sI103
I0
sI104
I0
sI105
I0
sI106
I0
sI107
I-1
sI108
I0
sI109
I0
sI110
I0
sI111
I0
sI112
I0
ssI78
(dp78
I1
I0
sI2
I0
sI3
I0
sI4
I0
sI5
I0
sI6
I0
sI7
I0
sI8
I0
sI9
I0
sI10
I0
sI11
I0
sI12
I0
sI13
I0
sI14
I0
sI15
I0
sI16
I0
sI17
I0
sI18
F0.1
sI19
I0
sI20
I0
sI21
I0
sI22
I0
sI23
I0
sI24
I0
sI25
I0
sI26
F0.1
sI27
I0
sI28
I0
sI29
I0
sI30
I0
sI31
I0
sI32
I0
sI33
I0
sI34
I0
sI35
I0
sI36
I0
sI37
I0
sI38
I0
sI39
I0
sI40
I0
sI41
I0
sI42
I0
sI43
I0
sI44
I0
sI45
I0
sI46
I0
sI47
I0
sI48
I0
sI49
I0
sI50
I0
sI51
I0
sI52
I0
sI53
I0
sI54
I0
sI55
I0
sI56
I0
sI57
I0
sI58
I0
sI59
I0
sI60
I0
sI61
I0
sI62
I0
sI63
I0
sI64
I0
sI65
I0
sI66
I0
sI67
I0
sI68
I0
sI69
I0
sI70
I0
sI71
I0
sI72
I0
sI73
I0
sI74
I0
sI75
I0
sI76
F0.1
sI77
I0
sI78
I0
sI79
I0
sI80
I0
sI81
I0
sI82
I0
sI83
I0
sI84
I0
sI85
I0
sI86
I0
sI87
I0
sI88
I0
sI89
I0
sI90
I0
sI91
I0
sI92
I0
sI93
I0
sI94
I0
sI95
I0
sI96
I0
sI97
I0
sI98
I0
sI99
I0
sI100
I0
sI101
I0
sI102
I0
sI103
I0
sI104
I0
sI105
I0
sI106
I0
sI107
I0
sI108
I0
sI109
I0
sI110
I0
sI111
I0
sI112
I0
ssI79
(dp79
I1
I0
sI2
I0
sI3
I0
sI4
I0
sI5
I0
sI6
I0
sI7
I0
sI8
I0
sI9
I0
sI10
I0
sI11
I0
sI12
I0
sI13
I0
sI14
I0
sI15
I0
sI16
I0
sI17
I0
sI18
I0
sI19
I0
sI20
I0
sI21
I0
sI22
I0
sI23
I0
sI24
I0
sI25
I0
sI26
I0
sI27
I0
sI28
I0
sI29
I0
sI30
I0
sI31
I0
sI32
I0
sI33
I0
sI34
I0
sI35
I0
sI36
I0
sI37
I0
sI38
I0
sI39
I0
sI40
I0
sI41
I0
sI42
I0
sI43
I0
sI44
I0
sI45
I0
sI46
I0
sI47
I0
sI48
I0
sI49
I0
sI50
I0
sI51
I0
sI52
I0
sI53
I0
sI54
I0
sI55
I0
sI56
I0
sI57
I0
sI58
I0
sI59
I0
sI60
I0
sI61
I0
sI62
I0
sI63
I0
sI64
I0
sI65
I0
sI66
I0
sI67
I0
sI68
I0
sI69
I0
sI70
I0
sI71
I0
sI72
I0
sI73
I0
sI74
I0
sI75
I0
sI76
I0
sI77
I0
sI78
I0
sI79
I0
sI80
I0
sI81
I0
sI82
I0
sI83
I0
sI84
I0
sI85
I0
sI86
I0
sI87
I0
sI88
I0
sI89
I0
sI90
I0
sI91
I0
sI92
I0
sI93
I0
sI94
I0
sI95
I0
sI96
I0
sI97
I0
sI98
I0
sI99
I0
sI100
I0
sI101
I0
sI102
I0
sI103
I0
sI104
I0
sI105
I0
sI106
I0
sI107
I0
sI108
I0
sI109
I0
sI110
I0
sI111
I0
sI112
I0
ssI80
(dp80
I1
I0
sI2
I0
sI3
I0
sI4
I0
sI5
I0
sI6
I0
sI7
I0
sI8
I0
sI9
I0
sI10
I0
sI11
I0
sI12
I0
sI13
I0
sI14
I0
sI15
I0
sI16
F0.07142857142857142
sI17
I0
sI18
I0
sI19
I0
sI20
I0
sI21
F0.09090909090909091
sI22
I0
sI23
I0
sI24
I0
sI25
I0
sI26
I0
sI27
F0.1
sI28
F0.1
sI29
I0
sI30
F0.16666666666666666
sI31
F0.16666666666666666
sI32
F0.07692307692307693
sI33
I0
sI34
I0
sI35
I0
sI36
I0
sI37
I0
sI38
I0
sI39
I0
sI40
I0
sI41
I0
sI42
I0
sI43
F0.1
sI44
I0
sI45
I0
sI46
I0
sI47
I0
sI48
I0
sI49
I0
sI50
I0
sI51
I0
sI52
I0
sI53
I0
sI54
I0
sI55
I0
sI56
I0
sI57
I0
sI58
I0
sI59
I0
sI60
I0
sI61
I0
sI62
I0
sI63
I0
sI64
I0
sI65
I0
sI66
I0
sI67
I0
sI68
I0
sI69
I0
sI70
I0
sI71
I0
sI72
I0
sI73
I0
sI74
I0
sI75
I0
sI76
I0
sI77
I0
sI78
I0
sI79
I0
sI80
I0
sI81
I0
sI82
F0.1
sI83
I0
sI84
F0.06666666666666667
sI85
I0
sI86
I0
sI87
I0
sI88
I0
sI89
I0
sI90
I0
sI91
I0
sI92
I0
sI93
I0
sI94
I0
sI95
I0
sI96
I0
sI97
I0
sI98
I0
sI99
I0
sI100
I0
sI101
I0
sI102
I0
sI103
I0
sI104
I0
sI105
I0
sI106
I0
sI107
I0
sI108
I0
sI109
I0
sI110
F0.08333333333333333
sI111
F0.07692307692307693
sI112
I0
ssI81
(dp81
I1
I0
sI2
I0
sI3
I0
sI4
I0
sI5
I0
sI6
I0
sI7
I0
sI8
I0
sI9
I0
sI10
I0
sI11
I0
sI12
I0
sI13
I0
sI14
I0
sI15
I0
sI16
I0
sI17
I0
sI18
F0.0625
sI19
I0
sI20
I0
sI21
I0
sI22
I0
sI23
I0
sI24
I0
sI25
I0
sI26
I0
sI27
F0.058823529411764705
sI28
F0.06666666666666667
sI29
I0
sI30
I0
sI31
I0
sI32
I0
sI33
I0
sI34
I0
sI35
I0
sI36
I0
sI37
I0
sI38
I0
sI39
I0
sI40
I0
sI41
I0
sI42
I0
sI43
I0
sI44
I0
sI45
I0
sI46
I0
sI47
I0
sI48
I0
sI49
I0
sI50
I0
sI51
I0
sI52
I0
sI53
I0
sI54
I0
sI55
I0
sI56
I0
sI57
I0
sI58
I0
sI59
I0
sI60
I0
sI61
I0
sI62
I0
sI63
I0
sI64
I0
sI65
I0
sI66
I0
sI67
I0
sI68
I0
sI69
I0
sI70
I0
sI71
I0
sI72
I0
sI73
F0.05555555555555555
sI74
I0
sI75
I0
sI76
I0
sI77
I0
sI78
I0
sI79
I0
sI80
I0
sI81
I0
sI82
F0.06666666666666667
sI83
I0
sI84
I0
sI85
I0
sI86
I0
sI87
I0
sI88
I0
sI89
I0
sI90
I0
sI91
I0
sI92
I0
sI93
I0
sI94
I0
sI95
I0
sI96
I0
sI97
I0
sI98
I0
sI99
I0
sI100
I0
sI101
I0
sI102
I0
sI103
I0
sI104
I0
sI105
I0
sI106
I0
sI107
I-1
sI108
I0
sI109
I0
sI110
I0
sI111
I0
sI112
I0
ssI82
(dp82
I1
I0
sI2
I0
sI3
I0
sI4
I0
sI5
I0
sI6
I0
sI7
I0
sI8
I0
sI9
I0
sI10
I0
sI11
I0
sI12
I0
sI13
I0
sI14
I0
sI15
I0
sI16
I0
sI17
I0
sI18
I0
sI19
I0
sI20
I0
sI21
I0
sI22
I0
sI23
I0
sI24
I0
sI25
I0
sI26
I0
sI27
I0
sI28
I0
sI29
I0
sI30
I0
sI31
I0
sI32
I0
sI33
I0
sI34
I0
sI35
I0
sI36
I0
sI37
I0
sI38
I0
sI39
I0
sI40
I0
sI41
I0
sI42
I0
sI43
I0
sI44
I0
sI45
I0
sI46
I0
sI47
I0
sI48
I0
sI49
I0
sI50
I0
sI51
I0
sI52
I0
sI53
I0
sI54
I0
sI55
I0
sI56
I0
sI57
I0
sI58
I0
sI59
I0
sI60
I0
sI61
I0
sI62
I0
sI63
I0
sI64
I0
sI65
I0
sI66
I0
sI67
I0
sI68
I0
sI69
I0
sI70
I0
sI71
I0
sI72
I0
sI73
I0
sI74
I0
sI75
I0
sI76
I0
sI77
I0
sI78
I0
sI79
I0
sI80
F0.1
sI81
F0.06666666666666667
sI82
I0
sI83
I0
sI84
I0
sI85
I0
sI86
I0
sI87
I0
sI88
I0
sI89
I0
sI90
I0
sI91
I0
sI92
I0
sI93
I0
sI94
I0
sI95
F0.1
sI96
I0
sI97
I0
sI98
I0
sI99
I0
sI100
I0
sI101
I0
sI102
I0
sI103
I0
sI104
I0
sI105
F0.09090909090909091
sI106
I0
sI107
I0
sI108
I0
sI109
I0
sI110
I0
sI111
I0
sI112
I0
ssI83
(dp83
I1
I0
sI2
I0
sI3
I0
sI4
I0
sI5
I0
sI6
I0
sI7
I0
sI8
I0
sI9
I0
sI10
I0
sI11
I0
sI12
I0
sI13
I0
sI14
I0
sI15
I0
sI16
I0
sI17
I0
sI18
F0.06666666666666667
sI19
I0
sI20
I0
sI21
I0
sI22
I0
sI23
I0
sI24
I0
sI25
I0
sI26
I0
sI27
I0
sI28
I0
sI29
I0
sI30
I0
sI31
I0
sI32
I0
sI33
I0
sI34
I0
sI35
I0
sI36
I0
sI37
I0
sI38
I0
sI39
I0
sI40
I0
sI41
I0
sI42
I0
sI43
I0
sI44
I0
sI45
I0
sI46
I0
sI47
I0
sI48
I0
sI49
I0
sI50
I0
sI51
I0
sI52
I0
sI53
I0
sI54
I0
sI55
I0
sI56
I0
sI57
I0
sI58
I0
sI59
I0
sI60
I0
sI61
I0
sI62
I0
sI63
I0
sI64
I0
sI65
I0
sI66
I0
sI67
I0
sI68
I0
sI69
I0
sI70
I0
sI71
I0
sI72
I0
sI73
I0
sI74
I0
sI75
I0
sI76
I0
sI77
I0
sI78
I0
sI79
I0
sI80
I0
sI81
I0
sI82
I0
sI83
I0
sI84
I0
sI85
I0
sI86
I0
sI87
I0
sI88
I0
sI89
I0
sI90
I0
sI91
I0
sI92
I0
sI93
I0
sI94
I0
sI95
I0
sI96
I0
sI97
I0
sI98
I0
sI99
I0
sI100
I0
sI101
I0
sI102
I0
sI103
I0
sI104
I0
sI105
I0
sI106
I0
sI107
I0
sI108
I0
sI109
I0
sI110
I0
sI111
I0
sI112
I0
ssI84
(dp84
I1
I0
sI2
I0
sI3
F0.07692307692307693
sI4
I0
sI5
I0
sI6
I0
sI7
I0
sI8
I0
sI9
I0
sI10
I0
sI11
I0
sI12
I0
sI13
I0
sI14
I0
sI15
I0
sI16
I0
sI17
I0
sI18
F0.07692307692307693
sI19
I0
sI20
I0
sI21
I0
sI22
I0
sI23
I0
sI24
I0
sI25
I0
sI26
I0
sI27
I0
sI28
I0
sI29
I0
sI30
I0
sI31
I0
sI32
I0
sI33
I0
sI34
I0
sI35
I0
sI36
I0
sI37
I0
sI38
I0
sI39
I0
sI40
I0
sI41
I0
sI42
I0
sI43
I0
sI44
I0
sI45
I0
sI46
I0
sI47
I0
sI48
I0
sI49
I0
sI50
I0
sI51
I0
sI52
I0
sI53
I0
sI54
I0
sI55
I0
sI56
I0
sI57
I0
sI58
I0
sI59
I0
sI60
I0
sI61
I0
sI62
I0
sI63
I0
sI64
I0
sI65
I0
sI66
I0
sI67
I0
sI68
I0
sI69
I0
sI70
I0
sI71
I0
sI72
I0
sI73
I0
sI74
I0
sI75
I0
sI76
I0
sI77
I0
sI78
I0
sI79
I0
sI80
F0.06666666666666667
sI81
I0
sI82
I0
sI83
I0
sI84
I0
sI85
I0
sI86
I0
sI87
I0
sI88
F0.09090909090909091
sI89
I0
sI90
I0
sI91
I0
sI92
I0
sI93
I0
sI94
I0
sI95
I0
sI96
I0
sI97
I0
sI98
I0
sI99
I0
sI100
I0
sI101
I0
sI102
I0
sI103
I0
sI104
I0
sI105
I0
sI106
I0
sI107
I0
sI108
I0
sI109
I0
sI110
I0
sI111
I0
sI112
I0
ssI85
(dp85
I1
I0
sI2
I0
sI3
I0
sI4
I0
sI5
I0
sI6
I0
sI7
I0
sI8
I0
sI9
I0
sI10
I0
sI11
I0
sI12
I0
sI13
I0
sI14
I0
sI15
I0
sI16
I0
sI17
I0
sI18
F0.0625
sI19
I0
sI20
I0
sI21
I0
sI22
I0
sI23
I0
sI24
I0
sI25
I0
sI26
I0
sI27
I0
sI28
I0
sI29
I0
sI30
I0
sI31
F0.06666666666666667
sI32
I0
sI33
I0
sI34
F0.0625
sI35
I0
sI36
I0
sI37
I0
sI38
I0
sI39
I0
sI40
I0
sI41
I0
sI42
I0
sI43
I0
sI44
I0
sI45
I0
sI46
I0
sI47
I0
sI48
I0
sI49
I0
sI50
I0
sI51
I0
sI52
I0
sI53
I0
sI54
I0
sI55
I0
sI56
I0
sI57
I0
sI58
I0
sI59
I0
sI60
I0
sI61
I0
sI62
I0
sI63
I0
sI64
I0
sI65
I0
sI66
F0.058823529411764705
sI67
I0
sI68
I0
sI69
I0
sI70
I0
sI71
I0
sI72
I0
sI73
I0
sI74
I0
sI75
I0
sI76
I0
sI77
I0
sI78
I0
sI79
I0
sI80
I0
sI81
I0
sI82
I0
sI83
I0
sI84
I0
sI85
I0
sI86
I0
sI87
I0
sI88
I0
sI89
I0
sI90
I0
sI91
I0
sI92
I0
sI93
I0
sI94
I0
sI95
I0
sI96
I0
sI97
I0
sI98
I0
sI99
I0
sI100
I0
sI101
I0
sI102
I0
sI103
I0
sI104
I0
sI105
F0.06666666666666667
sI106
I0
sI107
I0
sI108
I0
sI109
I0
sI110
I0
sI111
I0
sI112
I0
ssI86
(dp86
I1
I0
sI2
I0
sI3
I0
sI4
F0.1
sI5
I0
sI6
I0
sI7
I0
sI8
I0
sI9
I0
sI10
I0
sI11
I0
sI12
I0
sI13
I0
sI14
I0
sI15
I0
sI16
I0
sI17
I0
sI18
F0.125
sI19
I0
sI20
I0
sI21
I0
sI22
I0
sI23
I0
sI24
I0
sI25
I0
sI26
I0
sI27
I0
sI28
I0
sI29
I0
sI30
I0
sI31
I0
sI32
I0
sI33
I0
sI34
I0
sI35
I0
sI36
I0
sI37
I0
sI38
I0
sI39
I0
sI40
I0
sI41
I0
sI42
I0
sI43
I0
sI44
I0
sI45
I0
sI46
I0
sI47
I0
sI48
I0
sI49
I0
sI50
I0
sI51
I0
sI52
I0
sI53
I0
sI54
I0
sI55
I0
sI56
I0
sI57
I0
sI58
I0
sI59
I0
sI60
I0
sI61
I0
sI62
I0
sI63
I0
sI64
I0
sI65
I0
sI66
I0
sI67
I0
sI68
I0
sI69
I0
sI70
I0
sI71
I0
sI72
I0
sI73
I0
sI74
I0
sI75
I0
sI76
I0
sI77
I0
sI78
I0
sI79
I0
sI80
I0
sI81
I0
sI82
I0
sI83
I0
sI84
I0
sI85
I0
sI86
I0
sI87
I0
sI88
I0
sI89
I0
sI90
I0
sI91
I0
sI92
I0
sI93
I0
sI94
I0
sI95
I0
sI96
I0
sI97
I0
sI98
I0
sI99
I0
sI100
I0
sI101
I0
sI102
I0
sI103
I0
sI104
I0
sI105
I0
sI106
I0
sI107
I0
sI108
I0
sI109
I0
sI110
I0
sI111
I0
sI112
I0
ssI87
(dp87
I1
I0
sI2
I0
sI3
I0
sI4
I0
sI5
I0
sI6
I0
sI7
I0
sI8
I0
sI9
I0
sI10
I0
sI11
I0
sI12
I0
sI13
I0
sI14
I0
sI15
I0
sI16
I0
sI17
I0
sI18
F0.1111111111111111
sI19
I0
sI20
I0
sI21
I0
sI22
I0
sI23
I0
sI24
I0
sI25
I0
sI26
I0
sI27
I0
sI28
I0
sI29
I0
sI30
I0
sI31
I0
sI32
F0.09090909090909091
sI33
I0
sI34
I0
sI35
I0
sI36
I0
sI37
I0
sI38
I0
sI39
I0
sI40
I0
sI41
I0
sI42
I0
sI43
I0
sI44
I0
sI45
I0
sI46
I0
sI47
I0
sI48
I0
sI49
I0
sI50
I0
sI51
I0
sI52
I0
sI53
I0
sI54
I0
sI55
I0
sI56
I0
sI57
I0
sI58
I0
sI59
I0
sI60
I0
sI61
I0
sI62
I0
sI63
I0
sI64
I0
sI65
I0
sI66
I0
sI67
I0
sI68
I0
sI69
I0
sI70
I0
sI71
I0
sI72
I0
sI73
I0
sI74
I0
sI75
I0
sI76
I0
sI77
I0
sI78
I0
sI79
I0
sI80
I0
sI81
I0
sI82
I0
sI83
I0
sI84
I0
sI85
I0
sI86
I0
sI87
I0
sI88
I0
sI89
I0
sI90
I0
sI91
I0
sI92
I0
sI93
I0
sI94
I0
sI95
I0
sI96
I0
sI97
I0
sI98
I0
sI99
I0
sI100
I0
sI101
I0
sI102
I0
sI103
I0
sI104
I0
sI105
I0
sI106
I0
sI107
I0
sI108
I0
sI109
I0
sI110
I0
sI111
I0
sI112
I0
ssI88
(dp88
I1
I0
sI2
I0
sI3
I0
sI4
I0
sI5
I0
sI6
I0
sI7
I0
sI8
F0.08333333333333333
sI9
I0
sI10
I0
sI11
I0
sI12
I0
sI13
F0.1111111111111111
sI14
I0
sI15
I0
sI16
I0
sI17
I0
sI18
F0.09090909090909091
sI19
I0
sI20
I0
sI21
I0
sI22
I0
sI23
I0
sI24
I0
sI25
F0.09090909090909091
sI26
I0
sI27
I0
sI28
F0.1
sI29
I0
sI30
I0
sI31
I0
sI32
I0
sI33
I0
sI34
I0
sI35
I0
sI36
I0
sI37
F0.07692307692307693
sI38
I0
sI39
I0
sI40
I0
sI41
I0
sI42
I0
sI43
I0
sI44
I0
sI45
I0
sI46
I0
sI47
I0
sI48
I0
sI49
I0
sI50
I0
sI51
I0
sI52
I0
sI53
I0
sI54
I0
sI55
I0
sI56
I0
sI57
I0
sI58
I0
sI59
I0
sI60
I0
sI61
I0
sI62
I0
sI63
I0
sI64
I0
sI65
I0
sI66
F0.08333333333333333
sI67
I0
sI68
F0.07692307692307693
sI69
I0
sI70
I0
sI71
F0.2
sI72
I0
sI73
I0
sI74
I0
sI75
I0
sI76
I0
sI77
I0
sI78
I0
sI79
I0
sI80
I0
sI81
I0
sI82
I0
sI83
I0
sI84
F0.09090909090909091
sI85
I0
sI86
I0
sI87
I0
sI88
I0
sI89
I0
sI90
I0
sI91
I0
sI92
I0
sI93
I0
sI94
I0
sI95
I0
sI96
I0
sI97
I0
sI98
I0
sI99
I0
sI100
I0
sI101
I0
sI102
I0
sI103
I0
sI104
I0
sI105
I0
sI106
I0
sI107
I0
sI108
I0
sI109
I0
sI110
I0
sI111
I0
sI112
I0
ssI89
(dp89
I1
I0
sI2
I0
sI3
I0
sI4
I0
sI5
I0
sI6
I0
sI7
I0
sI8
I0
sI9
I0
sI10
I0
sI11
I0
sI12
I0
sI13
I0
sI14
I0
sI15
I0
sI16
I0
sI17
I0
sI18
I0
sI19
I0
sI20
I0
sI21
I0
sI22
I0
sI23
I0
sI24
I0
sI25
I0
sI26
I0
sI27
I0
sI28
I0
sI29
I0
sI30
I0
sI31
I0
sI32
I0
sI33
I0
sI34
I0
sI35
I0
sI36
I0
sI37
I0
sI38
I0
sI39
I0
sI40
I0
sI41
I0
sI42
I0
sI43
I0
sI44
I0
sI45
I0
sI46
I0
sI47
I0
sI48
I0
sI49
I0
sI50
I0
sI51
I0
sI52
I0
sI53
I0
sI54
I0
sI55
I0
sI56
I0
sI57
I0
sI58
I0
sI59
I0
sI60
I0
sI61
I0
sI62
I0
sI63
I0
sI64
I0
sI65
I0
sI66
I0
sI67
I0
sI68
I0
sI69
I0
sI70
I0
sI71
I0
sI72
I0
sI73
I0
sI74
I0
sI75
I0
sI76
I0
sI77
I0
sI78
I0
sI79
I0
sI80
I0
sI81
I0
sI82
I0
sI83
I0
sI84
I0
sI85
I0
sI86
I0
sI87
I0
sI88
I0
sI89
I0
sI90
I0
sI91
I0
sI92
I0
sI93
I0
sI94
I0
sI95
I0
sI96
I0
sI97
I0
sI98
I0
sI99
I0
sI100
I0
sI101
I0
sI102
I0
sI103
I0
sI104
I0
sI105
I0
sI106
I0
sI107
I-1
sI108
I0
sI109
I0
sI110
I0
sI111
I0
sI112
I0
ssI90
(dp90
I1
I0
sI2
I0
sI3
I0
sI4
I0
sI5
I0
sI6
I-1
sI7
I0
sI8
I0
sI9
F0.1
sI10
I0
sI11
I0
sI12
I0
sI13
I0
sI14
I0
sI15
I0
sI16
I0
sI17
I0
sI18
F0.1111111111111111
sI19
I0
sI20
I0
sI21
I0
sI22
I0
sI23
I0
sI24
I0
sI25
I0
sI26
I0
sI27
I0
sI28
I0
sI29
F0.1111111111111111
sI30
I0
sI31
I0
sI32
I0
sI33
I0
sI34
I0
sI35
I0
sI36
I0
sI37
I0
sI38
I0
sI39
I0
sI40
I0
sI41
I0
sI42
I0
sI43
I0
sI44
I0
sI45
I0
sI46
I0
sI47
I0
sI48
I0
sI49
I0
sI50
I0
sI51
I0
sI52
I0
sI53
I0
sI54
F0.06666666666666667
sI55
I0
sI56
I0
sI57
I0
sI58
I0
sI59
I0
sI60
I0
sI61
I0
sI62
I0
sI63
I0
sI64
I0
sI65
I0
sI66
I0
sI67
I0
sI68
I0
sI69
I0
sI70
I0
sI71
I0
sI72
I0
sI73
I0
sI74
I0
sI75
I0
sI76
I0
sI77
I0
sI78
I0
sI79
I0
sI80
I0
sI81
I0
sI82
I0
sI83
I0
sI84
I0
sI85
I0
sI86
I0
sI87
I0
sI88
I0
sI89
I0
sI90
I0
sI91
I0
sI92
I0
sI93
F0.125
sI94
I0
sI95
I0
sI96
I0
sI97
I0
sI98
I0
sI99
I0
sI100
F0.1111111111111111
sI101
I0
sI102
I0
sI103
I0
sI104
I0
sI105
I0
sI106
I0
sI107
I0
sI108
I0
sI109
I0
sI110
I0
sI111
I0
sI112
I0
ssI91
(dp91
I1
I0
sI2
I0
sI3
I0
sI4
I0
sI5
I0
sI6
I0
sI7
I0
sI8
I0
sI9
I0
sI10
I0
sI11
I0
sI12
I0
sI13
I0
sI14
I0
sI15
I0
sI16
I0
sI17
I0
sI18
I0
sI19
I0
sI20
I0
sI21
I0
sI22
I0
sI23
I0
sI24
I0
sI25
I0
sI26
I0
sI27
I0
sI28
I0
sI29
I0
sI30
I0
sI31
I0
sI32
I0
sI33
I0
sI34
I0
sI35
I0
sI36
I0
sI37
I0
sI38
I0
sI39
I0
sI40
I0
sI41
I0
sI42
I0
sI43
F0.14285714285714285
sI44
I0
sI45
I0
sI46
I0
sI47
I0
sI48
I0
sI49
I0
sI50
I0
sI51
I0
sI52
I0
sI53
I0
sI54
I0
sI55
I0
sI56
I0
sI57
I0
sI58
I0
sI59
I0
sI60
I0
sI61
I0
sI62
I0
sI63
I0
sI64
I0
sI65
I0
sI66
I0
sI67
I0
sI68
I0
sI69
I0
sI70
I0
sI71
I0
sI72
I0
sI73
I0
sI74
I0
sI75
I0
sI76
I0
sI77
I0
sI78
I0
sI79
I0
sI80
I0
sI81
I0
sI82
I0
sI83
I0
sI84
I0
sI85
I0
sI86
I0
sI87
I0
sI88
I0
sI89
I0
sI90
I0
sI91
I0
sI92
I0
sI93
I0
sI94
I0
sI95
I0
sI96
I0
sI97
I0
sI98
I0
sI99
I0
sI100
I0
sI101
I0
sI102
I0
sI103
I0
sI104
I0
sI105
I0
sI106
I0
sI107
I0
sI108
I0
sI109
I0
sI110
I0
sI111
I0
sI112
I0
ssI92
(dp92
I1
I0
sI2
I0
sI3
I0
sI4
I0
sI5
I0
sI6
I0
sI7
I0
sI8
I0
sI9
I0
sI10
I0
sI11
I0
sI12
I0
sI13
I0
sI14
I0
sI15
I0
sI16
I0
sI17
I0
sI18
I0
sI19
I0
sI20
I0
sI21
I0
sI22
I0
sI23
I0
sI24
I0
sI25
I0
sI26
I0
sI27
I0
sI28
I0
sI29
I0
sI30
I0
sI31
I0
sI32
I0
sI33
I0
sI34
I0
sI35
I0
sI36
I0
sI37
I0
sI38
I0
sI39
I0
sI40
I0
sI41
I0
sI42
I0
sI43
I0
sI44
I0
sI45
I0
sI46
I0
sI47
I0
sI48
I0
sI49
I0
sI50
I0
sI51
I0
sI52
I0
sI53
I0
sI54
I0
sI55
I0
sI56
I0
sI57
I0
sI58
I0
sI59
I0
sI60
I0
sI61
I0
sI62
I0
sI63
I0
sI64
I0
sI65
I0
sI66
I0
sI67
I0
sI68
I0
sI69
I0
sI70
I0
sI71
I0
sI72
I0
sI73
I0
sI74
I0
sI75
I0
sI76
I0
sI77
I0
sI78
I0
sI79
I0
sI80
I0
sI81
I0
sI82
I0
sI83
I0
sI84
I0
sI85
I0
sI86
I0
sI87
I0
sI88
I0
sI89
I0
sI90
I0
sI91
I0
sI92
I0
sI93
I0
sI94
I0
sI95
I0
sI96
I0
sI97
I0
sI98
I0
sI99
I0
sI100
I0
sI101
I0
sI102
I0
sI103
I0
sI104
I0
sI105
I0
sI106
I0
sI107
I0
sI108
I0
sI109
I0
sI110
I0
sI111
I0
sI112
I0
ssI93
(dp93
I1
I0
sI2
I0
sI3
I0
sI4
I0
sI5
I0
sI6
I0
sI7
I0
sI8
I0
sI9
I0
sI10
I0
sI11
I0
sI12
I0
sI13
I0
sI14
I0
sI15
I0
sI16
I0
sI17
I0
sI18
I0
sI19
I0
sI20
I0
sI21
I0
sI22
I0
sI23
I0
sI24
I0
sI25
I0
sI26
I0
sI27
I0
sI28
I0
sI29
F0.125
sI30
I0
sI31
F0.14285714285714285
sI32
I0
sI33
I0
sI34
I0
sI35
I0
sI36
I0
sI37
I0
sI38
I0
sI39
I0
sI40
I0
sI41
I0
sI42
I0
sI43
I0
sI44
I0
sI45
I0
sI46
I0
sI47
I0
sI48
I0
sI49
I0
sI50
I0
sI51
I0
sI52
I0
sI53
I0
sI54
I0
sI55
I0
sI56
I0
sI57
I0
sI58
I0
sI59
I0
sI60
I0
sI61
I0
sI62
I0
sI63
I0
sI64
I0
sI65
I0
sI66
I0
sI67
I0
sI68
I0
sI69
I0
sI70
I0
sI71
I0
sI72
I0
sI73
I0
sI74
I0
sI75
I0
sI76
I0
sI77
I0
sI78
I0
sI79
I0
sI80
I0
sI81
I0
sI82
I0
sI83
I0
sI84
I0
sI85
I0
sI86
I0
sI87
I0
sI88
I0
sI89
I0
sI90
F0.125
sI91
I0
sI92
I0
sI93
I0
sI94
I0
sI95
I0
sI96
F0.09090909090909091
sI97
F0.1
sI98
I0
sI99
I0
sI100
I0
sI101
I0
sI102
I0
sI103
I0
sI104
I0
sI105
I0
sI106
I0
sI107
I0
sI108
I0
sI109
I0
sI110
I0
sI111
I0
sI112
I0
ssI94
(dp94
I1
I0
sI2
I0
sI3
I0
sI4
I0
sI5
I0
sI6
I0
sI7
I0
sI8
I0
sI9
I0
sI10
I0
sI11
I0
sI12
I0
sI13
I0
sI14
I0
sI15
I0
sI16
I0
sI17
I0
sI18
I0
sI19
I0
sI20
I0
sI21
I0
sI22
I0
sI23
I0
sI24
I0
sI25
I0
sI26
I0
sI27
I0
sI28
I0
sI29
I0
sI30
I0
sI31
I0
sI32
I0
sI33
I0
sI34
I0
sI35
I0
sI36
I0
sI37
I0
sI38
I0
sI39
I0
sI40
I0
sI41
I0
sI42
I0
sI43
I0
sI44
I0
sI45
I0
sI46
I0
sI47
I0
sI48
I0
sI49
I0
sI50
I0
sI51
I0
sI52
I0
sI53
I0
sI54
I0
sI55
I0
sI56
I0
sI57
I0
sI58
I0
sI59
I0
sI60
I0
sI61
I0
sI62
I0
sI63
I0
sI64
I0
sI65
I0
sI66
I0
sI67
I0
sI68
I0
sI69
I0
sI70
I0
sI71
I0
sI72
I0
sI73
I0
sI74
I0
sI75
I0
sI76
I0
sI77
I0
sI78
I0
sI79
I0
sI80
I0
sI81
I0
sI82
I0
sI83
I0
sI84
I0
sI85
I0
sI86
I0
sI87
I0
sI88
I0
sI89
I0
sI90
I0
sI91
I0
sI92
I0
sI93
I0
sI94
I0
sI95
I0
sI96
I0
sI97
I0
sI98
I0
sI99
I0
sI100
I0
sI101
I0
sI102
I0
sI103
I0
sI104
I0
sI105
I0
sI106
I0
sI107
I0
sI108
I0
sI109
I0
sI110
I0
sI111
I0
sI112
I0
ssI95
(dp95
I1
I0
sI2
I0
sI3
I0
sI4
I0
sI5
I0
sI6
I0
sI7
I0
sI8
I0
sI9
I0
sI10
I0
sI11
I0
sI12
I0
sI13
I0
sI14
I0
sI15
I0
sI16
I0
sI17
I0
sI18
I0
sI19
I0
sI20
I0
sI21
F0.07692307692307693
sI22
I0
sI23
F0.08333333333333333
sI24
I0
sI25
I0
sI26
I0
sI27
I0
sI28
I0
sI29
I0
sI30
I0
sI31
I0
sI32
I0
sI33
I0
sI34
I0
sI35
I0
sI36
I0
sI37
I0
sI38
I0
sI39
I0
sI40
I0
sI41
I0
sI42
I0
sI43
I0
sI44
I0
sI45
I0
sI46
I0
sI47
I0
sI48
I0
sI49
I0
sI50
I0
sI51
I0
sI52
I0
sI53
I0
sI54
I0
sI55
I0
sI56
I0
sI57
I0
sI58
I0
sI59
I0
sI60
I0
sI61
I0
sI62
I0
sI63
I0
sI64
I0
sI65
I0
sI66
I0
sI67
I0
sI68
I0
sI69
I0
sI70
I0
sI71
I0
sI72
I0
sI73
I0
sI74
I0
sI75
I0
sI76
I0
sI77
I0
sI78
I0
sI79
I0
sI80
I0
sI81
I0
sI82
F0.1
sI83
I0
sI84
I0
sI85
I0
sI86
I0
sI87
I0
sI88
I0
sI89
I0
sI90
I0
sI91
I0
sI92
I0
sI93
I0
sI94
I0
sI95
I0
sI96
I0
sI97
I0
sI98
I0
sI99
I0
sI100
I0
sI101
I0
sI102
I0
sI103
I0
sI104
I0
sI105
I0
sI106
I0
sI107
I0
sI108
I0
sI109
I0
sI110
I0
sI111
I0
sI112
I0
ssI96
(dp96
I1
I0
sI2
I0
sI3
I0
sI4
I0
sI5
I0
sI6
I0
sI7
I0
sI8
I0
sI9
I0
sI10
I0
sI11
I0
sI12
I0
sI13
I0
sI14
I0
sI15
I0
sI16
I0
sI17
I0
sI18
I0
sI19
I0
sI20
I0
sI21
I0
sI22
I0
sI23
I0
sI24
I0
sI25
I0
sI26
I0
sI27
I0
sI28
I0
sI29
I0
sI30
I0
sI31
I0
sI32
I0
sI33
I0
sI34
I0
sI35
I0
sI36
I0
sI37
I0
sI38
I0
sI39
I0
sI40
I0
sI41
I0
sI42
I0
sI43
I0
sI44
I0
sI45
I0
sI46
I0
sI47
I0
sI48
I0
sI49
I0
sI50
I0
sI51
I0
sI52
I0
sI53
I0
sI54
I0
sI55
I0
sI56
I0
sI57
I0
sI58
I0
sI59
I0
sI60
I0
sI61
I0
sI62
I0
sI63
I0
sI64
I0
sI65
I0
sI66
I0
sI67
I0
sI68
I0
sI69
I0
sI70
I0
sI71
I0
sI72
I0
sI73
I0
sI74
I0
sI75
I0
sI76
I0
sI77
I0
sI78
I0
sI79
I0
sI80
I0
sI81
I0
sI82
I0
sI83
I0
sI84
I0
sI85
I0
sI86
I0
sI87
I0
sI88
I0
sI89
I0
sI90
I0
sI91
I0
sI92
I0
sI93
F0.09090909090909091
sI94
I0
sI95
I0
sI96
I0
sI97
I0
sI98
I0
sI99
I0
sI100
I0
sI101
I0
sI102
I0
sI103
I0
sI104
I0
sI105
I0
sI106
I0
sI107
I0
sI108
I0
sI109
I0
sI110
I0
sI111
I0
sI112
I0
ssI97
(dp97
I1
I0
sI2
I0
sI3
I0
sI4
I0
sI5
I0
sI6
I0
sI7
I0
sI8
I0
sI9
I0
sI10
I0
sI11
I0
sI12
I0
sI13
I0
sI14
I0
sI15
I0
sI16
I0
sI17
I0
sI18
I0
sI19
I0
sI20
I0
sI21
I0
sI22
I0
sI23
I0
sI24
I0
sI25
I0
sI26
I0
sI27
I0
sI28
F0.125
sI29
I0
sI30
I0
sI31
I0
sI32
I0
sI33
I0
sI34
I0
sI35
I0
sI36
I0
sI37
I0
sI38
I0
sI39
I0
sI40
I0
sI41
I0
sI42
I0
sI43
I0
sI44
I0
sI45
I0
sI46
I0
sI47
I0
sI48
I0
sI49
I0
sI50
I0
sI51
I0
sI52
I0
sI53
I0
sI54
I0
sI55
I0
sI56
I0
sI57
I0
sI58
I0
sI59
I0
sI60
I0
sI61
I0
sI62
I0
sI63
I0
sI64
I0
sI65
I0
sI66
I0
sI67
I0
sI68
I0
sI69
I0
sI70
I0
sI71
I0
sI72
I0
sI73
I0
sI74
I0
sI75
I0
sI76
I0
sI77
I0
sI78
I0
sI79
I0
sI80
I0
sI81
I0
sI82
I0
sI83
I0
sI84
I0
sI85
I0
sI86
I0
sI87
I0
sI88
I0
sI89
I0
sI90
I0
sI91
I0
sI92
I0
sI93
F0.1
sI94
I0
sI95
I0
sI96
I0
sI97
I0
sI98
I0
sI99
I0
sI100
I0
sI101
I0
sI102
I0
sI103
I0
sI104
I0
sI105
I0
sI106
I0
sI107
I-1
sI108
I0
sI109
I0
sI110
I0
sI111
I0
sI112
I0
ssI98
(dp98
I1
I0
sI2
I0
sI3
F0.1111111111111111
sI4
I0
sI5
I0
sI6
I0
sI7
I0
sI8
I0
sI9
I0
sI10
I0
sI11
I0
sI12
I0
sI13
I0
sI14
I0
sI15
I0
sI16
I0
sI17
I0
sI18
I0
sI19
I0
sI20
I0
sI21
I0
sI22
I0
sI23
I0
sI24
I0
sI25
I0
sI26
I0
sI27
I0
sI28
I0
sI29
I0
sI30
I0
sI31
I0
sI32
I0
sI33
I0
sI34
I0
sI35
I0
sI36
I0
sI37
I0
sI38
I0
sI39
I0
sI40
I0
sI41
I0
sI42
I0
sI43
I0
sI44
I0
sI45
I0
sI46
I0
sI47
I0
sI48
I0
sI49
I0
sI50
I0
sI51
I0
sI52
I0
sI53
I0
sI54
I0
sI55
I0
sI56
I0
sI57
I0
sI58
I0
sI59
I0
sI60
I0
sI61
I0
sI62
I0
sI63
I0
sI64
I0
sI65
I0
sI66
I0
sI67
I0
sI68
I0
sI69
I0
sI70
I0
sI71
I0
sI72
I0
sI73
I0
sI74
I0
sI75
I0
sI76
I0
sI77
I0
sI78
I0
sI79
I0
sI80
I0
sI81
I0
sI82
I0
sI83
I0
sI84
I0
sI85
I0
sI86
I0
sI87
I0
sI88
I0
sI89
I0
sI90
I0
sI91
I0
sI92
I0
sI93
I0
sI94
I0
sI95
I0
sI96
I0
sI97
I0
sI98
I0
sI99
I0
sI100
I0
sI101
I0
sI102
I0
sI103
I0
sI104
I0
sI105
I0
sI106
I0
sI107
I0
sI108
I0
sI109
I0
sI110
I0
sI111
I0
sI112
I0
ssI99
(dp99
I1
I0
sI2
I0
sI3
I0
sI4
I0
sI5
I0
sI6
I0
sI7
I0
sI8
I0
sI9
I0
sI10
I0
sI11
I0
sI12
I0
sI13
I0
sI14
I0
sI15
I0
sI16
I0
sI17
I0
sI18
I0
sI19
I0
sI20
I0
sI21
I0
sI22
I0
sI23
I0
sI24
I0
sI25
I0
sI26
I0
sI27
I0
sI28
I0
sI29
I0
sI30
I0
sI31
I0
sI32
I0
sI33
I0
sI34
I0
sI35
I0
sI36
I0
sI37
I0
sI38
I0
sI39
I0
sI40
I0
sI41
I0
sI42
I0
sI43
I0
sI44
NsI45
I0
sI46
I0
sI47
I0
sI48
I0
sI49
I0
sI50
I0
sI51
I0
sI52
I0
sI53
I0
sI54
I0
sI55
I0
sI56
I0
sI57
I0
sI58
I0
sI59
I0
sI60
I0
sI61
I0
sI62
I0
sI63
I0
sI64
I0
sI65
I0
sI66
I0
sI67
I0
sI68
I0
sI69
I0
sI70
I0
sI71
I0
sI72
I0
sI73
I0
sI74
I0
sI75
I0
sI76
I0
sI77
I0
sI78
I0
sI79
I0
sI80
I0
sI81
I0
sI82
I0
sI83
I0
sI84
I0
sI85
I0
sI86
I0
sI87
I0
sI88
I0
sI89
I0
sI90
I0
sI91
I0
sI92
I0
sI93
I0
sI94
I0
sI95
I0
sI96
I0
sI97
I0
sI98
I0
sI99
I0
sI100
I0
sI101
I0
sI102
I0
sI103
I0
sI104
I0
sI105
I0
sI106
I0
sI107
I0
sI108
I0
sI109
I0
sI110
I0
sI111
I0
sI112
I0
ssI100
(dp100
I1
I0
sI2
I0
sI3
I0
sI4
I0
sI5
I0
sI6
I0
sI7
I0
sI8
I0
sI9
I0
sI10
I0
sI11
I0
sI12
I0
sI13
I0
sI14
I0
sI15
I0
sI16
I0
sI17
I0
sI18
I0
sI19
I0
sI20
I0
sI21
I0
sI22
I0
sI23
I0
sI24
I0
sI25
I0
sI26
I0
sI27
I0
sI28
I0
sI29
I0
sI30
I0
sI31
I0
sI32
I0
sI33
I0
sI34
I0
sI35
I0
sI36
I0
sI37
I0
sI38
I0
sI39
I0
sI40
I0
sI41
I0
sI42
I0
sI43
I0
sI44
I0
sI45
I0
sI46
I0
sI47
I0
sI48
I0
sI49
I0
sI50
I0
sI51
I0
sI52
I0
sI53
I0
sI54
I0
sI55
I0
sI56
I0
sI57
I0
sI58
I0
sI59
I0
sI60
I0
sI61
I0
sI62
I0
sI63
I0
sI64
I0
sI65
I0
sI66
I0
sI67
I0
sI68
I0
sI69
I0
sI70
I0
sI71
I0
sI72
I0
sI73
I0
sI74
I0
sI75
I0
sI76
I0
sI77
I0
sI78
I0
sI79
I0
sI80
I0
sI81
I0
sI82
I0
sI83
I0
sI84
I0
sI85
I0
sI86
I0
sI87
I0
sI88
I0
sI89
I0
sI90
F0.1111111111111111
sI91
I0
sI92
I0
sI93
I0
sI94
I0
sI95
I0
sI96
I0
sI97
I0
sI98
I0
sI99
I0
sI100
I0
sI101
I0
sI102
I0
sI103
I0
sI104
I0
sI105
I0
sI106
I0
sI107
I0
sI108
I0
sI109
I0
sI110
I0
sI111
I0
sI112
I0
ssI101
(dp101
I1
I0
sI2
I0
sI3
I0
sI4
I0
sI5
I0
sI6
I0
sI7
I0
sI8
I0
sI9
I0
sI10
I0
sI11
I0
sI12
I0
sI13
I0
sI14
I0
sI15
I0
sI16
I0
sI17
I0
sI18
I0
sI19
I0
sI20
I0
sI21
I0
sI22
I0
sI23
I0
sI24
I0
sI25
I0
sI26
I0
sI27
I0
sI28
I0
sI29
I0
sI30
I0
sI31
I0
sI32
I0
sI33
F0.07142857142857142
sI34
I0
sI35
I0
sI36
I0
sI37
I0
sI38
I0
sI39
I0
sI40
I0
sI41
I0
sI42
I0
sI43
I0
sI44
I0
sI45
I0
sI46
I0
sI47
I0
sI48
I0
sI49
I0
sI50
I0
sI51
I0
sI52
I0
sI53
I0
sI54
I0
sI55
I0
sI56
I0
sI57
I0
sI58
I0
sI59
I0
sI60
I0
sI61
I0
sI62
I0
sI63
I0
sI64
I0
sI65
I0
sI66
I0
sI67
I0
sI68
I0
sI69
I0
sI70
I0
sI71
I0
sI72
I0
sI73
I0
sI74
I0
sI75
I0
sI76
I0
sI77
I0
sI78
I0
sI79
I0
sI80
I0
sI81
I0
sI82
I0
sI83
I0
sI84
I0
sI85
I0
sI86
I0
sI87
I0
sI88
I0
sI89
I0
sI90
I0
sI91
I0
sI92
I0
sI93
I0
sI94
I0
sI95
I0
sI96
I0
sI97
I0
sI98
I0
sI99
I0
sI100
I0
sI101
I0
sI102
I0
sI103
I0
sI104
I0
sI105
I0
sI106
I0
sI107
I0
sI108
I0
sI109
I0
sI110
I0
sI111
F0.14285714285714285
sI112
I0
ssI102
(dp102
I1
I0
sI2
I0
sI3
I0
sI4
I0
sI5
I0
sI6
I0
sI7
I0
sI8
I0
sI9
I0
sI10
I0
sI11
I0
sI12
I0
sI13
I0
sI14
I0
sI15
I0
sI16
I0
sI17
I0
sI18
I0
sI19
I0
sI20
I0
sI21
I0
sI22
I0
sI23
I0
sI24
I0
sI25
I0
sI26
I0
sI27
I0
sI28
I0
sI29
I0
sI30
I0
sI31
I0
sI32
I0
sI33
I0
sI34
I0
sI35
I0
sI36
I0
sI37
I0
sI38
I0
sI39
I0
sI40
I0
sI41
I0
sI42
I0
sI43
I0
sI44
I0
sI45
I0
sI46
I0
sI47
I0
sI48
I0
sI49
I0
sI50
I0
sI51
I0
sI52
F0.08333333333333333
sI53
I0
sI54
I0
sI55
I0
sI56
I0
sI57
I0
sI58
I0
sI59
I0
sI60
I0
sI61
F0.07142857142857142
sI62
I0
sI63
I0
sI64
I0
sI65
I0
sI66
I0
sI67
I0
sI68
I0
sI69
I0
sI70
I0
sI71
I0
sI72
I0
sI73
I0
sI74
I0
sI75
I0
sI76
I0
sI77
I0
sI78
I0
sI79
I0
sI80
I0
sI81
I0
sI82
I0
sI83
I0
sI84
I0
sI85
I0
sI86
I0
sI87
I0
sI88
I0
sI89
I0
sI90
I0
sI91
I0
sI92
I0
sI93
I0
sI94
I0
sI95
I0
sI96
I0
sI97
I0
sI98
I0
sI99
I0
sI100
I0
sI101
I0
sI102
I0
sI103
I0
sI104
I0
sI105
I0
sI106
I0
sI107
I0
sI108
I0
sI109
I0
sI110
I0
sI111
I0
sI112
I0
ssI103
(dp103
I1
F0.1
sI2
I0
sI3
F0.125
sI4
I0
sI5
I0
sI6
I0
sI7
I0
sI8
I0
sI9
I0
sI10
I0
sI11
I0
sI12
I0
sI13
F0.1
sI14
I0
sI15
I0
sI16
I0
sI17
I0
sI18
F0.125
sI19
I0
sI20
I0
sI21
I0
sI22
I0
sI23
I0
sI24
I0
sI25
I0
sI26
I0
sI27
I0
sI28
I0
sI29
I0
sI30
I0
sI31
I0
sI32
I0
sI33
I0
sI34
I0
sI35
I0
sI36
I0
sI37
I0
sI38
I0
sI39
I0
sI40
I0
sI41
I0
sI42
I0
sI43
I0
sI44
I0
sI45
F0.1
sI46
I0
sI47
I0
sI48
I0
sI49
I0
sI50
I0
sI51
F0.1
sI52
I0
sI53
I0
sI54
F0.07142857142857142
sI55
I0
sI56
I0
sI57
I0
sI58
I0
sI59
I0
sI60
I0
sI61
I0
sI62
I0
sI63
I0
sI64
I0
sI65
I0
sI66
I0
sI67
F0.09090909090909091
sI68
I0
sI69
I0
sI70
I0
sI71
F0.08333333333333333
sI72
I0
sI73
I0
sI74
I0
sI75
I0
sI76
I0
sI77
I0
sI78
I0
sI79
I0
sI80
I0
sI81
I0
sI82
I0
sI83
I0
sI84
I0
sI85
I0
sI86
I0
sI87
I0
sI88
I0
sI89
I0
sI90
I0
sI91
I0
sI92
I0
sI93
I0
sI94
I0
sI95
I0
sI96
I0
sI97
I0
sI98
I0
sI99
I0
sI100
I0
sI101
I0
sI102
I0
sI103
I0
sI104
I0
sI105
I0
sI106
I0
sI107
I0
sI108
I0
sI109
I0
sI110
I0
sI111
I0
sI112
I0
ssI104
(dp104
I1
I0
sI2
I0
sI3
I0
sI4
I0
sI5
I0
sI6
I0
sI7
I0
sI8
I0
sI9
I0
sI10
I0
sI11
I0
sI12
I0
sI13
I0
sI14
I0
sI15
I0
sI16
I0
sI17
I0
sI18
F0.0625
sI19
I0
sI20
I0
sI21
I0
sI22
I0
sI23
I0
sI24
I0
sI25
F0.0625
sI26
I0
sI27
I0
sI28
F0.06666666666666667
sI29
I0
sI30
I0
sI31
I0
sI32
F0.07142857142857142
sI33
I0
sI34
I0
sI35
I0
sI36
I0
sI37
I0
sI38
F0.0625
sI39
I0
sI40
F0.058823529411764705
sI41
I0
sI42
I0
sI43
I0
sI44
I0
sI45
I0
sI46
I0
sI47
I0
sI48
I0
sI49
I0
sI50
I0
sI51
I0
sI52
I0
sI53
I0
sI54
I0
sI55
I0
sI56
I0
sI57
I0
sI58
I0
sI59
I0
sI60
I0
sI61
I0
sI62
I0
sI63
I0
sI64
I0
sI65
I0
sI66
F0.058823529411764705
sI67
I0
sI68
I0
sI69
I0
sI70
I0
sI71
I0
sI72
I0
sI73
I0
sI74
F0.0625
sI75
I0
sI76
I0
sI77
I0
sI78
I0
sI79
I0
sI80
I0
sI81
I0
sI82
I0
sI83
I0
sI84
I0
sI85
I0
sI86
I0
sI87
I0
sI88
I0
sI89
I0
sI90
I0
sI91
I0
sI92
I0
sI93
I0
sI94
I0
sI95
I0
sI96
I0
sI97
I0
sI98
I0
sI99
I0
sI100
I0
sI101
I0
sI102
I0
sI103
I0
sI104
I0
sI105
F0.06666666666666667
sI106
I0
sI107
I0
sI108
I0
sI109
I0
sI110
I0
sI111
I0
sI112
I0
ssI105
(dp105
I1
I0
sI2
I0
sI3
F0.08333333333333333
sI4
I0
sI5
I0
sI6
I0
sI7
I0
sI8
I0
sI9
I0
sI10
I0
sI11
I0
sI12
F0.1
sI13
F0.16666666666666666
sI14
I0
sI15
I0
sI16
F0.09090909090909091
sI17
I0
sI18
F0.08333333333333333
sI19
I0
sI20
I0
sI21
I0
sI22
I0
sI23
I0
sI24
I0
sI25
F0.09090909090909091
sI26
F0.08333333333333333
sI27
F0.07692307692307693
sI28
I0
sI29
I0
sI30
I0
sI31
I0
sI32
F0.1
sI33
I0
sI34
F0.08333333333333333
sI35
I0
sI36
F0.08333333333333333
sI37
I0
sI38
I0
sI39
I0
sI40
I0
sI41
I0
sI42
I0
sI43
I0
sI44
I0
sI45
I0
sI46
I0
sI47
F0.08333333333333333
sI48
I0
sI49
F0.06666666666666667
sI50
I0
sI51
F0.16666666666666666
sI52
I0
sI53
I0
sI54
I0
sI55
I0
sI56
I0
sI57
I0
sI58
I0
sI59
I0
sI60
F0.16666666666666666
sI61
I0
sI62
F0.09090909090909091
sI63
I0
sI64
I0
sI65
I0
sI66
I0
sI67
I0
sI68
I0
sI69
I0
sI70
I0
sI71
I0
sI72
I0
sI73
I0
sI74
I0
sI75
I0
sI76
I0
sI77
I0
sI78
I0
sI79
I0
sI80
I0
sI81
I0
sI82
F0.09090909090909091
sI83
I0
sI84
I0
sI85
F0.06666666666666667
sI86
I0
sI87
I0
sI88
I0
sI89
I0
sI90
I0
sI91
I0
sI92
I0
sI93
I0
sI94
I0
sI95
I0
sI96
I0
sI97
I0
sI98
I0
sI99
I0
sI100
I0
sI101
I0
sI102
I0
sI103
I0
sI104
F0.06666666666666667
sI105
I0
sI106
I0
sI107
I0
sI108
I0
sI109
I0
sI110
I0
sI111
I0
sI112
I0
ssI106
(dp106
I1
I0
sI2
I0
sI3
I0
sI4
I0
sI5
I0
sI6
I0
sI7
I0
sI8
I0
sI9
I0
sI10
I0
sI11
I0
sI12
I0
sI13
I0
sI14
I0
sI15
I0
sI16
I0
sI17
I0
sI18
I0
sI19
I0
sI20
I0
sI21
I0
sI22
I0
sI23
I0
sI24
I0
sI25
I0
sI26
I0
sI27
I0
sI28
I0
sI29
I0
sI30
I0
sI31
I0
sI32
I0
sI33
I0
sI34
I0
sI35
I0
sI36
I0
sI37
I0
sI38
I0
sI39
I0
sI40
I0
sI41
I0
sI42
I0
sI43
I0
sI44
I0
sI45
I0
sI46
I0
sI47
I0
sI48
I0
sI49
I0
sI50
I0
sI51
I0
sI52
I0
sI53
I0
sI54
I0
sI55
I0
sI56
I0
sI57
I0
sI58
I0
sI59
I0
sI60
I0
sI61
I0
sI62
I0
sI63
I0
sI64
I0
sI65
I0
sI66
I0
sI67
I0
sI68
I0
sI69
I0
sI70
I0
sI71
I0
sI72
I0
sI73
I0
sI74
I0
sI75
I0
sI76
I0
sI77
I0
sI78
I0
sI79
I0
sI80
I0
sI81
I0
sI82
I0
sI83
I0
sI84
I0
sI85
I0
sI86
I0
sI87
I0
sI88
I0
sI89
I0
sI90
I0
sI91
I0
sI92
I0
sI93
I0
sI94
I0
sI95
I0
sI96
I0
sI97
I0
sI98
I0
sI99
I0
sI100
I0
sI101
I0
sI102
I0
sI103
I0
sI104
I0
sI105
I0
sI106
I0
sI107
I0
sI108
I0
sI109
NsI110
I0
sI111
I0
sI112
I0
ssI107
(dp107
I1
I0
sI2
I0
sI3
I0
sI4
I0
sI5
I0
sI6
I0
sI7
I0
sI8
I-1
sI9
I0
sI10
I0
sI11
I0
sI12
I0
sI13
I0
sI14
I0
sI15
I0
sI16
I0
sI17
I0
sI18
I0
sI19
I0
sI20
I0
sI21
I0
sI22
I0
sI23
I0
sI24
I0
sI25
I0
sI26
I0
sI27
I0
sI28
I0
sI29
I0
sI30
I0
sI31
I0
sI32
I0
sI33
I0
sI34
I0
sI35
I0
sI36
I0
sI37
I0
sI38
I0
sI39
I0
sI40
I0
sI41
I0
sI42
I0
sI43
I0
sI44
I0
sI45
I0
sI46
I0
sI47
I0
sI48
I0
sI49
I0
sI50
I0
sI51
I0
sI52
I-1
sI53
I0
sI54
I0
sI55
I0
sI56
I0
sI57
I0
sI58
I0
sI59
I0
sI60
I0
sI61
I0
sI62
I0
sI63
I0
sI64
I0
sI65
I0
sI66
I0
sI67
I0
sI68
I0
sI69
I0
sI70
I0
sI71
I0
sI72
I0
sI73
I0
sI74
I0
sI75
I0
sI76
I0
sI77
I-1
sI78
I0
sI79
I0
sI80
I0
sI81
I-1
sI82
I0
sI83
I0
sI84
I0
sI85
I0
sI86
I0
sI87
I0
sI88
I0
sI89
I-1
sI90
I0
sI91
I0
sI92
I0
sI93
I0
sI94
I0
sI95
I0
sI96
I0
sI97
I-1
sI98
I0
sI99
I0
sI100
I0
sI101
I0
sI102
I0
sI103
I0
sI104
I0
sI105
I0
sI106
I0
sI107
I0
sI108
I0
sI109
I0
sI110
I0
sI111
I0
sI112
I0
ssI108
(dp108
I1
I0
sI2
I0
sI3
I0
sI4
I0
sI5
I0
sI6
I0
sI7
I0
sI8
I0
sI9
I0
sI10
I0
sI11
I0
sI12
I0
sI13
I0
sI14
I0
sI15
I0
sI16
I0
sI17
I0
sI18
I0
sI19
I0
sI20
I0
sI21
I0
sI22
I0
sI23
I0
sI24
I0
sI25
I0
sI26
I0
sI27
I0
sI28
I0
sI29
I0
sI30
I0
sI31
I0
sI32
I0
sI33
I0
sI34
F0.07142857142857142
sI35
F0.08333333333333333
sI36
I0
sI37
I0
sI38
I0
sI39
I0
sI40
I0
sI41
I0
sI42
I0
sI43
I0
sI44
I0
sI45
I0
sI46
I0
sI47
I0
sI48
I0
sI49
I0
sI50
I0
sI51
I0
sI52
I0
sI53
I0
sI54
I0
sI55
I0
sI56
I0
sI57
I0
sI58
I0
sI59
I0
sI60
I0
sI61
I0
sI62
I0
sI63
I0
sI64
I0
sI65
I0
sI66
I0
sI67
I0
sI68
I0
sI69
I0
sI70
I0
sI71
I0
sI72
I0
sI73
I0
sI74
I0
sI75
I0
sI76
I0
sI77
I0
sI78
I0
sI79
I0
sI80
I0
sI81
I0
sI82
I0
sI83
I0
sI84
I0
sI85
I0
sI86
I0
sI87
I0
sI88
I0
sI89
I0
sI90
I0
sI91
I0
sI92
I0
sI93
I0
sI94
I0
sI95
I0
sI96
I0
sI97
I0
sI98
I0
sI99
I0
sI100
I0
sI101
I0
sI102
I0
sI103
I0
sI104
I0
sI105
I0
sI106
I0
sI107
I0
sI108
I0
sI109
I0
sI110
I0
sI111
I0
sI112
I0
ssI109
(dp109
I1
I0
sI2
I0
sI3
I0
sI4
I0
sI5
I0
sI6
I0
sI7
I0
sI8
I0
sI9
I0
sI10
I0
sI11
I0
sI12
I0
sI13
I0
sI14
I0
sI15
I0
sI16
I0
sI17
I0
sI18
I0
sI19
I0
sI20
I0
sI21
I0
sI22
I0
sI23
I0
sI24
I0
sI25
I0
sI26
I0
sI27
I0
sI28
I0
sI29
I0
sI30
I0
sI31
I0
sI32
I0
sI33
I0
sI34
I0
sI35
I0
sI36
I0
sI37
I0
sI38
I0
sI39
I0
sI40
I0
sI41
I0
sI42
I0
sI43
I0
sI44
I0
sI45
I0
sI46
I0
sI47
I0
sI48
I0
sI49
I0
sI50
I0
sI51
I0
sI52
I0
sI53
I0
sI54
I0
sI55
I0
sI56
I0
sI57
I0
sI58
I0
sI59
I0
sI60
I0
sI61
I0
sI62
I0
sI63
I0
sI64
I0
sI65
I0
sI66
I0
sI67
I0
sI68
I0
sI69
I0
sI70
I0
sI71
I0
sI72
I0
sI73
I0
sI74
I0
sI75
I0
sI76
I0
sI77
I0
sI78
I0
sI79
I0
sI80
I0
sI81
I0
sI82
I0
sI83
I0
sI84
I0
sI85
I0
sI86
I0
sI87
I0
sI88
I0
sI89
I0
sI90
I0
sI91
I0
sI92
I0
sI93
I0
sI94
I0
sI95
I0
sI96
I0
sI97
I0
sI98
I0
sI99
I0
sI100
I0
sI101
I0
sI102
I0
sI103
I0
sI104
I0
sI105
I0
sI106
NsI107
I0
sI108
I0
sI109
I0
sI110
I0
sI111
I0
sI112
I0
ssI110
(dp110
I1
I0
sI2
I0
sI3
I0
sI4
I0
sI5
I0
sI6
I0
sI7
I0
sI8
I0
sI9
I0
sI10
I0
sI11
I0
sI12
I0
sI13
I0
sI14
I0
sI15
I0
sI16
I0
sI17
I0
sI18
I0
sI19
I0
sI20
I0
sI21
I0
sI22
I0
sI23
I0
sI24
I0
sI25
I0
sI26
I0
sI27
I0
sI28
I0
sI29
I0
sI30
I0
sI31
I0
sI32
I0
sI33
I0
sI34
I0
sI35
I0
sI36
I0
sI37
I0
sI38
I0
sI39
I0
sI40
I0
sI41
I0
sI42
I0
sI43
I0
sI44
I0
sI45
I0
sI46
I0
sI47
I0
sI48
I0
sI49
I0
sI50
I0
sI51
I0
sI52
I0
sI53
I0
sI54
I0
sI55
I0
sI56
I0
sI57
I0
sI58
I0
sI59
I0
sI60
I0
sI61
I0
sI62
I0
sI63
I0
sI64
I0
sI65
I0
sI66
I0
sI67
I0
sI68
I0
sI69
I0
sI70
I0
sI71
I0
sI72
I0
sI73
I0
sI74
I0
sI75
I0
sI76
I0
sI77
I0
sI78
I0
sI79
I0
sI80
F0.08333333333333333
sI81
I0
sI82
I0
sI83
I0
sI84
I0
sI85
I0
sI86
I0
sI87
I0
sI88
I0
sI89
I0
sI90
I0
sI91
I0
sI92
I0
sI93
I0
sI94
I0
sI95
I0
sI96
I0
sI97
I0
sI98
I0
sI99
I0
sI100
I0
sI101
I0
sI102
I0
sI103
I0
sI104
I0
sI105
I0
sI106
I0
sI107
I0
sI108
I0
sI109
I0
sI110
I0
sI111
I0
sI112
I0
ssI111
(dp111
I1
I0
sI2
I0
sI3
I0
sI4
I0
sI5
I0
sI6
I0
sI7
I0
sI8
I0
sI9
I0
sI10
I0
sI11
I0
sI12
I0
sI13
I0
sI14
I0
sI15
I0
sI16
I0
sI17
I0
sI18
I0
sI19
I0
sI20
I0
sI21
I0
sI22
I0
sI23
I0
sI24
I0
sI25
I0
sI26
I0
sI27
I0
sI28
I0
sI29
I0
sI30
I0
sI31
I0
sI32
I0
sI33
I0
sI34
I0
sI35
I0
sI36
I0
sI37
I0
sI38
I0
sI39
I0
sI40
I0
sI41
I0
sI42
I0
sI43
I0
sI44
I0
sI45
I0
sI46
I0
sI47
I0
sI48
I0
sI49
I0
sI50
I0
sI51
I0
sI52
I0
sI53
I0
sI54
I0
sI55
I0
sI56
I0
sI57
I0
sI58
I0
sI59
I0
sI60
I0
sI61
I0
sI62
I0
sI63
I0
sI64
I0
sI65
I0
sI66
I0
sI67
I0
sI68
I0
sI69
I0
sI70
I0
sI71
I0
sI72
I0
sI73
I0
sI74
I0
sI75
I0
sI76
I0
sI77
I0
sI78
I0
sI79
I0
sI80
F0.07692307692307693
sI81
I0
sI82
I0
sI83
I0
sI84
I0
sI85
I0
sI86
I0
sI87
I0
sI88
I0
sI89
I0
sI90
I0
sI91
I0
sI92
I0
sI93
I0
sI94
I0
sI95
I0
sI96
I0
sI97
I0
sI98
I0
sI99
I0
sI100
I0
sI101
F0.14285714285714285
sI102
I0
sI103
I0
sI104
I0
sI105
I0
sI106
I0
sI107
I0
sI108
I0
sI109
I0
sI110
I0
sI111
I0
sI112
I0
ssI112
(dp112
I1
I0
sI2
I0
sI3
F0.1111111111111111
sI4
I0
sI5
I0
sI6
I0
sI7
I0
sI8
I0
sI9
I0
sI10
I0
sI11
I0
sI12
I0
sI13
I0
sI14
I0
sI15
I0
sI16
I0
sI17
I0
sI18
I0
sI19
I0
sI20
I0
sI21
I0
sI22
I0
sI23
I0
sI24
I0
sI25
I0
sI26
I0
sI27
I0
sI28
I0
sI29
I0
sI30
I0
sI31
I0
sI32
I0
sI33
I0
sI34
I0
sI35
I0
sI36
I0
sI37
I0
sI38
I0
sI39
I0
sI40
I0
sI41
I0
sI42
I0
sI43
I0
sI44
I0
sI45
I0
sI46
I0
sI47
I0
sI48
I0
sI49
I0
sI50
I0
sI51
I0
sI52
I0
sI53
I0
sI54
I0
sI55
I0
sI56
I0
sI57
I0
sI58
I0
sI59
I0
sI60
I0
sI61
I0
sI62
I0
sI63
I0
sI64
I0
sI65
I0
sI66
I0
sI67
I0
sI68
I0
sI69
I0
sI70
I0
sI71
I0
sI72
I0
sI73
I0
sI74
I0
sI75
I0
sI76
I0
sI77
I0
sI78
I0
sI79
I0
sI80
I0
sI81
I0
sI82
I0
sI83
I0
sI84
I0
sI85
I0
sI86
I0
sI87
I0
sI88
I0
sI89
I0
sI90
I0
sI91
I0
sI92
I0
sI93
I0
sI94
I0
sI95
I0
sI96
I0
sI97
I0
sI98
I0
sI99
I0
sI100
I0
sI101
I0
sI102
I0
sI103
I0
sI104
I0
sI105
I0
sI106
I0
sI107
I0
sI108
I0
sI109
I0
sI110
I0
sI111
I0
sI112
I0
ss.