(dp0
I0
(dp1
S'dataID'
p2
I1
sS'nodetrixID'
p3
I0
sS'name'
p4
S'man'
p5
ssI1
(dp6
g2
I2
sg3
I1
sg4
S'agreeable'
p7
ssI2
(dp8
g2
I3
sg3
I2
sg4
S'old'
p9
ssI3
(dp10
g2
I4
sg3
I3
sg4
S'person'
p11
ssI4
(dp12
g2
I5
sg3
I4
sg4
S'short'
p13
ssI5
(dp14
g2
I6
sg3
I5
sg4
S'anything'
p15
ssI6
(dp16
g2
I7
sg3
I6
sg4
S'arm'
p17
ssI7
(dp18
g2
I8
sg3
I7
sg4
S'round'
p19
ssI8
(dp20
g2
I9
sg3
I8
sg4
S'first'
p21
ssI9
(dp22
g2
I10
sg3
I9
sg4
S'aunt'
p23
ssI10
(dp24
g2
I11
sg3
I10
sg4
S'bad'
p25
ssI11
(dp26
g2
I12
sg3
I11
sg4
S'air'
p27
ssI12
(dp28
g2
I13
sg3
I12
sg4
S'boy'
p29
ssI13
(dp30
g2
I14
sg3
I13
sg4
S'black'
p31
ssI14
(dp32
g2
I15
sg3
I14
sg4
S'beautiful'
p33
ssI15
(dp34
g2
I16
sg3
I15
sg4
S'face'
p35
ssI16
(dp36
g2
I17
sg3
I16
sg4
S'letter'
p37
ssI17
(dp38
g2
I18
sg3
I17
sg4
S'little'
p39
ssI18
(dp40
g2
I19
sg3
I18
sg4
S'young'
p41
ssI19
(dp42
g2
I20
sg3
I19
sg4
S'best'
p43
ssI20
(dp44
g2
I21
sg3
I20
sg4
S'course'
p45
ssI21
(dp46
g2
I22
sg3
I21
sg4
S'friend'
p47
ssI22
(dp48
g2
I23
sg3
I22
sg4
S'love'
p49
ssI23
(dp50
g2
I24
sg3
I23
sg4
S'part'
p51
ssI24
(dp52
g2
I25
sg3
I24
sg4
S'room'
p53
ssI25
(dp54
g2
I26
sg3
I25
sg4
S'thing'
p55
ssI26
(dp56
g2
I27
sg3
I26
sg4
S'time'
p57
ssI27
(dp58
g2
I28
sg3
I27
sg4
S'way'
p59
ssI28
(dp60
g2
I29
sg3
I28
sg4
S'better'
p61
ssI29
(dp62
g2
I30
sg3
I29
sg4
S'heart'
p63
ssI30
(dp64
g2
I31
sg3
I30
sg4
S'mind'
p65
ssI31
(dp66
g2
I32
sg3
I31
sg4
S'place'
p67
ssI32
(dp68
g2
I33
sg3
I32
sg4
S'right'
p69
ssI33
(dp70
g2
I34
sg3
I33
sg4
S'state'
p71
ssI34
(dp72
g2
I35
sg3
I34
sg4
S'woman'
p73
ssI35
(dp74
g2
I36
sg3
I35
sg4
S'word'
p75
ssI36
(dp76
g2
I37
sg3
I36
sg4
S'door'
p77
ssI37
(dp78
g2
I38
sg3
I37
sg4
S'eye'
p79
ssI38
(dp80
g2
I39
sg3
I38
sg4
S'bright'
p81
ssI39
(dp82
g2
I40
sg3
I39
sg4
S'evening'
p83
ssI40
(dp84
g2
I41
sg3
I40
sg4
S'morning'
p85
ssI41
(dp86
g2
I42
sg3
I41
sg4
S'certain'
p87
ssI42
(dp88
g2
I43
sg3
I42
sg4
S'day'
p89
ssI43
(dp90
g2
I44
sg3
I43
sg4
S'other'
p91
ssI44
(dp92
g2
I45
sg3
I44
sg4
S'child'
p93
ssI45
(dp94
g2
I46
sg3
I45
sg4
S'happy'
p95
ssI46
(dp96
g2
I47
sg3
I46
sg4
S'common'
p97
ssI47
(dp98
g2
I48
sg3
I47
sg4
S'dark'
p99
ssI48
(dp100
g2
I49
sg3
I48
sg4
S'kind'
p101
ssI49
(dp102
g2
I50
sg3
I49
sg4
S'night'
p103
ssI50
(dp104
g2
I51
sg3
I50
sg4
S'dear'
p105
ssI51
(dp106
g2
I52
sg3
I51
sg4
S'good'
p107
ssI52
(dp108
g2
I53
sg3
I52
sg4
S'home'
p109
ssI53
(dp110
g2
I54
sg3
I53
sg4
S'mother'
p111
ssI54
(dp112
g2
I55
sg3
I54
sg4
S'pretty'
p113
ssI55
(dp114
g2
I56
sg3
I55
sg4
S'open'
p115
ssI56
(dp116
g2
I57
sg3
I56
sg4
S'early'
p117
ssI57
(dp118
g2
I58
sg3
I57
sg4
S'fire'
p119
ssI58
(dp120
g2
I59
sg3
I58
sg4
S'full'
p121
ssI59
(dp122
g2
I60
sg3
I59
sg4
S'great'
p123
ssI60
(dp124
g2
I61
sg3
I60
sg4
S'master'
p125
ssI61
(dp126
g2
I62
sg3
I61
sg4
S'moment'
p127
ssI62
(dp128
g2
I63
sg3
I62
sg4
S'work'
p129
ssI63
(dp130
g2
I64
sg3
I63
sg4
S'general'
p131
ssI64
(dp132
g2
I65
sg3
I64
sg4
S'fancy'
p133
ssI65
(dp134
g2
I66
sg3
I65
sg4
S'voice'
p135
ssI66
(dp136
g2
I67
sg3
I66
sg4
S'head'
p137
ssI67
(dp138
g2
I68
sg3
I67
sg4
S'hope'
p139
ssI68
(dp140
g2
I69
sg3
I68
sg4
S'long'
p141
ssI69
(dp142
g2
I70
sg3
I69
sg4
S'greater'
p143
ssI70
(dp144
g2
I71
sg3
I70
sg4
S'hand'
p145
ssI71
(dp146
g2
I72
sg3
I71
sg4
S'hard'
p147
ssI72
(dp148
g2
I73
sg3
I72
sg4
S'red'
p149
ssI73
(dp150
g2
I74
sg3
I73
sg4
S'life'
p151
ssI74
(dp152
g2
I75
sg3
I74
sg4
S'glad'
p153
ssI75
(dp154
g2
I76
sg3
I75
sg4
S'large'
p155
ssI76
(dp156
g2
I77
sg3
I76
sg4
S'new'
p157
ssI77
(dp158
g2
I78
sg3
I77
sg4
S'white'
p159
ssI78
(dp160
g2
I79
sg3
I78
sg4
S'late'
p161
ssI79
(dp162
g2
I80
sg3
I79
sg4
S'whole'
p163
ssI80
(dp164
g2
I81
sg3
I80
sg4
S'light'
p165
ssI81
(dp166
g2
I82
sg3
I81
sg4
S'manner'
p167
ssI82
(dp168
g2
I83
sg3
I82
sg4
S'bed'
p169
ssI83
(dp170
g2
I84
sg3
I83
sg4
S'house'
p171
ssI84
(dp172
g2
I85
sg3
I84
sg4
S'low'
p173
ssI85
(dp174
g2
I86
sg3
I85
sg4
S'money'
p175
ssI86
(dp176
g2
I87
sg3
I86
sg4
S'ready'
p177
ssI87
(dp178
g2
I88
sg3
I87
sg4
S'small'
p179
ssI88
(dp180
g2
I89
sg3
I88
sg4
S'strange'
p181
ssI89
(dp182
g2
I90
sg3
I89
sg4
S'thought'
p183
ssI90
(dp184
g2
I91
sg3
I90
sg4
S'lost'
p185
ssI91
(dp186
g2
I92
sg3
I91
sg4
S'alone'
p187
ssI92
(dp188
g2
I93
sg3
I92
sg4
S'nothing'
p189
ssI93
(dp190
g2
I94
sg3
I93
sg4
S'miserable'
p191
ssI94
(dp192
g2
I95
sg3
I94
sg4
S'natural'
p193
ssI95
(dp194
g2
I96
sg3
I95
sg4
S'half'
p195
ssI96
(dp196
g2
I97
sg3
I96
sg4
S'wrong'
p197
ssI97
(dp198
g2
I98
sg3
I97
sg4
S'name'
p199
ssI98
(dp200
g2
I99
sg3
I98
sg4
S'pleasant'
p201
ssI99
(dp202
g2
I100
sg3
I99
sg4
S'possible'
p203
ssI100
(dp204
g2
I101
sg3
I100
sg4
S'side'
p205
ssI101
(dp206
g2
I102
sg3
I101
sg4
S'perfect'
p207
ssI102
(dp208
g2
I103
sg3
I102
sg4
S'poor'
p209
ssI103
(dp210
g2
I104
sg3
I103
sg4
S'quiet'
p211
ssI104
(dp212
g2
I105
sg3
I104
sg4
S'same'
p213
ssI105
(dp214
g2
I106
sg3
I105
sg4
S'strong'
p215
ssI106
(dp216
g2
I107
sg3
I106
sg4
S'something'
p217
ssI107
(dp218
g2
I108
sg3
I107
sg4
S'true'
p219
ssI108
(dp220
g2
I109
sg3
I108
sg4
S'usual'
p221
ssI109
(dp222
g2
I110
sg3
I109
sg4
S'family'
p223
ssI110
(dp224
g2
I111
sg3
I110
sg4
S'world'
p225
ssI111
(dp226
g2
I112
sg3
I111
sg4
S'year'
p227
ss.